Cc:_glClearStencil
Xig:_UInt16_System_IConvertible_ToChar_m2096055221_AdjustorThunk
YOf:_Array_TrueForAll_TisRuntimeObject_m1084992726_gshared
Qvj:__ZN6il2cpp2vm5Array13GetByteLengthEP11Il2CppArray
hJh:_Array_InternalArray__set_Item_TisDateTime_t3738529785_m1331437427_gshared
HJi:_KeyBuilder_get_Rng_m3373220441
BGa:__Z30GetIntermediateRendererManagerv
Zla:__Z21SourceMipLevelForBlitiiii
aLa:__ZN31CanvasBatchIntermediateRenderer15AddAsRenderNodeER15RenderNodeQueueRK20DeprecatedSourceData
mgg:_TimeSpan_get_Hours_m550761902
oTd:_UnmanagedMemoryStream_Write_m930787521
mr:__ZN11UnityEngine9Animation28GenericAnimationBindingCacheD2Ev
mAi:_X509Store_LoadCrl_m1881903843
BLh:_Array_Sort_TisUICharInfo_t75501106_TisUICharInfo_t75501106_m722747892_gshared
AWa:__ZNSt3__26vectorI13dynamic_arrayI8Vector2fLj4EENS_9allocatorIS3_EEEC2INS_11__wrap_iterIPS3_EEEET_SB_RKS5_PNS_9enable_ifIXaasr21__is_forward_iteratorISB_EE5valuesr16is_constructibleIS3_NS_15iterator_traitsISB_E9referenceEEE5valueEvE4typeE
SMb:__Z18RestoreRenderStateR20CameraRenderOldStateR17ShaderPassContext
knb:__Z18Transfer_BlittableI18StreamedBinaryReadILb1EELb1E5RectTIfEEvRK29SerializationCommandArgumentsR31RuntimeSerializationCommandInfo
cjb:__Z18Transfer_BlittableI24GenerateTypeTreeTransferLb0E11ColorRGBA32EvRK29SerializationCommandArgumentsR31RuntimeSerializationCommandInfo
Xrb:__Z25scripting_class_from_name17ScriptingImagePtrPKcS1_
TRf:_Array_InternalArray__IndexOf_TisKeyValuePair_2_t3699644050_m1021241249_gshared
_ej:__ZN14dense_hash_mapI10KeyWrapperINSt3__24pairIPK12PropertyInfoP11Il2CppClassEEEj17ReflectionMapHashIS8_ENS9_14EqualsComparerINS1_8equal_toIS8_EEEENS1_9allocatorINS2_IKS9_jEEEEE15set_deleted_keyERSH_
ztb:__Z29scripting_class_enum_basetype17ScriptingClassPtr
Ppc:__ZN16PhysicsManager2D7RaycastERK3RayfiR12RaycastHit2D
qxe:_InternalEnumerator_1_get_Current_m1477715453_gshared
zab:__ZNK20LocalFileSystemPosix6ParentERK13FileEntryDataRN4core12basic_stringIcNS3_20StringStorageDefaultIcEEEE
UAg:_RectTransform_GetWorldCorners_m3553547973
Amh:_Collection_1_System_Collections_IList_Remove_m1476284619_gshared
oVd:_MonoType_IsPrimitiveImpl_m2401722705
wDf:_SHA1CryptoServiceProvider__ctor_m4195188793
jqg:_CSSMeasureFunc_BeginInvoke_m3802154595
Hcd:_Dropdown_Hide_m504034854
Lza:__ZN17PersistentManager22CheckInstanceIDsLoadedEPii
xTa:__ZN9Texture2D25CreateScaledAndPaddedDataEPP17SharedTextureDataS2_
vFg:_Vector2_get_up_m2647420593
Dja:__ZN7ApiGLES17CopyBufferSubDataEjjlll
WUf:_Array_InternalArray__ICollection_CopyTo_TisUInt64_t4134040092_m691431926_gshared
R4e:_IPAddress_ToString_m1181734207
Ubg:_StringBuilder_Append_m1965104174
Yec:__ZN5Unity9rapidjson15GenericDocumentINS0_4UTF8IcEE13JSONAllocatorS4_E11ParseStreamILj1ES3_NS0_25GenericInsituStringStreamIS3_EEEERS5_RT1_
p$f:_EqualityComparer_1__cctor_m3766928733_gshared
ZEb:__ZN25CameraStackRenderingState20GetOrCreateBuiltinRTE24BuiltinRenderTextureTypeii17DepthBufferFormat19RenderTextureFormatj22RenderTextureReadWrite14VRTextureUsagei
dFh:_UnityAction_1_Invoke_m610765085_gshared
BC:__ZN11AudioModule26SetDefaultMicrophoneDriverEPv
gdf:_Kernel_modInverse_m652700340
UXa:__ZNK14Texture2DArray26CanReuploadDataToGfxDeviceEv
mJb:__ZN17PrePassRenderLoop14RenderBasePassEP13RenderTextureRK14LightingLayersR13dynamic_arrayI16RenderObjectDataLj4EERbR10MinMaxAABB
Ncc:__ZN5IMGUI18RepaintModalWindowER8GUIState
kU:__ZNK15dense_hashtableINSt3__24pairIKN9ShaderLab7Program23ShaderKeywordSetAndHashEPKNS2_10SubProgramEEES4_NS3_24ShaderKeywordHashFunctorEN14dense_hash_mapIS4_S8_SA_NS0_8equal_toIS4_EE13stl_allocatorIS9_L18MemLabelIdentifier67ELi16EEE9SelectKeyESD_SG_E23find_position_with_hashERS5_j
Yyf:_CompareInfo_Finalize_m404687489
DWa:__Z23SetSpriteMeshIndexCountP14SharedMeshDataj
Qdg:_UTF8Decoder_GetChars_m1236346907
wDg:_TouchScreenKeyboard_Open_m231964201
JOa:__ZN7Texture13SetFilterModeEi
pxj:__ZN6il2cpp8metadata13GenericMethod9GetMethodEPK19Il2CppGenericMethod
wq:__ZNSt3__26vectorIN4core12basic_stringIcNS1_20StringStorageDefaultIcEEEENS_9allocatorIS5_EEE7reserveEj
RYd:_Default_SelectProperty_m1220817815
bbe:_RemotingConfiguration_IsRemotelyActivatedClientType_m4117048589
WAg:_Transform_TransformPoint_m226827784
wda:__ZN13GfxDeviceGLES11SetViewportERK5RectTIiE
Td:_emscripten_glDepthRange
Mui:_SslStreamBase_BeginNegotiateHandshake_m4180435790
gPb:__ZNSt3__26vectorINS_4pairIN4core12basic_stringIcNS2_20StringStorageDefaultIcEEEES6_EE13stl_allocatorIS7_L18MemLabelIdentifier38ELi16EEE12__move_rangeEPS7_SC_SC_
G6:__Z14resize_trimmedINSt3__26vectorIN9ShaderLab20SerializedSubProgram12UAVParameterENS0_9allocatorIS4_EEEEEvRT_j
qfc:__ZN5Unity9rapidjson13GenericReaderINS0_4UTF8IcEES3_13JSONAllocatorE11ParseObjectILj1ENS0_25GenericInsituStringStreamIS3_EENS0_15GenericDocumentIS3_S4_S4_EEEEvRT0_RT1_
f7c:_StandaloneInputModule_GetRawMoveVector_m2737091079
h1b:__ZN13BuildSettings34ConvertScenePathToDisplayScenePathERKN4core12basic_stringIcNS0_20StringStorageDefaultIcEEEE
Pri:__ZL62Selectable_t3250028441_CustomAttributesCacheGenerator_m_ColorsP21CustomAttributesCache
uvi:_SslStreamBase_EndWrite_m4073224031
KR:__ZNSt3__218__insertion_sort_3IRNS_6__lessI14ObjectLoadDataS2_EEPS2_EEvT0_S6_T_
tla:__ZN4crndL20crnd_default_reallocEPvjPjbS0_
jLj:__ZNSt3__212basic_stringIcNS_11char_traitsIcEENS_9allocatorIcEEEC2ERKS5_
tXa:__ZN18SpriteAtlasManager19AddRequestingSpriteE4PPtrI6SpriteE
Y8b:__Z33Texture_CUSTOM_Internal_GetHeightP12Il2CppObject
GGe:_ValueCollection_System_Collections_ICollection_get_SyncRoot_m3381653267_gshared
XLb:__ZN23ScriptableRenderContextC2Ev
vfd:_GridLayoutGroup_get_spacing_m2409263614
zFe:_Enumerator_MoveNext_m3051926902_gshared
t8f:_List_1_CheckIndex_m581273900_gshared
nLc:_UNITY_FT_Stream_GetChar
Lnb:__Z18Transfer_BlittableI18StreamedBinaryReadILb1EELb1EdEvRK29SerializationCommandArgumentsR31RuntimeSerializationCommandInfo
Htb:__Z26BuildSerializationCacheFor17ScriptingClassPtrRb
Dra:__ZN7ApiGLES15BlitFramebufferEN2gl6HandleILNS0_10ObjectTypeE9EEENS0_15FramebufferReadES3_S3_iiiiiiiiNS0_15FramebufferTypeE
BUg:__Z112RuntimeInvoker_RuntimeObject_RuntimeObject_RuntimeObject_RuntimeObject_RuntimeObject_RuntimeObject_RuntimeObjectPFvvEPK10MethodInfoPvPS4_
Fwe:_InternalEnumerator_1_System_Collections_IEnumerator_get_Current_m3553395619_AdjustorThunk
$rd:_Array_SetValue_m3998268557
Ilc:__ZN8JSONRead8TransferI8Vector4fEEvRT_PKc17TransferMetaFlagsb
R9c:_ColorBlock_set_highlightedColor_m2089444414_AdjustorThunk
DAg:_RectTransform_INTERNAL_set_anchoredPosition_m939517950
Wkf:_Context_EndSwitchingSecurityParameters_m4148956166
rGc:_otv_PairPos_validate
v6i:__ZN6il2cpp6icalls8mscorlib6SystemL8IsStaticEPK12PropertyInfo
Yub:__Z9InitInputv
akb:__Z29Transfer_Blittable_ArrayFieldI24GenerateTypeTreeTransfer11ColorRGBA32EvRT_R9ArrayInfoRK23StaticTransferFieldInfo
vaj:__ZN6il2cpp2gc19AppendOnlyGCHashMapINSt3__24pairIPK10MethodInfoP11Il2CppClassEEP22Il2CppReflectionMethod17ReflectionMapHashIS9_ENS2_8equal_toIS9_EEE3AddERKS9_SB_
Ebb:__ZN16MemoryFileSystem6DeleteER13FileEntryDatab
UNg:__Z81RuntimeInvoker_Void_t1185182177_RuntimeObject_Int64_t3736567304_Int32_t2950945753PFvvEPK10MethodInfoPvPS4_
E9f:_List_1_set_Item_m1979164443_gshared
hTf:_Array_InternalArray__ICollection_Add_TisLink_t3209266973_m77922316_gshared
pma:__ZL21BlitScaleStbImageImplRK14ImageReferenceRS_NS_10ColorSpaceE
Nud:_Boolean_System_IConvertible_ToUInt16_m3465173538_AdjustorThunk
Jsc:__ZNSt3__26__sortIR31RayHitsByInverseDepthComparitorP12RaycastHit2DEEvT0_S5_T_
GRe:_InputField_get_keyboardType_m1248105267
Veb:__Z29Transfer_Blittable_ArrayFieldI14SafeBinaryReadyEvRT_R9ArrayInfoRK23StaticTransferFieldInfo
sA:__ZN20SoundChannelInstance15setChannelGroupEPN4FMOD12ChannelGroupE
NAi:_Match__ctor_m2425511580
qc:invoke_vifffii
mmj:__ZN6il2cpp2vm9Exception27RaiseNullReferenceExceptionEv
CCa:__ZNK25MultiBlocksMemoryFileData5CloneEv
ZCj:_GC_add_ext_descriptor
M8i:__ZNK15dense_hashtableINSt3__24pairIK10KeyWrapperINS1_IPK14Il2CppAssemblyP11Il2CppClassEEEjEES9_17ReflectionMapHashIS8_EN14dense_hash_mapIS9_jSD_NS9_14EqualsComparerINS0_8equal_toIS8_EEEENS0_9allocatorISB_EEE9SelectKeyESI_SK_E23find_position_with_hashERSA_j
vNh:_LayoutGroup_SetProperty_TisSingle_t1397266774_m793506911_gshared
_jd:_CryptoConfig_CreateFromName_m1538277313
kNj:dynCall_iiiiiiiiiiii
RRe:_InputField_set_caretPositionInternal_m3823580651
qZc:__ZN18UnityConnectClient16IsServiceEnabledEv
F$e:_Selectable_set_interactable_m3105888815
mLa:__ZL26KeywordSetToStringDontSortRKNSt3__26vectorIN4core12basic_stringIcNS1_20StringStorageDefaultIcEEEENS_9allocatorIS5_EEEERS5_
hoa:__ZN6prcoreL17RemapGenericFloatI16TexFormatRGFloat17TexFormatRGBAHalfEEvPKNS_9InnerInfoE
zu:__ZN12AudioManager22CreateFMODSoundFromWWWEP10IWWWStream15FMOD_SOUND_TYPE17FMOD_SOUND_FORMATjjbbP10SampleClip
JXb:__ZNK32RendererMaterialAnimationBinding15GenerateBindingERKN4core12basic_stringIcNS0_20StringStorageDefaultIcEEEEbRN11UnityEngine9Animation14GenericBindingE
c8d:_TargetException__ctor_m4172127019
Rah:_List_1_CheckCollection_m274117203_gshared
qmi:__ZL70EventSystem_t1003666588_CustomAttributesCacheGenerator_m_FirstSelectedP21CustomAttributesCache
fO:__ZN8Remapper23GetOrGenerateInstanceIDERK26SerializedObjectIdentifier
Dad:_ColorTween_get_startColor_m3792586410_AdjustorThunk
_a:invoke_iiiiiifffiiifii
RKg:__Z85RuntimeInvoker_Void_t1185182177_Int32_t2950945753_Int32_t2950945753_Int32_t2950945753PFvvEPK10MethodInfoPvPS4_
j9e:_X509Chain__ctor_m2878811474
KWd:_CustomInfo__ctor_m426096741
LPi:__ZL25UnresolvedVirtualCall_220P12Il2CppObjectfPK10MethodInfo
A3c:_EventSystem_ToString_m3779610692
OWa:__ZN6Sprite8TransferI24GenerateTypeTreeTransferEEvRT_
gac:__Z48Register_UnityEngine_Transform_SetAsFirstSiblingv
_Qa:__ZNK18DelayedCallManager22GetTypeVirtualInternalEv
RWa:__ZN7SubMesh8TransferI24GenerateTypeTreeTransferEEvRT_
N7i:_NativeTypeAttribute__ctor_m133676646
oph:_Collection_1_System_Collections_IList_Contains_m296643274_gshared
hNd:_DirectoryInfo__ctor_m126519516
B4d:_MethodBase_GetMethodFromIntPtr_m3014201362
X1b:__ZN9Transform23SetSiblingIndexInternalEib
_Jc:_tt_size_request
ADd:_Enumerator_MoveNext_m635366482
Mod:_X509Extension_Equals_m1222951829
mrj:__ZN6il2cpp8metadata15GenericMetadata15GetGenericClassEiPK17Il2CppGenericInst
udb:__Z18Transfer_BlittableI14SafeBinaryReadLb0E10Matrix4x4fEvRK29SerializationCommandArgumentsR31RuntimeSerializationCommandInfo
Ysb:__Z24GetFixedBehaviourManagerv
r5i:__ZN6il2cpp2vm10ThreadPool4WaitEP17Il2CppAsyncResultPPv
M1e:_Text_UpdateGeometry_m3634850647
eqd:_Activator_CreateInstance_m94526014
zIj:_vfprintf
kdc:__ZN10GUIManager12AddGUIScriptER8ListNodeI13MonoBehaviourE
PDd:_Stack_Clear_m2010200235
XCc:_cf2_getVStore
q5c:_PointerEventData_set_pointerPressRaycast_m1363193059
VCb:__ZN20DynamicPropertySheetD0Ev
Fae:_SafeHandle_Dispose_m4229010569
Bbc:__Z48Register_UnityEngine_CircleCollider2D_get_radiusv
xei:__ZL77RuntimePlatform_t4159857903_CustomAttributesCacheGenerator_OSXDashboardPlayerP21CustomAttributesCache
oY:__ZN35RegisterRuntimeInitializeAndCleanup8RegisterEPFvPvES2_iS0_
Cxi:_SubjectAltNameExtension_get_IPAddresses_m1641002124
x0d:_FieldBuilder_SetValue_m828035213
wIh:_Array_InternalArray__Insert_TisSingle_t1397266774_m3161726127_gshared
bBh:__ZN28GenericInterfaceFuncInvoker0IfE6InvokeEPK10MethodInfoP12Il2CppObject
kac:__Z21Object_CUSTOM_DestroyP12Il2CppObjectf
jca:__ZN8Material26ResetAllCachedMaterialDataEP6Shader
MRg:__Z63RuntimeInvoker_Void_t1185182177_RuntimeObject_Int16_t2552820387PFvvEPK10MethodInfoPvPS4_
zLc:_UNITY_TT_Get_MM_Var
dle:_ObjectManager_AddFixup_m2154325362
Hye:_Comparer_1__cctor_m3761458313_gshared
vrf:_DateTimeOffset_CompareTo_m1350732322_AdjustorThunk
ba:invoke_diddi
iTc:__ZNK2UI6Canvas13GetRenderModeEv
dsg:_PersistentCall__ctor_m1217622171
YQf:_Array_compare_TisCustomAttributeTypedArgument_t2723150157_m1384644047_gshared
JPe:_StrongName_get_TokenAlgorithm_m1794722022
Fcb:__Z18Transfer_BlittableI14SafeBinaryReadLb0EiEvRK29SerializationCommandArgumentsR31RuntimeSerializationCommandInfo
d4i:__ZN6il2cpp2vm13MetadataCache30GetPropertyDefinitionFromIndexEi
PJi:_SymmetricTransform_Transform_m1683494363
SZc:__ZN22BaseUnityConnectClient17InitializeSessionERKN4core12basic_stringIcNS0_20StringStorageDefaultIcEEEES6_N19CloudServiceHandler13InitModeFlagsE
UXg:__Z74RuntimeInvoker_RuntimeObject_Int32_t2950945753_RuntimeObject_RuntimeObjectPFvvEPK10MethodInfoPvPS4_
Lgh:_List_1_get_Item_m200663048_gshared
nTj:_emscripten_glDeleteBuffers__wrapper
A3b:__ZN13MonoBehaviour34StopCoroutineFromEnumeratorManagedE18ScriptingObjectPtr
NTi:_objectRotate_OnCollisionEnter2D_m3917945325
BFg:_Vector3__ctor_m1719387948_AdjustorThunk
U4a:__ZN30RuntimeInitializeOnLoadManager8TransferI18StreamedBinaryReadILb0EEEEvRT_
Hqf:_DateTimeOffset__ctor_m2084804982
OHc:_UNITY_tt_face_load_pclt
a3b:__ZL34GetComponentsImplementationRecurseILb1ELi0ELi2EEbR10GameObjectbRK17CompareParametersRK39GetComponentsImplementation_ReturnValue
awc:__ZN10ClipperLib7Clipper24InsertLocalMinimaIntoAELEx
Uta:__ZN20ComputeShaderVariantD2Ev
yug:_Material_GetTexture_m3545614349
DIg:__Z64RuntimeInvoker_RuntimeObject_Int32_t2950945753_Int16_t2552820387PFvvEPK10MethodInfoPvPS4_
ZTi:_playerBehavior_Update_m2157232042
l0f:_EqualityComparer_1__cctor_m4244842342_gshared
qCb:__ZNK6Camera18WorldToScreenPointERK8Vector3fPb
$Bg:_SendMouseEvents_DoSendMouseEvents_m2140870850
NBi:_PatternCompiler_EmitJump_m3915926156
Mqa:__Z18IsCompressedFormat14GraphicsFormat
Bgg:__Z33il2cpp_codegen_check_add_overflowxx
hN:__ZNSt3__227__insertion_sort_incompleteIRPFbRKN18AwakeFromLoadQueue4ItemES4_EPS2_EEbT0_S9_T_
Fei:__ZL73RuntimePlatform_t4159857903_CustomAttributesCacheGenerator_MetroPlayerARMP21CustomAttributesCache
AMd:_InvalidOperationException__ctor_m1685032583
c2i:__ZN14dense_hash_mapI10KeyWrapperIN6il2cpp5utils13dynamic_arrayIPK10Il2CppTypeLj4EEEEPFvvENS1_8metadata19Il2CppSignatureHashENS8_14EqualsComparerINSB_22Il2CppSignatureCompareEEENSt3__29allocatorINSG_4pairIKS8_SA_EEEEE15set_deleted_keyERSJ_
hhg:_TimeSpan_op_Subtraction_m3592306516
j2f:_EqualityComparer_1_System_Collections_IEqualityComparer_GetHashCode_m1517903420_gshared
oUa:__ZN26EnlightenSystemInformation8TransferI14SafeBinaryReadEEvRT_
Z3a:__ZN24GenerateTypeTreeTransfer8TransferINSt3__26vectorIN15ResourceManager10DependencyE13stl_allocatorIS4_L18MemLabelIdentifier52ELi16EEEEEEvRT_PKc17TransferMetaFlags
oVi:_CanvasRenderer_SplitUIVertexStreams_m2753637362
IZg:__Z119RuntimeInvoker_Void_t1185182177_RuntimeObject_Single_t1397266774_Single_t1397266774_SByte_t1669577662_Int32_t2950945753PFvvEPK10MethodInfoPvPS4_
g$c:__ZN11UnityEngine15PlatformWrapper20SetPlayerPrefsUInt64ERKN4core12basic_stringIcNS1_20StringStorageDefaultIcEEEEy
c$a:__ZN12MeshRendererD0Ev
OD:__ZN12AudioManager35GetCurrentSpatializerDefinitionNameEv
Eh:_utime
eEi:_BalancingGroup_Compile_m2575117193
ngj:__ZNSt3__26vectorIN6il2cpp2vm17TypeNameParseInfoENS_9allocatorIS3_EEE8allocateEj
IAi:_Mark_get_Index_m3048692661_AdjustorThunk
xn:FUNCTION_TABLE_viiiiif
lye:_DefaultComparer_Compare_m3931992727_gshared
Cn:FUNCTION_TABLE_viiiiii
hxe:_InternalEnumerator_1_System_Collections_IEnumerator_get_Current_m1847780851_AdjustorThunk
FIi:_GUILayoutUtility_get_spaceStyle_m3392862907
oKd:_Int32_System_IConvertible_ToType_m3009233912_AdjustorThunk
Iqf:_DateTimeOffset__ctor_m74032857
aig:_Type_type_is_assignable_from_m76737532
qJb:__ZN15LightmapSTCacheC2ER13BatchRendererR15RenderLoopStats
M4a:__ZNSt3__26vectorIN4core12basic_stringIcNS1_20StringStorageDefaultIcEEEE13stl_allocatorIS5_L18MemLabelIdentifier13ELi16EEE8__appendEj
WI:__ZN19CloudServiceHandler20StartEventDispatcherERKN11UnityEngine15CloudWebService18CloudServiceConfigERNS1_23WebRequestRestHeaderMapE
Nyh:_ReadOnlyCollection_1_System_Collections_Generic_ICollectionU3CTU3E_Add_m2369252587_gshared
Zqc:__ZN24b2ChainAndCapsuleContact8EvaluateEP10b2ManifoldRK11b2TransformS4_
D9b:__Z43Transform_CUSTOM_INTERNAL_get_localRotationP12Il2CppObjectP11Quaternionf
Dzf:_CultureInfo_get_Parent_m672689885
sDj:__ZN6il2cpp6icalls8mscorlib6System10Reflection4Emit13ModuleBuilder13RegisterTokenEP29Il2CppReflectionModuleBuilderP12Il2CppObjecti
E7e:_X509Certificate2_GetValueAsString_m1348462142
tRj:_glGetShaderInfoLog__wrapper
Qke:_ObjectReader_ReadObjectGraph_m340866276
hi:_emscripten_glGetTexParameteriv
oXc:__ZN11UnityEngine7Connect15DeviceInfoEvent7GFXInfoD2Ev
QSj:_glGenTextures__wrapper
b7:__ZN9ShaderLab20SerializedSubProgram14ConstantBufferaSERKS1_
WTb:__Z13RegisterClassI4MeshEvv
Mhi:__ZL74SharedBetweenAnimatorsAttribute_t2857104338_CustomAttributesCacheGeneratorP21CustomAttributesCache
UI:__ZN11UnityEngine15CloudWebService19SessionEventManager4StopEv
cw:__ZN12AudioManager8TransferI19StreamedBinaryWriteILb0EEEEvRT_
g0e:_Slider_UpdateCachedReferences_m3259451627
EAi:_LinkStack_Pop_m4048583474
Bob:__ZN18StreamedBinaryReadILb1EE21TransferSTLStyleArrayI13dynamic_arrayI11ColorRGBA32Lj4EEEEvRT_17TransferMetaFlags
_jj:__ZN15dense_hashtableINSt3__24pairIK10KeyWrapperINS1_IP11Il2CppClassjEEES4_EES6_N6il2cpp8metadata14ArrayClassHashEN14dense_hash_mapIS6_S4_SB_NS6_14EqualsComparerINSA_17ArrayClassCompareEEENS0_9allocatorIS8_EEE9SelectKeyESF_SH_E6insertERKS8_
cdd:_U3CShowU3Ec__AnonStorey1_U3CU3Em__0_m2340880019
VLf:_ASCIIEncoding_GetString_m58523364
Cxc:__ZN16CircleCollider2D10SmartResetEv
qLj:__ZNSt3__212basic_stringIcNS_11char_traitsIcEENS_9allocatorIcEEE21__grow_by_and_replaceEjjjjjjPKc
Rwi:_TlsStream_Flush_m3793197834
hab:__ZN22LocalFileSystemHandler9MakeLocalER13FileEntryDatab
Pyj:__ZN6il2cpp2vm8Profiler10AllocationEP12Il2CppObjectP11Il2CppClass
Ipi:__ZL61Graphic_t1660335611_CustomAttributesCacheGenerator_m_MaterialP21CustomAttributesCache
WPc:__ZNSt3__23mapIN20TextRenderingPrivate7FontRefENS1_6OSFontENS_4lessIS2_EENS_9allocatorINS_4pairIKS2_S3_EEEEEixERS8_
q4:__Z13FormatOrderedPKcz
f7i:__ZN6il2cpp2vm8basepathEPKc
o8e:_X509Chain_GetAuthorityKeyIdentifier_m614536199
uNc:__ZN14SafeBinaryRead21TransferSTLStyleArrayI10vector_mapINSt3__24pairIttEEfN20TextRenderingPrivate8FontImpl14KerningCompareENS2_9allocatorINS3_IS4_fEEEEEEEvRT_17TransferMetaFlags
Jjf:_TlsServerFinished__ctor_m1445633918
VFa:__ZN13dynamic_arrayI17SortingLayerEntryLj4EE6insertEPS0_jRKS0_
Gei:__ZL68RuntimePlatform_t4159857903_CustomAttributesCacheGenerator_WP8PlayerP21CustomAttributesCache
bJb:__ZN25DeferredRenderLoopScratchD0Ev
V4c:_PhysicsRaycaster_Raycast_m776323695
VEg:_UnityException__ctor_m1456865679
l6:__ZN15dense_hashtableINSt3__24pairIKiN4core17string_with_labelILi1EEEEEi18SInt32HashFunctionN14dense_hash_mapIiS5_S7_NS0_8equal_toIiEE13stl_allocatorIS6_L18MemLabelIdentifier1ELi16EEE9SelectKeyESA_SD_E9copy_fromERKSG_j
pZd:_CustomAttributeNamedArgument_GetHashCode_m2317130892
u3a:__ZN15ResourceManagerD0Ev
yje:_WellKnownClientTypeEntry_ToString_m1119458503
xU:__ZN22CreateGpuProgramOutputD2Ev
Ofh:_List_1_get_Item_m1378751541_gshared
yDf:_SHA1CryptoServiceProvider_Finalize_m1793183797
Q3f:_HashSet_1_System_Collections_Generic_ICollectionU3CTU3E_CopyTo_m408073502_gshared
$ff:_EncryptedPrivateKeyInfo_get_EncryptedData_m491452551
s9a:__ZN12HandlerChain4OpenER13FileEntryData14FilePermission16FileAutoBehavior
A3g:__Z72RuntimeInvoker_Void_t1185182177_Int32_t2950945753_RaycastHit_t1056001966PFvvEPK10MethodInfoPvPS4_
zaj:__ZN15dense_hashtableINSt3__24pairIK10KeyWrapperINS1_IPK10MethodInfoP11Il2CppClassEEEjEES9_17ReflectionMapHashIS8_EN14dense_hash_mapIS9_jSD_NS9_14EqualsComparerINS0_8equal_toIS8_EEEENS0_9allocatorISB_EEE9SelectKeyESI_SK_E6insertERKSB_
Ddg:_UTF8Encoding_GetCharCount_m2272165989
Zrd:_Array_SetValue_m394135409
cR:__ZN14FileCacherReadD2Ev
t6a:__ZN13RendererScene23UpdatePreviousFrameDataEii
SKf:_String_Remove_m562998446
b5b:__Z50Register_UnityEngine_CullingGroup_FinalizerFailurev
lGf:_SecurityPermission_IsSubsetOf_m545000671
iLj:__ZNKSt3__221__basic_string_commonILb1EE20__throw_out_of_rangeEv
Dqg:_Cursor_get_lockState_m2828192107
$6i:_UpdatedEventHandler_Invoke_m1320302085
Rt:__ZN9AudioClip23VirtualRedirectTransferER18StreamedBinaryReadILb0EE
kgh:_List_1_AddEnumerable_m2724989594_gshared
LYg:__Z82RuntimeInvoker_Vector2_t2156229523_Vector2_t2156229523_RuntimeObject_RuntimeObjectPFvvEPK10MethodInfoPvPS4_
uva:__ZN18GlslGpuProgramGLESC2ERK13dynamic_arrayIhLj1EER22CreateGpuProgramOutput
lbc:__Z70Register_UnityEngine_Playables_PlayableHandle_GetPlayableType_Injectedv
Ty:__ZN5audio5mixer22UpdateAudioMixerMemoryERKNS0_18AudioMixerConstantERNS0_16AudioMixerMemoryEfPN4FMOD6SystemEf
Jj:_glCopyTexSubImage2D
_Eg:_UnitySynchronizationContext_ExecuteTasks_m1310741010
eCf:_RIPEMD160Managed_CompressFinal_m497690796
AOb:__ZN18ScreenManagerWebGL13SetShowCursorEb
wyb:__ZN13DrawImmediateC2ER9GfxDevice
KIj:_frexp
uUc:__ZN2UI13CanvasManager14GetRenderOrderEPKNS_6CanvasE
qdb:__Z18Transfer_BlittableI14SafeBinaryReadLb0E5RectTIfEEvRK29SerializationCommandArgumentsR31RuntimeSerializationCommandInfo
LLd:_NumberFormatter_NumberToString_m2562899600
gej:__ZNK15dense_hashtableINSt3__24pairIK10KeyWrapperIPK22Il2CppGenericParameterEPK24MonoGenericParameterInfoEES6_N6il2cpp5utils11PointerHashIS4_EEN14dense_hash_mapIS6_SA_SF_NS6_14EqualsComparerINS0_8equal_toIS5_EEEENS0_9allocatorISB_EEE9SelectKeyESK_SM_E5beginEv
zGc:_otv_u_C_x_Ox
jia:__ZN14GfxContextGLES14GetFramebufferEv
ETj:_emscripten_glGenVertexArrays__wrapper
rmg:_Version_Clone_m1749041863
Uma:__ZN6prcoreL21CreateRemapAnyBlitterE13TextureFormatS0_
xgf:_RSAManaged_ExportParameters_m1754454264
Y0b:__ZN17AnimationCurveTplIfE16StripInvalidKeysEv
_ud:_Boolean_Equals_m535526264_AdjustorThunk
pTc:__ZNK2UI6Canvas17GetSortingLayerIDEv
Wsc:__ZN14Raycast2DQuery8RunQueryEb
OTb:__Z13RegisterClassI17GlobalGameManagerEvv
pW:__ZN8Renderer24SetupNewRendererForSceneEv
Xhg:_Type_internal_from_name_m1721940673
tge:_RemotingServices_GetMethodBaseFromName_m3194612939
Sjc:__Z35Transfer_Blittable_FixedBufferFieldI8JSONReadtEvRK29SerializationCommandArgumentsR31RuntimeSerializationCommandInfo
lWa:__ZNK6Sprite22GetTypeVirtualInternalEv
A1c:__ZN13RuntimeStaticINSt3__26vectorI23UnityVRDeviceDefinition13stl_allocatorIS2_L18MemLabelIdentifier90ELi16EEEELb0EE13StaticDestroyEPv
wn:FUNCTION_TABLE_iiiiiiiiiiiiii
qHc:_UNITY_tt_get_cmap_info
Snf:_SslClientStream_RaiseServerCertificateValidation_m3477149273
ckb:__Z29Transfer_Blittable_ArrayFieldI24GenerateTypeTreeTransfer5RectTIiEEvRT_R9ArrayInfoRK23StaticTransferFieldInfo
TLa:__ZN16ReflectionProbes8ScheduleEN18ReflectionProbeJob7JobTypeEP15ReflectionProbei
Njf:_ClientSessionInfo_KeepAlive_m1020179566
zTc:__ZN13dynamic_arrayIN2UI13UIInstructionELj4EE12emplace_backEv
rAa:__Z18IsDirectoryCreatedRKN4core12basic_stringIcNS_20StringStorageDefaultIcEEEE
_Ff:_String_FormatHelper_m3913915042
Buc:__ZN18PlatformEffector2D19RecalculateContactsEv
oSc:__ZN2UI13CanvasManagerD2Ev
WYd:_ConstructorInfo__cctor_m1016079270
n$i:__ZN15dense_hashtableINSt3__24pairIK10KeyWrapperIPKcEP11Il2CppClassEES5_N6il2cpp5utils11StringUtils12StringHasherIS4_EEN14dense_hash_mapIS5_S8_SE_NS5_14EqualsComparerINSB_13VmStringUtils21CaseSensitiveComparerEEENS0_9allocatorIS9_EEE9SelectKeyESJ_SL_E15set_deleted_keyERKS9_
Spd:_AttrListImpl_get_Names_m977594476
xPc:_UNITY_FT_GlyphLoader_Done
W7d:_Pointer_Box_m389276611
otc:__ZN19OverlapPointQuery2D14InitializeAABBER6b2AABB
rvf:_StackTrace_get_FrameCount_m344690939
bTd:_UnexceptionalStreamWriter_Write_m363195622
UPc:__ZN20TextRenderingPrivate25ReadFontFileAndAddToCacheERKN4core12basic_stringIcNS0_20StringStorageDefaultIcEEEE
rIc:_tt_cmap14_char_var_index
lXi:_Physics2D_Raycast_m1700114981
ESe:_Selectable_OnPointerDown_m1086067264
CMc:_psh_globals_new
wcd:_Dropdown_SetupTemplate_m628218778
Wdg:_Thread_GetCompressedStack_m2923422412
Qzd:_SynchronizedArrayListWrapper_CopyTo_m4207791406
D6e:_X509BasicConstraintsExtension_ToString_m1809935297
Ica:__ZN9GfxDevice20SetMaxBufferedFramesEi
IHh:_TweenRunner_1_StartTween_m1055628540_gshared
Hmc:__ZN10Collider2D19WakeAllBodyContactsEv
hNh:_GameObject_GetComponents_TisRuntimeObject_m1246177135_gshared
ANj:dynCall_vdd
MTd:_MethodAccessException__ctor_m3542088436
FQb:__Z23ConvertIntegerToTypePtrIsEbPvR14SafeBinaryRead
npc:__ZN12b2MouseJoint11ShiftOriginERK6b2Vec2
A$f:_EqualityComparer_1_System_Collections_IEqualityComparer_GetHashCode_m2230215241_gshared
Psi:__ZL60ContentSizeFitter_t3850442145_CustomAttributesCacheGeneratorP21CustomAttributesCache
YBd:_Hashtable_Contains_m2145146412
T8h:__ZL64UnmarshalledAttribute_t1517743549_CustomAttributesCacheGeneratorP21CustomAttributesCache
Y$b:__ZN4Mesh24UpdateSubMeshVertexRangeEi
AId:_Int32_FindCurrency_m3541026887
scf:_Interval_CompareTo_m3282557545
BUj:_pthread_cond_wait__wrapper
oIb:__ZNK14RenderSettings19GetFlatAmbientColorEv
uma:__ZN6prcoreL10inner_flipILj4EEEvPhS1_j
c2a:__ZN18StreamedBinaryReadILb0EE21TransferSTLStyleArrayI10vector_mapIPKN5Unity4TypeE7Hash128NSt3__24lessIS6_EENS8_9allocatorINS8_4pairIS6_S7_EEEEEEEvRT_17TransferMetaFlags
nnd:_RijndaelManagedTransform_TransformBlock_m1610137419
bac:__Z40Register_UnityEngine_Transform_SetParentv
aYa:__ZN14Texture2DArray17UploadToGfxDeviceEv
Lx:__Z14FMODMemoryFreePvjPKc
Yrg:_NetFxCoreExtensions_GetMethodInfo_m444570327
tGb:__Z14SetSHConstantsR13BatchRendererR17ShaderPassContextRK20SphericalHarmonicsL2b
zwd:_Char_System_IConvertible_ToDecimal_m3534906463
CDc:_cf2_glyphpath_moveTo
Ruc:__ZNK13BoxCollider2D22GetTypeVirtualInternalEv
PCg:_StackTraceUtility_SetProjectFolder_m830524047
akf:_ClientSessionInfo_Finalize_m2165787049
fdc:__ZN5IMGUI14GUIWindowStateD2Ev
Zif:_ClientContext_Clear_m1774063253
i0b:__ZN4Mesh17SetIndicesComplexEPKvjj16GfxPrimitiveTypeij
Zpf:_DateTime_AddSeconds_m332574389_AdjustorThunk
IEg:_RequestAtlasCallback_Invoke_m378128467
Hvd:_Byte_System_IConvertible_ToSByte_m1869482168
hOg:__Z99RuntimeInvoker_RuntimeObject_RuntimeObject_RuntimeObject_StreamingContext_t3711869237_RuntimeObjectPFvvEPK10MethodInfoPvPS4_
gtg:_GameObject_Internal_AddComponentWithType_m3797731663
pm:_emscripten_glIsTexture
Wk:_emscripten_glHint
hKi:_Check_SourceAndPredicate_m2332465641
Bzc:__ZZN10Collider2D15InitializeClassEvEN30FunctorImpl_98kDidAddComponent4CallEPviR11MessageData
MXg:__Z67RuntimeInvoker_Boolean_t97287965_TextGenerationSettings_t1351628751PFvvEPK10MethodInfoPvPS4_
lLc:_ft_var_readpackeddeltas
pHf:_String_op_Inequality_m215368492
gnb:__Z35Transfer_Blittable_FixedBufferFieldI18StreamedBinaryReadILb1EEtEvRK29SerializationCommandArgumentsR31RuntimeSerializationCommandInfo
dkg:_UInt32_System_IConvertible_ToInt64_m2261037378
sm:_SDL_UpperBlit
PLa:__Z35GetTextureDecodeValuesWithIntensity16TextureUsageMode17TextureColorSpace10ColorSpacef
WNf:_Array_InternalArray__ICollection_Remove_TisChar_t3634460470_m4143749387_gshared
Kyb:__ZN15dense_hashtableINSt3__24pairIK9TextureIDiEES2_14GfxGenericHashIS2_EN14GfxDoubleCacheIS2_iS6_NS0_8equal_toIS2_EEN31GfxDoubleCacheConcurrencyPolicy11LocklessGetE42GfxDoubleCacheDefaultEmptyDeletedGeneratorIS2_EE9SelectKeyES9_13stl_allocatorIS4_L18MemLabelIdentifier24ELi16EEE14squash_deletedEv
Tej:__ZN15dense_hashtableINSt3__24pairIK10KeyWrapperINS1_IPK9EventInfoP11Il2CppClassEEEjEES9_17ReflectionMapHashIS8_EN14dense_hash_mapIS9_jSD_NS9_14EqualsComparerINS0_8equal_toIS8_EEEENS0_9allocatorISB_EEE9SelectKeyESI_SK_E15set_deleted_keyERKSB_
xTi:_enemyBehavior_Move_m3992264582
ipc:__ZNK12b2MouseJoint10GetAnchorAEv
zag:_Encoding_GetBytes_m3823106599
rpf:_GregorianCalendar__ctor_m979779718
rnf:_SslClientStream__ctor_m2402546929
etb:__ZN14SafeBinaryRead20OverrideRootTypeNameEPKc
L2e:_DictionaryNodeEnumerator_get_Entry_m2309234501
gR:__ZN14FileCacherRead16UnlockCacheBlockEj
tZ:__ZN10InstancingL21OnGraphicsCapsChangedEv
Wfg:_WaitHandle_get_Handle_m3260446580
$6f:_Enumerator_VerifyState_m1745883925_AdjustorThunk
Oc:_emscripten_glUniform1f
VCd:_SortedList__ctor_m1261191695
dTb:__ZN13dynamic_arrayIS_I8Vector2fLj4EELj4EE18resize_initializedEjRKS1_12ResizePolicy
aQc:__Z20ParseImageParametersR11UTF16StringRiRN20TextRenderingPrivate16TextFormatChangeE
Esi:__ZL55CanvasScaler_t2767979955_CustomAttributesCacheGeneratorP21CustomAttributesCache
Tc:_emscripten_glUniform1i
Aib:__Z18Transfer_BlittableI24GenerateTypeTreeTransferLb1EN4math12int3_storageEEvRK29SerializationCommandArgumentsR31RuntimeSerializationCommandInfo
JYe:__Z14bankers_roundff
f8:__ZN9ShaderLab16SerializedTagMapaSERKS0_
lG:__ZN11UnityEngine15CloudWebService16SessionContainer20RestoreSessionHeaderERKN4core12basic_stringIcNS2_20StringStorageDefaultIcEEEES8_RNS0_13SessionHeaderE
iFj:__ZN6il2cpp2os12Cryptography23GetCryptographyProviderEv
ws:__ZN11UnityEngine9Animation27CreateAvatarBindingConstantER9TransformPKN7mecanim9animation14AvatarConstantERNS3_6memory9AllocatorE
xNg:__Z151RuntimeInvoker_RuntimeObject_Int32_t2950945753_RuntimeObject_ObjectU5BU5DU26_t712384779_RuntimeObject_RuntimeObject_RuntimeObject_ObjectU26_t2146539884PFvvEPK10MethodInfoPvPS4_
g9c:_CanvasUpdateRegistry__ctor_m2005397069
uP:__ZN14MessageHandler3GetEv
q5d:_MonoMethodInfo_GetCallingConvention_m3156036493
Fka:__ZN10DynamicVBO9DrawChunkERK21DynamicVBOChunkHandle17ShaderChannelMaskS3_P17VertexDeclarationPKNS_10DrawParamsEi
ZUe:_LayoutGroup_SetLayoutInputForAxis_m2458344630
fd:_emscripten_glAttachShader
Hca:__ZN9GfxDevice13SetActiveTierE12GraphicsTier
Ygd:_Image__cctor_m1927508576
x8:__ZNSt3__26vectorIN4core12basic_stringIcNS1_20StringStorageDefaultIcEEEENS_9allocatorIS5_EEE6assignIPS5_EENS_9enable_ifIXaasr21__is_forward_iteratorIT_EE5valuesr16is_constructibleIS5_NS_15iterator_traitsISC_E9referenceEEE5valueEvE4typeESC_SC_
fFj:__ZN6il2cpp6icalls8mscorlib6System21CurrentSystemTimeZone15GetTimeZoneDataEiPP11Il2CppArrayS6_
Zcb:__Z18Transfer_BlittableI14SafeBinaryReadLb0E11QuaternionfEvRK29SerializationCommandArgumentsR31RuntimeSerializationCommandInfo
Ouc:__ZN13BoxCollider2D16CheckConsistencyEv
mqb:__Z18Transfer_BlittableI18StreamedBinaryReadILb0EELb1E12PropertyNameEvRK29SerializationCommandArgumentsR31RuntimeSerializationCommandInfo
MK:_tlsf_walk_heap
mNg:__Z49RuntimeInvoker_Void_t1185182177_OpCode_t123070264PFvvEPK10MethodInfoPvPS4_
$Gd:_Convert_ToUInt32_m3592050311
mb:invoke_vif
YMh:_Component_GetComponents_TisRuntimeObject_m2416546752_gshared
nb:invoke_vid
ALj:__ZNSt3__212basic_stringIcNS_11char_traitsIcEENS_9allocatorIcEEE6insertEjPKc
ob:invoke_vii
RBb:__ZNK12ImageFilters8DoRenderER17ShaderPassContextP13RenderTextureS3_RKNSt3__26vectorI11ImageFilterNS4_9allocatorIS6_EEEE
bza:__ZN12TLSAllocatorI14StackAllocatorE16ThreadInitializeEP13BaseAllocator
MOg:__Z82RuntimeInvoker_Boolean_t97287965_SByte_t1669577662_RuntimeObject_SByte_t1669577662PFvvEPK10MethodInfoPvPS4_
gda:__ZN9GfxDevice32UpdateStereoViewProjectionMatrixE21MonoOrStereoscopicEye
jVc:__Z41CanvasRenderer_CUSTOM_DisableRectClippingP12Il2CppObject
XUd:_MonoType_GetConstructorImpl_m441167626
CTi:_equiationGravity_OnCollisionEnter2D_m83784401
Ebd:_DefaultControls_CreateRawImage_m4219873755
Vkh:_Collection_1_IsFixedSize_m3709118201_gshared
nDa:__ZN25SingleBlockMemoryFileDataD0Ev
iza:__ZNSt3__26vectorI14ConstantStringNS_9allocatorIS1_EEE6assignINS_11__wrap_iterIPS1_EEEENS_9enable_ifIXaasr21__is_forward_iteratorIT_EE5valuesr16is_constructibleIS1_NS_15iterator_traitsISA_E9referenceEEE5valueEvE4typeESA_SA_
gG:__ZN11UnityEngine15CloudWebService16SessionContainer21ConvertFromFolderTimeERKN4core12basic_stringIcNS2_20StringStorageDefaultIcEEEEPjPt
Gjd:_CodeAccessPermission_Equals_m1555575992
Keb:__ZNSt3__26vectorI8GUIStyle13stl_allocatorIS1_L18MemLabelIdentifier1ELi16EEE7reserveEj
dmj:__ZN6il2cpp6icalls8mscorlib6System9Threading6Thread27GetSerializedCurrentCultureEP12Il2CppThread
xkf:_Context_set_ReadSequenceNumber_m2154909392
ind:_RijndaelTransform_SubByte_m3037693507
YRb:__Z31CalculateHierarchyTransformType23TransformAccessReadOnly
jUb:__Z13RegisterClassI11TimeManagerEvv
Cx:__ZN4FMOD8ChannelI11setPositionEjj
Ptg:_Input_INTERNAL_CALL_GetTouch_m3481893561
aBj:_GC_set_fl_marks
z4a:__ZNSt3__26vectorIN30RuntimeInitializeOnLoadManager15ClassMethodInfoE13stl_allocatorIS2_L18MemLabelIdentifier13ELi16EEE7reserveEj
jda:__ZN9GfxDevice17SetStereoViewportE15StereoscopicEyeRK5RectTIiE
N3:__ZN17BaseObjectManager13StaticDestroyEPv
$Ui:_CanvasRenderer_INTERNAL_CALL_GetColor_m597074473
Tye:_Comparer_1__cctor_m3891417387_gshared
odg:_UTF7Decoder_GetChars_m3413809261
O$d:_EnumBuilder_GetEvent_m4074915332
Dh:_sysconf
eEg:_Vector3_get_forward_m3100859705
uw:__ZN4FMOD6Reverb13setPropertiesEPK22FMOD_REVERB_PROPERTIES
CDb:__ZN9DepthPass13PrepareSubsetEjRK10RenderNodeifRK17ShaderReplaceData
ZJf:_String_IndexOf_m3406607758
k7:__ZN9ShaderLab20SerializedSubProgram16TextureParameter8TransferI14SafeBinaryReadEEvRT_
p0b:__Z35SetMeshComponentFromArrayFromScriptR4Mesh30InternalScriptingShaderChannel34InternalScriptingVertexChannelTypei17ScriptingArrayPtri
q1b:__Z18ExtractTagThrowingR11ICallString
yTf:_Array_InternalArray__ICollection_Add_TisCustomAttributeNamedArgument_t287865710_m4157175270_gshared
pq:__ZN4core20StringStorageDefaultIcE6assignEPKcj
ilg:_UInt64_System_IConvertible_ToUInt64_m2135047981_AdjustorThunk
zdf:_BigInteger_ModPow_m3776562770
ysj:__ZN15dense_hashtableINSt3__24pairIK10KeyWrapperIP12Il2CppObjectEN6il2cpp2gc9CachedCCWEEES5_NS7_5utils11PointerHashIS3_EEN14dense_hash_mapIS5_S9_SD_NS5_14EqualsComparerINS0_8equal_toIS4_EEEENS0_9allocatorISA_EEE9SelectKeyESI_SK_E3endEv
ymf:_RecordProtocol_ProcessChangeCipherSpec_m15839975
byd:_ArrayList_IndexOf_m305368842
DMb:__ZN6Camera6SetFarEf
Qje:_FormatterConverter_ToBoolean_m1680758923
Kna:__ZN6prcoreL12RemapGenericI17TexFormatABGR888817TexFormatARGB8888EEvPKNS_9InnerInfoE
jEa:__ZN11GameManager17MainThreadCleanupEv
csh:_ReadOnlyCollection_1__ctor_m1345363288_gshared
RWc:__Z50Register_UnityEngine_UISystemProfilerApi_EndSamplev
Jb:invoke_vffff
iXi:_Physics2D_Raycast_m2082490717
Zuc:__ZN10Collider2D12AddToManagerEv
nhd:_SerializationCallbacks_GetSerializationCallbacks_m2939476649
EBd:_Hashtable__cctor_m4112166779
WJc:_UNITY_tt_slot_init
Lzb:__ZZ23InitPlayerLoopCallbacksvEN41PostLateUpdateUpdateResolutionRegistrator7ForwardEv
Zrb:__Z25scripting_array_class_get17ScriptingClassPtrj
Uhc:__ZL22Transfer_ManagedObjectI9JSONWriteLb1EEvRK29SerializationCommandArgumentsR31RuntimeSerializationCommandInfo
zt:__ZNK10SampleClip22GetTypeVirtualInternalEv
sea:__ZN9GfxDevice20DestroyRenderSurfaceER12ObjectHandleI17RenderSurface_TagP17RenderSurfaceBaseE
JDd:_Stack__ctor_m2602729586
HSb:__ZL24PrepareSpriteRenderNodesILb1EEvR35RenderNodeQueuePrepareThreadContext
zxa:__ZN9GfxDevice22UpdateComputeResourcesEjPK9TextureIDPK16TextureDimensionPKijPKjjPK15ComputeBufferIDS7_PK20ComputeBufferCounterjSC_S2_S5_S9_SF_
XR:__ZN12_GLOBAL__N_15qAsinEff
jpe:_InternalEnumerator_1_System_Collections_IEnumerator_get_Current_m2629988057_AdjustorThunk
cza:__ZN12TLSAllocatorI14StackAllocatorE13ThreadCleanupEv
XXf:_Dictionary_2_get_Item_m2136868513_gshared
Jyj:__ZThn4_N6il2cpp2vm13ComObjectBase16MarshalInterfaceEP13Il2CppIStreamRK10Il2CppGuidPvjS7_j
vFd:_Convert_ToDouble_m996590115
Oub:__Z27FindActiveTransformWithPathPKc
mwh:_ReadOnlyCollection_1_System_Collections_IList_Remove_m4169110229_gshared
Jjg:_UInt16_ToString_m3020002356
vVe:_LayoutRebuilder_LayoutComplete_m68578143
rIi:_GUIStyle_get_fixedWidth_m2576616348
KDf:_SHA1Internal_Initialize_m499810128
rM:__ZNK6Camera7GetNearEv
E0d:_GenericTypeParameterBuilder_GetConstructorImpl_m863833310
Fqa:__ZN7ApiGLES11UnmapBufferEjN2gl12BufferTargetE
Xyj:__ZN6il2cpp5utilsL24Utf32CharToSurrogatePairEjRA2_Ds
VSa:__Z25GetNextAllowedTextureSizeib13TextureFormat
Gub:__ZN20LocalFileSystemWebGL4CopyER13FileEntryDataS1_
LI:__ZN19CloudServiceHandler6RetainEv
Ush:_ReadOnlyCollection_1_System_Collections_IList_IndexOf_m198887188_gshared
Qdc:__Z36Event_CUSTOM_Internal_SetNativeEventPv
Gcg:_UTF32Encoding_GetBytes_m3180303867
FT:__ZN12BaseRenderer20FlattenToRenderQueueER15RenderNodeQueueRK20DeprecatedSourceData
Auh:_ReadOnlyCollection_1_System_Collections_IList_Clear_m2007013334_gshared
q7a:__Z34scripting_liveness_calculation_endPv
suj:__ZN6il2cpp2os6ThreadC2Ev
Krf:_DateTimeOffset_get_UtcDateTime_m1021718282_AdjustorThunk
h2e:_HybridDictionary_get_Count_m1166314536
Mwi:_TlsStream_Write_m1412844442
ujc:__Z18Transfer_BlittableI8JSONReadLb0E8Vector3fEvRK29SerializationCommandArgumentsR31RuntimeSerializationCommandInfo
vkj:__ZN6il2cpp2vm6Thread6DetachEP12Il2CppThread
nxi:_GeneralNames_get_DNSNames_m3788548987
eBc:__GLOBAL__sub_I_runtime_dynamics_2_cpp
Cs:__ZN7mecanim8skeleton30SkeletonBuildReverseIndexArrayEPiPKiPKNS0_8SkeletonES6_
Vbc:__Z19GetGUIBlendMaterialv
CTd:_Math_Round_m3018379666
hvj:__ZN6il2cpp2os10ThreadImpl5SleepEjb
Wsh:_ReadOnlyCollection_1_System_Collections_IList_Remove_m1965826685_gshared
Muf:_Delegate_CreateDelegate_m1051651521
cPf:_PlayableHandle_IsPlayableOfType_TisRuntimeObject_m503495943_AdjustorThunk
eTj:_glBindSampler__wrapper
aEa:__ZNSt3__26vectorIN20ArchiveStorageHeader12StorageBlockE13stl_allocatorIS2_L18MemLabelIdentifier55ELi16EEE8__appendEj
Mf:_emscripten_set_mouseup_callback
Zug:_Mathf_Clamp_m3350697880
ZOg:__Z165RuntimeInvoker_Void_t1185182177_UInt32U26_t3735378166_Int32_t2950945753_UInt32U26_t3735378166_Int32_t2950945753_Int32_t2950945753_Int32_t2950945753_Int32_t2950945753PFvvEPK10MethodInfoPvPS4_
T8f:_List_1_System_Collections_IList_Remove_m3140917266_gshared
wCi:_CompositeExpression__ctor_m2434860303
F9e:_X509ChainElementCollection_System_Collections_IEnumerable_GetEnumerator_m3829089536
EOb:__ZNK18ScreenManagerWebGL8GetWidthEv
wt:__ZN10SampleClipD2Ev
ICh:_Predicate_1_Invoke_m2389850270_gshared
L6a:__Z13GetGISettingsv
vI:__ZN11UnityEngine15CloudWebService20WebRequestRestClientC2Ev
nFc:_cff_cmap_unicode_init
gNf:_Array_InternalArray__ICollection_Contains_TisRuntimeObject_m4067783231_gshared
wjh:_Collection_1_IsValidItem_m3080586124_gshared
I9c:_ClipperRegistry_Register_m2407166513
$Jj:_readlink
ucj:__ZN15dense_hashtableINSt3__24pairIK10KeyWrapperINS1_IPK9EventInfoP11Il2CppClassEEEjEES9_17ReflectionMapHashIS8_EN14dense_hash_mapIS9_jSD_NS9_14EqualsComparerINS0_8equal_toIS8_EEEENS0_9allocatorISB_EEE9SelectKeyESI_SK_E12resize_deltaEjj
l5d:_MonoCMethod_Invoke_m2700167622
ACd:_KeyMarker__cctor_m2590194914
hFj:__ZN6il2cpp8metadata14Il2CppTypeHash4HashEPK10Il2CppType
LAe:_Enumerator_Reset_m627751027_AdjustorThunk
j0a:__ZNK6Sprite9GetBoundsE8Vector2fbb
zHa:__ZNK19RenderEventsContext21CleanupCommandBuffersEv
dTi:_TextGenerator_PopulateWithErrors_m1222498386
mia:__ZN11ContextGLES6CreateEi
cah:_List_1_set_Capacity_m3382070520_gshared
VTe:_U3CMouseDragOutsideRectU3Ec__Iterator1_Dispose_m267465418
Ktf:_Decimal_CompareTo_m3502307243_AdjustorThunk
arb:__Z19TransferField_ArrayI18StreamedBinaryReadILb0EE27Converter_SimpleNativeClassI17AnimationCurveTplIfEEEvRK23StaticTransferFieldInfoR31RuntimeSerializationCommandInfoRT0_
Fya:__ZN14StackAllocator16FrameMaintenanceEb
Czc:__ZZN10Collider2D15InitializeClassEvEN33FunctorImpl_99kDidRemoveComponent4CallEPviR11MessageData
IYe:_Scrollbar_get_value_m760470106
wM:__ZNK10GameObject20QueryComponentByTypeEPKN5Unity4TypeE
Zsf:_Decimal_System_IConvertible_ToInt32_m1488426794_AdjustorThunk
cUd:_MonoCustomAttrs_IsUserCattrProvider_m2878058089
oqi:__ZL71InputField_t3762917431_CustomAttributesCacheGenerator_m_HideMobileInputP21CustomAttributesCache
fSa:__ZN11TextureData5ResetEv
O5b:__Z53Register_UnityEngine_GameObject_get_activeInHierarchyv
kFf:_ToBase64Transform_InternalTransformFinalBlock_m360524956
Zpd:_ActivationContext_Dispose_m2038725770
NO:__ZL30InitializeCoreScriptingClassesv
Jg:_glBlitFramebuffer
Y6f:_Enumerator_System_Collections_IEnumerator_get_Current_m3594024719_gshared
xgb:__Z35Transfer_Blittable_SingleValueFieldI14SafeBinaryReadhEvRT_R17GeneralMonoObjectRK23StaticTransferFieldInfo
Z_b:__ZN12CachedWriter15CompleteWritingEv
kRa:__ZNK12CubemapArray22GetTypeVirtualInternalEv
Un:FUNCTION_TABLE_vif
Vn:FUNCTION_TABLE_vid
Wn:FUNCTION_TABLE_vii
B7a:__Z40scripting_liveness_calculation_from_root18ScriptingObjectPtrPv
sOa:__ZN7Texture23VirtualRedirectTransferER24GenerateTypeTreeTransfer
SOc:_UNITY_FT_Set_Transform
Brj:__ZN6il2cpp8metadata15GenericMetadata20RegisterGenericClassEP18Il2CppGenericClass
JSj:_glDeleteFramebuffers__wrapper
uLg:__Z220RuntimeInvoker_Boolean_t97287965_RuntimeObject_Int32U26_t1369213839_Int32_t2950945753_Int32_t2950945753_Int32_t2950945753_RuntimeObject_SByte_t1669577662_Int32_t2950945753_ContractionU26_t961830454_ContextU26_t3937453398PFvvEPK10MethodInfoPvPS4_
vDc:_cff_blend_build_vector
H5e:_WebHeaderCollection_ToString_m1263025316
fYb:__ZZN12MeshRenderer15InitializeClassEvEN29FunctorImpl_134kDidDeleteMesh4CallEPviR11MessageData
s7d:_GetterAdapter_Invoke_m3767885970
ebh:_List_1__ctor_m747758800_gshared
vLf:_String_CreateString_m2818852475
lTb:__Z22GenerateBoxTilingShapeP22GenerateTilingAreaInfo
qUa:__ZN28EnlightenRendererInformation8TransferI14SafeBinaryReadEEvRT_
xVi:_CanvasRenderer_get_hasMoved_m2236392341
Hwg:_MessageEvent__ctor_m1231650089
z5:__ZNK15Lz4Decompressor16DecompressMemoryEPKvPjPvS2_
mIc:_UNITY_tt_face_build_cmaps
bHa:__Z11IsCoroutine18ScriptingMethodPtrRK22CommonScriptingClasses
USb:__ZN4core8hash_mapINS_12basic_stringIcNS_20StringStorageDefaultIcEEEE10vector_setI4PPtrI11SpriteAtlasENSt3__24lessIS8_EE13stl_allocatorIS8_L18MemLabelIdentifier81ELi16EEENS_4hashIS4_EENS9_8equal_toIS4_EEEixERKS4_
Hyc:__ZN11Rigidbody2D8TransferI24GenerateTypeTreeTransferEEvRT_
lQa:__Z35UnityPropertySheet_MakeSortedColorsRKNSt3__23mapIN9ShaderLab16FastPropertyNameE10ColorRGBAfNS_4lessIS2_EENS_9allocatorINS_4pairIKS2_S3_EEEEEER10vector_mapIS2_S3_S5_NS6_INS7_IS2_S3_EEEEE
IHc:_UNITY_tt_face_load_os2
Rfb:__Z29Transfer_Blittable_ArrayFieldI14SafeBinaryRead8Vector4fEvRT_R9ArrayInfoRK23StaticTransferFieldInfo
JYd:_Default_check_arguments_m3882727959
Idg:_UTF8Encoding_GetMaxCharCount_m3762459613
UZd:_ModuleBuilder_RegisterToken_m4166846047
Czb:__ZZ23InitPlayerLoopCallbacksvEN51PostLateUpdateUpdateCustomRenderTexturesRegistrator7ForwardEv
EXe:_RawImage_OnPopulateMesh_m1115858855
m4i:__ZN6il2cpp2vm13MetadataCache25GetStringLiteralFromIndexEi
zqd:_Hashtable_ToPrime_m33531354
Tph:_Collection_1_IsSynchronized_m1117613618_gshared
Oig:_TypeInitializationException__ctor_m3546444694
c2b:__ZNK9Transform16GetLocalRotationEv
ZH:__ZN11UnityEngine15CloudWebService23WebRequestUploadHandler17ConsumeUploadDataEj
b_g:__Z68RuntimeInvoker_Void_t1185182177_Single_t1397266774_SByte_t1669577662PFvvEPK10MethodInfoPvPS4_
aQd:_MemoryStream_set_Position_m3169779190
vLb:__ZN13RenderManager29SetCurrentCameraAndStackStateEP6CameraP25CameraStackRenderingState
z4c:_ExecuteEvents_get_scrollHandler_m2659345019
ZFa:__ZNSt3__26__treeINS_12__value_typeIjN4core12basic_stringIcNS2_20StringStorageDefaultIcEEEEEENS_19__map_value_compareIjS7_NS_4lessIjEELb1EEE13stl_allocatorIS7_L18MemLabelIdentifier7ELi16EEE7destroyEPNS_11__tree_nodeIS7_PvEE
gkj:__ZN15dense_hashtableINSt3__24pairIK10KeyWrapperINS1_IP11Il2CppClassjEEES4_EES6_N6il2cpp8metadata14ArrayClassHashEN14dense_hash_mapIS6_S4_SB_NS6_14EqualsComparerINSA_17ArrayClassCompareEEENS0_9allocatorIS8_EEE9SelectKeyESF_SH_E12resize_deltaEjj
Yh:_JS_WebRequest_Release
tgf:_RSAManaged_get_PublicOnly_m405847294
HG:__ZN11UnityEngine15CloudWebService14DataErrorEventD0Ev
Xnj:__ZN6il2cpp6icalls8mscorlib6System4Type20internal_from_handleEi
ude:_Context__ctor_m254302079
xrj:__ZN6il2cpp8metadata15GenericMetadata7InflateEPK19Il2CppGenericMethodPK20Il2CppGenericContext
HTa:__ZN19ShaderPropertySheet16SetArrayPropertyEN9ShaderLab16FastPropertyNameENS_12PropertyTypeEPKvj
qZe:_Selectable_FindSelectable_m2348614027
edd:_DropdownItem_OnPointerEnter_m1492957598
ndc:__ZN8GUIState8EndOnGUIEv
aYc:__ZN11UnityEngine15PlatformWrapper16GetApplicationIdEv
bKc:_UNITY_TT_Get_VMetrics
rzd:_SimpleEnumerator__cctor_m2844299657
qTd:_LocalDataStoreSlot__ctor_m4104083971
kRi:_AudioSource_ReadExtensionName_m725112169
nzi:_X509CertificateEnumerator_System_Collections_IEnumerator_Reset_m2039524926
gSg:__Z128RuntimeInvoker_Void_t1185182177_RuntimeObject_BooleanU26_t4125257963_SByte_t1669577662_Int32U26_t1369213839_Int32U26_t1369213839PFvvEPK10MethodInfoPvPS4_
dla:__ZN7Texture21GetMasterTextureLimitEv
lNb:__Z12CanAddScriptR10GameObject17ScriptingClassPtrPS1_S2_
ufj:__ZN6il2cpp2vm10Reflection12HasAttributeEP12Il2CppObjectP11Il2CppClass
Dzh:_Comparison_1_BeginInvoke_m3263247262_gshared
PZ:__ZN9ShaderLabL25StaticInitializeShaderLabEPv
U:Math_max
Zsi:__ZL64HorizontalLayoutGroup_t2586782146_CustomAttributesCacheGeneratorP21CustomAttributesCache
qhj:_il2cpp_class_get_methods
iCg:_HitInfo_SendMessage_m1343099429_AdjustorThunk
Dib:__Z18Transfer_BlittableI24GenerateTypeTreeTransferLb0EN4math12int2_storageEEvRK29SerializationCommandArgumentsR31RuntimeSerializationCommandInfo
qvf:_StackTrace_get_trace_m1194606084
YIf:_Single_CompareTo_m2785801815_AdjustorThunk
Auj:__ZN6il2cpp2os6Thread16GetCurrentThreadEv
OIh:_Array_InternalArray__Insert_TisUILineInfo_t4195266810_m3191124053_gshared
EZb:__ZN10GameObject13ComponentPair15SetComponentPtrEPN5Unity9ComponentE
bRj:_glBlitFramebuffer__wrapper
XTb:__Z13RegisterClassI10MeshFilterEvv
SDg:_Transform_INTERNAL_set_position_m3627767375
dGa:__ZN10TagManager8TransferI19StreamedBinaryWriteILb0EEEEvRT_
W6a:__ZN11PreloadData23VirtualRedirectTransferER18StreamedBinaryReadILb0EE
Zxg:_PropertyNameUtils_PropertyNameFromString_Injected_m1259736140
xwd:_Char_System_IConvertible_ToDateTime_m3564102661
jWa:__ZN6Sprite17MainThreadCleanupEv
kRj:_glBlendFuncSeparate__wrapper
hz:__ZN10AudioMixer14UpdateMuteSoloEv
pFa:__ZN9Transform35SetLocalPositionWithoutNotificationERKN4math7_float3Ey
PRg:__Z69RuntimeInvoker_UInt64_t4134040092_Int32_t2950945753_SByte_t1669577662PFvvEPK10MethodInfoPvPS4_
Zi:_JS_Eval_ClearTimeout
kYe:_Raycast2DCallback_Invoke_m1500574149
Ppa:__ZN7ApiGLES16SetPatchVerticesEi
AEi:_CharacterClass_Compile_m3296067317
swj:__ZN6il2cpp2gc16GarbageCollector16InvokeFinalizersEv
Gvd:_Byte_System_IConvertible_ToInt64_m285584218_AdjustorThunk
zzg:_Rect_get_size_m477575021_AdjustorThunk
OYi:__ZN6il2cpp2vm5Class20FromGenericParameterEPK22Il2CppGenericParameter
iJ:__ZN19CloudServiceHandler11FlushEventsEv
d3:__ZN15GlobalCallbacksC2Ev
Bpc:__ZN7b2World10CreateBodyEPK9b2BodyDef
Oze:_Comparer_1_System_Collections_IComparer_Compare_m2016223770_gshared
eRg:__Z74RuntimeInvoker_DateTime_t3738529785_DateTime_t3738529785_Int32_t2950945753PFvvEPK10MethodInfoPvPS4_
fQc:_UNITY_FT_New_Memory_Face
ymh:_Collection_1_System_Collections_IList_IndexOf_m3271188411_gshared
jOc:__ZN20TextRenderingPrivate21TextMeshGeneratorImpl5FlushEv
OPd:_MonoIO_GetFileStat_m678141354
ZFc:_UNITY_FT_Load_Sfnt_Table
Kbd:__Z15CastclassSealedP12Il2CppObjectP11Il2CppClass
ztf:_Decimal_IsZero_m4250358244_AdjustorThunk
cTd:_UnmanagedMemoryStream_get_CanRead_m3770815400
cMb:__ZN16ReflectionProbes40UpdateRealtimeReflectionProbesTimeslicedEv
ptf:_Decimal_u64_m3374804932
fjg:_UInt16_System_IConvertible_ToInt32_m1950778303_AdjustorThunk
i4a:__ZNK30RuntimeInitializeOnLoadManager22GetTypeVirtualInternalEv
w1i:__ZN15dense_hashtableINSt3__24pairIK10KeyWrapperIN6il2cpp5utils13dynamic_arrayIPK10Il2CppTypeLj4EEEEPFvvEEESA_NS3_8metadata19Il2CppSignatureHashEN14dense_hash_mapISA_SD_SG_NSA_14EqualsComparerINSF_22Il2CppSignatureCompareEEENS0_9allocatorISE_EEE9SelectKeyESK_SM_E12resize_deltaEjj
nXb:__ZN16ReflectionProbes15InitializeClassEv
xuh:_ReadOnlyCollection_1_System_Collections_ICollection_CopyTo_m2527663815_gshared
CMh:_Dictionary_2_Do_ICollectionCopyTo_TisKeyValuePair_2_t3699644050_m4159638770_gshared
wpj:__ZN6il2cpp2vm5Image9GetCorlibEv
TFg:_Vector3_get_left_m2428419009
Ftj:__ZN6il2cpp2vm11MethodStack17GetStackFramesRawEv
RBj:_GC_reclaim_uninit
m4c:_ExecuteEvents_Execute_m113814934
A$:__ZN13RuntimeStaticINSt3__23mapIN4core12basic_stringIcNS2_20StringStorageDefaultIcEEEES6_NS0_4lessIS6_EE13stl_allocatorINS0_4pairIKS6_S6_EEL18MemLabelIdentifier13ELi16EEEELb0EE13StaticDestroyEPv
jKh:_Array_qsort_TisColor32_t2600501292_m1362211604_gshared
Uze:_Enumerator_System_Collections_IEnumerator_get_Current_m2979767597_AdjustorThunk
SEh:__ZN30GenericInterfaceActionInvoker1I17Color_t2555686324E6InvokeEPK10MethodInfoP12Il2CppObjectS0_
Fmd:_MD5CryptoServiceProvider_ProcessFinalBlock_m2241588515
A_e:_ScrollRect_GetBounds_m449872505
Yj:_glIsVertexArray
ipd:_SmallXmlParser_Read_m3485223434
pId:_Int16_Parse_m2276856944
fa:invoke_fff
QJj:_mbsinit
JOf:_Array_InternalArray__ICollection_Remove_TisContactPoint2D_t3390240644_m284878234_gshared
PPj:b14
DRc:__ZN2UI6Canvas17MainThreadCleanupEv
sna:__ZN6prcoreL12RemapGenericI17TexFormatARGB155517TexFormatRGBA8888EEvPKNS_9InnerInfoE
I_i:__ZN13Il2CppHashMapIPK19Il2CppGenericMethodPK26Il2CppGenericMethodIndicesN6il2cpp8metadata23Il2CppGenericMethodHashENS7_26Il2CppGenericMethodCompareENSt3__29allocatorINSA_4pairIK10KeyWrapperIS2_ES5_EEEEEC2EjRKS8_RKS9_
y3d:_TypeBuilder_HasElementTypeImpl_m1871001960
bIf:_SecurityFrame__ctor_m2140076703_AdjustorThunk
Y_f:_DefaultComparer_Equals_m2458578172_gshared
rra:__ZN7ApiGLES13CreateProgramEv
TAe:_Enumerator_VerifyState_m4003066746_gshared
sla:__ZN4crnd12crn_unpackerD2Ev
jk:_emscripten_glTexImage2D
Iye:_Comparer_1_System_Collections_IComparer_Compare_m2537217645_gshared
BO:__ZN18ScriptingArguments9AddStringEPKc
jCj:_setup_header
wxd:_Char_ToString_m3588025615
_Me:_CryptoConvert_ToCapiKeyBlob_m3371450375
Ama:__ZL23stbir__resize_arbitraryPvPKviiiS_iiiffffPfiij14stbir_datatype12stbir_filterS4_10stbir_edgeS5_16stbir_colorspace
Xib:__Z18Transfer_BlittableI24GenerateTypeTreeTransferLb1E8Vector4fEvRK29SerializationCommandArgumentsR31RuntimeSerializationCommandInfo
TPj:b18
uk:_pthread_detach
D4i:__ZN6il2cpp2vm19SocketPollingThread7RunLoopEv
Mdd:_FontUpdateTracker_UntrackText_m1981515690
Prb:__ZNSt3__213__stable_sortIRN10vector_mapI17ScriptingClassPtrPKN5Unity4TypeENS_4lessIS2_EENS_9allocatorINS_4pairIS2_S6_EEEEE13value_compareENS_11__wrap_iterIPSB_EEEEvT0_SJ_T_NS_15iterator_traitsISJ_E15difference_typeEPNSM_10value_typeEi
CJe:_SimpleCollator_FillSurrogateSortKeyRaw_m725998232
tdh:_List_1_AddEnumerable_m1284696147_gshared
U4e:_IPAddress_Equals_m1823478787
kee:_Context_CreateNewContext_m3053563976
_8:__ZN9ShaderLab25SerializedTextureProperty8TransferI24GenerateTypeTreeTransferEEvRT_
mdj:__ZN6il2cpp2gc19AppendOnlyGCHashMapINSt3__24pairIPK14Il2CppAssemblyP11Il2CppClassEEP24Il2CppReflectionAssembly17ReflectionMapHashIS9_ENS2_8equal_toIS9_EEEC2Ev
Ilb:__Z18Transfer_BlittableI19StreamedBinaryWriteILb0EELb0EdEvRK29SerializationCommandArgumentsR31RuntimeSerializationCommandInfo
b9:__ZN11NamedObject8TransferI18StreamedBinaryReadILb0EEEEvRT_
Urg:_InvokableCall_remove_Delegate_m1376110510
taf:_Capture_get_Value_m3919646039
XBd:_Hashtable_Clear_m3112193608
qdg:_UTF8Encoding_InternalGetByteCount_m771565606
fNe:_DSAManaged_GenerateKeyPair_m2236915969
w8g:_List_1_System_Collections_IList_Remove_m3654336679_gshared
jbi:__ZL51GUILayer_t2783472903_CustomAttributesCacheGeneratorP21CustomAttributesCache
Rk:_emscripten_glMatrixMode
RWe:_MaskableGraphic_UnityEngine_UI_IClippable_get_gameObject_m1739855597
eIf:_SecurityFrame_get_Assembly_m2874566710
zBf:_Guid__ctor_m3562600567_AdjustorThunk
aG:__ZN11UnityEngine15CloudWebService14DataDispatcher16PrepareDataBlockERNS0_16SessionContainerE
$va:__ZN18GfxFramebufferGLES5ClearE13GfxClearFlagsRK10ColorRGBAffib
$Sf:_MonoProperty_StaticGetterAdapterFrame_TisRuntimeObject_m4131530968_gshared
rqb:__ZL26Transfer_SimpleNativeClassI18StreamedBinaryReadILb0EE10RectOffsetLb0EEvRK29SerializationCommandArgumentsR31RuntimeSerializationCommandInfo
Yre:_InternalEnumerator_1_get_Current_m2316281569_gshared
lDb:__ZL12DepthPassJobPN21GfxDeviceAsyncCommand10ArgScratchEPKNS_3ArgE
m7:__ZNSt3__26vectorIN9ShaderLab20SerializedSubProgram16TextureParameterENS_9allocatorIS3_EEE6assignINS_11__wrap_iterIPS3_EEEENS_9enable_ifIXaasr21__is_forward_iteratorIT_EE5valuesr16is_constructibleIS3_NS_15iterator_traitsISC_E9referenceEEE5valueEvE4typeESC_SC_
Nfc:__ZN5Unity9rapidjson6WriterI16TempBufferWriterNS0_4UTF8IcEES4_13JSONAllocatorE11WriteDoubleEd
Yeg:_Thread_SetCachedCurrentUICulture_m1729523031
fVc:__Z55Register_UnityEngine_CanvasGroup_get_ignoreParentGroupsv
wUb:__Z13RegisterClassI19LowerResBlitTextureEvv
Yif:_ClientContext_set_ClientHelloProtocol_m4189379912
Tm:FUNCTION_TABLE_iiiiiiiiiiii
Xch:_List_1_get_Item_m1686506901_gshared
oIa:__ZN16GraphicsSettingsD0Ev
n:cttz_i8
jDc:_UNITY_FT_GlyphLoader_Add
GRi:_AudioListener_INTERNAL_CALL_ReadExtensionPropertyName_m330480156
LGd:_Convert_ToUInt16_m867476252
Ol:_emscripten_glViewport
_Sb:__Z21GenerateTilingAreaJobP22GenerateTilingAreaInfoj
wyj:__ZN6il2cpp6icalls8mscorlib6System15MonoCustomAttrs17IsDefinedInternalEP12Il2CppObjectP20Il2CppReflectionType
FWi:_SkeletonBone_t4134054672_marshal_pinvoke_back
HEc:_cff_parse_font_bbox
LIe:_MSCompatUnicodeTable_Category_m1834196420
z2a:__ZN14PlayerSettings23VirtualRedirectTransferER18StreamedBinaryReadILb0EE
fwf:_Double_CompareTo_m3151899116
rHj:__ZN6il2cpp2os5Event5ResetEv
yIb:__Z26CombineDepthNormalsTextureRK17RenderLoopContextR13dynamic_arrayI16RenderObjectDataLj4EE
$Hc:_tt_name_ascii_from_other
eLi:_ToggleGroup__ctor_m3308114662
irj:__ZN6il2cpp8metadata15GenericMetadata17InflateParametersEPK13ParameterInfohPK20Il2CppGenericContextb
qGa:__ZN6Camera13AwakeFromLoadE17AwakeFromLoadMode
FLh:_Array_Sort_TisUILineInfo_t4195266810_m3737783007_gshared
sxg:_PlayableAsset_Internal_CreatePlayable_m2550417712
Vwi:_TlsStream_Write_m188217214
tvb:__Z25SetNeedToPerformRenderingb
Xkg:_UInt64_System_IConvertible_ToInt32_m949522652_AdjustorThunk
CEa:__ZN10GameObjectD2Ev
ADb:__ZN14qsort_internal30FindAndMovePivotToLastPositionIP15RODataDepthPassi17ROSorterDepthPassEEvT_S4_T0_T1_
lLb:__ZN12CullingGroup10SendEventsEPK17CullingGroupEventj
O5c:_PointerInputModule__ctor_m3728889932
IL:__ZThn32_NK8Renderer8GetLayerEv
x6f:_Enumerator_System_Collections_IEnumerator_Reset_m2915500989_gshared
MEc:_cff_parse_vsindex
BId:_Int32_ValidDigit_m1059003769
uVj:_emscripten_glTexParameterfv__wrapper
FUe:_LayoutGroup_get_rectTransform_m442863741
edb:__Z18Transfer_BlittableI14SafeBinaryReadLb1E9BoundsIntEvRK29SerializationCommandArgumentsR31RuntimeSerializationCommandInfo
hij:_il2cpp_method_get_param_count
I1b:__ZN10systeminfo19ISOToSystemLanguageERN4core12basic_stringIcNS0_20StringStorageDefaultIcEEEE
ecj:__ZNK15dense_hashtableINSt3__24pairIK10KeyWrapperINS1_IPK12PropertyInfoP11Il2CppClassEEEjEES9_17ReflectionMapHashIS8_EN14dense_hash_mapIS9_jSD_NS9_14EqualsComparerINS0_8equal_toIS8_EEEENS0_9allocatorISB_EEE9SelectKeyESI_SK_E3endEv
Jyc:__ZN11Rigidbody2D8TransferI19StreamedBinaryWriteILb0EEEEvRT_
Klg:_UnauthorizedAccessException__ctor_m40101894
cMc:_ps_dimension_done
rRc:__Z46Register_UnityEngine_TextGenerator_Dispose_cppv
kwf:_Double_Parse_m4153729520
_Gh:_IndexedSet_1_AddUnique_m861843892_gshared
XTa:__ZN16LightmapSettings8TransferI14SafeBinaryReadEEvRT_
zca:__ZN17BufferManagerGLES13ReleaseBufferEP14DataBufferGLES
Yhf:_CipherSuite_Write_m1172814058
nSd:_SynchronizedWriter_Write_m301917713
HY:__ZN9profiling6MarkerC2EPKc13ProfilerGroupNS0_5FlagsE
pkc:__Z18Transfer_BlittableI8JSONReadLb1EjEvRK29SerializationCommandArgumentsR31RuntimeSerializationCommandInfo
YZd:_ConstructorBuilder_get_IsCompilerContext_m3364441562
Vqg:_Debug_LogWarning_m3752629331
Ryh:_ReadOnlyCollection_1_System_Collections_Generic_IListU3CTU3E_RemoveAt_m4037795630_gshared
pPg:__Z117RuntimeInvoker_Void_t1185182177_RuntimeObject_Int32_t2950945753_Int32_t2950945753_Int32_t2950945753_Int32_t2950945753PFvvEPK10MethodInfoPvPS4_
B8c:_U3COnFinishSubmitU3Ec__Iterator0_Reset_m3632769946
jp:stackSave
Fad:_ColorTween_get_targetColor_m1724075482_AdjustorThunk
xMc:_ps_dimension_end
Zac:__Z41Register_UnityEngine_Mesh_Internal_Createv
I$a:__ZN14SpriteRenderer23VirtualRedirectTransferER24GenerateTypeTreeTransfer
grj:__ZNK15dense_hashtableI10KeyWrapperIP18Il2CppGenericClassES3_N6il2cpp8metadata22Il2CppGenericClassHashEN14dense_hash_setIS3_S6_NS3_14EqualsComparerINS5_25Il2CppGenericClassCompareEEENSt3__29allocatorIS3_EEE8IdentityESA_SD_E12test_deletedERK30dense_hashtable_const_iteratorIS3_S3_S6_SF_SA_SD_E
ftc:__ZNSt3__27__sort3IRN18Overlap2DQueryBase29ColliderHitsByDepthComparitorEPP10Collider2DEEjT0_S7_S7_T_
eEd:_Console_Open_m3077673205
KMb:__ZN6Camera9SetAspectEf
_Rf:_Array_InternalArray__IndexOf_TisDateTime_t3738529785_m2463359116_gshared
wa:invoke_viiffiii
txj:__ZN15dense_hashtableINSt3__24pairIK10KeyWrapperIPK19Il2CppGenericMethodEP10MethodInfoEES6_N6il2cpp8metadata23Il2CppGenericMethodHashEN14dense_hash_mapIS6_S9_SD_NS6_14EqualsComparerINSC_26Il2CppGenericMethodCompareEEENS0_9allocatorISA_EEE9SelectKeyESH_SJ_E12resize_deltaEjj
LWj:_emscripten_glBindVertexArray__wrapper
_tj:__ZN6il2cpp6icalls8mscorlib6System4Enum19get_underlying_typeEP20Il2CppReflectionType
iFi:_Parser_IsECMAScript_m674158805
xFa:__ZN9Transform37InitializeTransformHierarchyRecursiveER18TransformHierarchyRii
Pva:__ZN26SinglePassStereoSupportExt23SetupStereoMatrixParamsE21MonoOrStereoscopicEye24BuiltinShaderMatrixParamRK10Matrix4x4f
t5e:_ServicePointManager_get_CertificatePolicy_m1966679142
LJj:_fscanf
B0c:__ZNK25UnityWebRequestJavaScript16GetUploadedBytesEv
aE:__Z46AudioListener_CUSTOM_GetNumExtensionPropertiesP12Il2CppObject
O5i:__ZN6il2cpp6icalls8mscorlib6SystemL16CheckMemberMatchI9FieldInfoNS_5utils10functional6FilterINSt3__212basic_stringIcNS8_11char_traitsIcEENS8_9allocatorIcEEEENS5_13VmStringUtils23CaseInsensitiveComparerEEEEEbPKT_PK11Il2CppClassSN_iRKT0_
lSf:_Array_InternalArray__IndexOf_TisMonoResource_t4103430009_m1351751258_gshared
dyf:_FieldAccessException__ctor_m3583219052
U9b:__Z57Register_UnityEngine_Transform_INTERNAL_set_localPositionv
Dga:__ZN13GfxDeviceGLES26SetRandomWriteTargetBufferEi15ComputeBufferID
iCj:_GC_split_block
OKh:_Array_Resize_TisUICharInfo_t75501106_m3903846016_gshared
qzb:__ZZ23InitPlayerLoopCallbacksvEN49EarlyUpdateResetFrameStatsAfterPresentRegistrator7ForwardEv
lKj:_poll
Evh:_ReadOnlyCollection_1_System_Collections_IEnumerable_GetEnumerator_m1671097018_gshared
vlg:_UInt64_ToString_m1529093114_AdjustorThunk
bsi:__ZL85Selectable_t3250028441_CustomAttributesCacheGenerator_Selectable_IsPressed_m907486548P21CustomAttributesCache
Iae:_TypeLibImportClassAttribute__ctor_m2302178978
kKe:_Escape_t3294788190_marshal_pinvoke
$Se:_InputField_OnUpdateSelected_m1118869681
Apj:__ZN6il2cpp2vmL36AddNestedTypesToNametoClassHashTableEP40Il2CppNameToTypeDefinitionIndexHashTablePKcRKNSt3__212basic_stringIcNS5_11char_traitsIcEENS5_9allocatorIcEEEEP11Il2CppClass
Cla:__ZN4crnd12crn_unpacker11unpack_dxt1EPPhjjj
r1b:__ZNK11ICallString6ToUTF8Ev
UYi:__ZN15dense_hashtableINSt3__24pairIK10KeyWrapperIPK22Il2CppGenericParameterEP11Il2CppClassEES6_N6il2cpp5utils11PointerHashIS4_EEN14dense_hash_mapIS6_S9_SE_NS6_14EqualsComparerINS0_8equal_toIS5_EEEENS0_9allocatorISA_EEE9SelectKeyESJ_SL_E15insert_noresizeERKSA_
XDe:_Transform_1_Invoke_m2468053724_gshared
BDb:__ZNSt3__211__sift_downIR17ROSorterDepthPassP15RODataDepthPassEEvT0_S5_T_NS_15iterator_traitsIS5_E15difference_typeES5_
KPa:__ZN18UnityPropertySheet11UnityTexEnvC2Ev
Yqd:_ArgumentException__ctor_m3200406061
rR:__ZN12FileAccessor4ReadEyyPvPy
Peh:_List_1_set_Capacity_m2777925136_gshared
lMb:__ZN13RenderTexture9SetHeightEi
Jsa:__ZNK6Camera20IsCurrentlyRenderingEv
Jif:_CipherSuiteCollection_get_IsFixedSize_m3127823890
pxe:_InternalEnumerator_1_System_Collections_IEnumerator_get_Current_m3537550566_gshared
HYe:_Scrollbar_UpdateVisuals_m2492252165
anj:__ZN6il2cpp6icalls8mscorlib6System2IO6MonoIO17GetFileAttributesEP12Il2CppStringPi
Wld:_HMACMD5__ctor_m3008609295
Bqf:_DateTime__ParseAmPm_m3478436123
frf:_DateTime_ToString_m2992030064_AdjustorThunk
UIc:_tt_cmap8_char_index
aP:__Z24scripting_class_get_name17ScriptingClassPtr
YQd:_Stream_WriteByte_m1519852120
DLi:_VerticalLayoutGroup_CalculateLayoutInputHorizontal_m1404590745
i0:__ZN13RuntimeStaticI15GUIEventManagerLb0EE13StaticDestroyEPv
QUd:_ShortComparer_Compare_m1881262465
Xeb:__Z29Transfer_Blittable_ArrayFieldI14SafeBinaryReadjEvRT_R9ArrayInfoRK23StaticTransferFieldInfo
Kxc:__ZN16CircleCollider2D13PrepareShapesER13dynamic_arrayIP7b2ShapeLj4EERK10Matrix4x4f
je:_emscripten_set_keydown_callback
Z9f:_EncoderReplacementFallback__ctor_m1483565116
Gbf:_Interpreter_IsWordChar_m2858055765
UBd:_Hashtable_CopyTo_m2905447224
zR:__ZN12FileAccessorC2Ev
BJf:_String_System_IConvertible_ToDouble_m3740733360
QGh:_EventFunction_1_Invoke_m2429482587_gshared
OGa:__ZN6Camera8TransferI19StreamedBinaryWriteILb0EEEEvRT_
$yc:__ZN23ColliderTilingExtensionC2Ev
q7i:__ZN6il2cpp2vm7Runtime12GetConfigDirEv
X5f:_Enumerator_MoveNext_m1177880931_AdjustorThunk
h0e:_Slider_UpdateVisuals_m3662961057
bTi:_TextGenerator_Populate_m194003733
$_d:_DerivedType_get_FullName_m1025358827
akd:_CryptoConfig_MapNameToOID_m2044758263
sqi:__ZL70InputField_t3762917431_CustomAttributesCacheGenerator_m_OnValueChangedP21CustomAttributesCache
lwb:__ZN13RenderManager22OnWindowSizeHasChangedEv
Jtb:__Z39WriteQueueForTransferSignatureIntoCacheRK31TransferFunctionScriptingTraitsRK24TransferRequestSignature17ScriptingClassPtrR23CachedSerializationDataRb
Q5a:__ZN13RenderManager18UpdateAllRenderersEv
jbg:_Encoding_get_UTF8UnmarkedUnsafe_m320312322
ffg:_Thread_Thread_free_internal_m333849022
esb:__Z27ClearCommonScriptingClassesR22CommonScriptingClasses
vAi:_CostDelegate_BeginInvoke_m2828452701
cXc:__ZN22BaseUnityConnectClient30OnEnteringStatePausedOrStoppedEv
uwc:__ZN10ClipperLib7Clipper18SwapPositionsInAELEPNS_5TEdgeES2_
voh:_Collection_1_ConvertItem_m1556170494_gshared
N2b:__Z25scripting_raise_exception21ScriptingExceptionPtr
$of:_DateTime_ToUniversalTime_m1945318289
qyd:_ArrayList_ToArray_m3827492363
z0e:_Slider_get_stepSize_m1423227661
qlg:_UInt64_Parse_m819899889
QEf:_SymmetricAlgorithm_set_IV_m3196220308
r1d:_GenericTypeParameterBuilder_GetHashCode_m852224381
XGd:_Convert_ToUInt32_m1453583008
$yf:_CompareInfo_Compare_m894311506
fFa:__Z24MergeTransformComponentsR9TransformS0_b
P0i:__ZNK15dense_hashtableI10KeyWrapperIPK19Il2CppGenericMethodES4_N6il2cpp8metadata23Il2CppGenericMethodHashEN14dense_hash_setIS4_S7_NS4_14EqualsComparerINS6_26Il2CppGenericMethodCompareEEENSt3__29allocatorIS4_EEE8IdentityESB_SE_E10test_emptyEj
x2c:_EventSystem_UpdateModules_m3643806022
kWi:_AnimationOffsetPlayable__cctor_m1029460816
yyj:__ZN6il2cpp2vm13ComObjectBase19GetRuntimeClassNameEPP15Il2CppHString__
Wj:_emscripten_glVertexAttribPointer
XJa:__ZNK20IntermediateRenderer12GetSceneMaskEv
wwb:__ZN14PreloadManager26UpdatePreloadingSingleStepENS_21UpdatePreloadingFlagsEi
n$e:_ScrollRect_SetLayoutHorizontal_m3078869633
$Ie:_SimpleCollator__ctor_m1587210019
P7b:__Z57Register_UnityEngine_RectTransform_INTERNAL_set_anchorMinv
TGd:_Convert_ToUInt16_m1480956416
$ma:__ZN6prcoreL25inner_stretch_i8_bilinearEPKNS_9InnerInfoE
i7a:__ZL30RegisterFilteredObjectCallbackPP12Il2CppObjectiPv
nyh:_ReadOnlyCollection_1_System_Collections_Generic_IListU3CTU3E_RemoveAt_m3317217538_gshared
lii:__ZL54AudioSource_t3935305588_CustomAttributesCacheGeneratorP21CustomAttributesCache
Nwb:__Z19InitializeGfxDevicev
wG:__ZN11UnityEngine15CloudWebService16SessionContainer24GetSessionHeaderJsonDataERKN4core12basic_stringIcNS2_20StringStorageDefaultIcEEEERNS2_13StringBuilderE
E_d:_DerivedType_GetEvent_m4157575360
W$:__ZN13RuntimeStaticI21AssetReferenceStorageLb0EE13StaticDestroyEPv
djd:_SByte_System_IConvertible_ToType_m4075253447_AdjustorThunk
_rh:_Collection_1_ConvertItem_m618594517_gshared
i_g:__Z72RuntimeInvoker_Bounds_t2266837910_RuntimeObject_Matrix4x4U26_t3606180965PFvvEPK10MethodInfoPvPS4_
juj:__ZN6il2cpp6icalls8mscorlib6System9AppDomain22InternalGetProcessGuidEP12Il2CppString
SCc:_cf2_builder_moveTo
dJg:__Z48RuntimeInvoker_RuntimeObject_Decimal_t2948259380PFvvEPK10MethodInfoPvPS4_
BBa:__ZNK17FileSystemHandler10IsReadOnlyERK13FileEntryData
sjb:__Z18Transfer_BlittableI24GenerateTypeTreeTransferLb1EjEvRK29SerializationCommandArgumentsR31RuntimeSerializationCommandInfo
SYi:__ZN6il2cpp2os12FastAutoLockD2Ev
mVb:__ZNK28RectTransformPropertyBinding9BindValueER6ObjectRKN11UnityEngine9Animation14GenericBindingERNS3_10BoundCurveE
$W:__ZN11ColorRGBA328TransferI14SafeBinaryReadEEvRT_
$Ec:_cff_vstore_done
GTg:__Z68RuntimeInvoker_Void_t1185182177_UInt16_t2177724958_SByte_t1669577662PFvvEPK10MethodInfoPvPS4_
_3a:__ZN15ResourceManager10Dependency8TransferI24GenerateTypeTreeTransferEEvRT_
tmd:_MACTripleDES_HashFinal_m3613553534
Mkg:_UInt64_System_IConvertible_ToChar_m2074245892
udg:_UTF8Encoding_InternalGetBytes_m1965760031
Of:_emscripten_glClearDepth
LYb:__ZNK8GUILayer22GetTypeVirtualInternalEv
bVa:__ZN14SafeBinaryRead21TransferSTLStyleArrayINSt3__26vectorIN15QualitySettings14QualitySettingENS1_9allocatorIS4_EEEEEEvRT_17TransferMetaFlags
Z1a:__ZNSt3__26vectorINS_4pairIPKN5Unity4TypeE7Hash128EENS_9allocatorIS7_EEE8__appendEj
kPb:__ZN14SafeBinaryRead17RegisterConverterEPKcS1_PFbPvRS_E
AD:__ZZN13AudioListener15InitializeClassEvEN31FunctorImpl_184kDidAddComponent4CallEPviR11MessageData
cFc:_cff_font_load
Puj:__GLOBAL__sub_I_LibraryLoader_cpp
q2b:__Z13IsPathCreatedRKN4core12basic_stringIcNS_20StringStorageDefaultIcEEEE
Gma:__ZL22stbir__encode_scanlineP11stbir__infoiPvPfiii
Q9d:_ExternalException__ctor_m2877839282
WBc:__ZN20QuadTreeNodeRenderer13StaticDestroyEPv
sH:__ZN11UnityEngine15CloudWebService20WebRequestRestClient5AbortEv
uDi:_Regex_Matches_m2080913806
yVb:__ZN9Transform12CleanupClassEv
rCg:_Sprite_get_rect_m2575211689
Ppi:__ZL85Graphic_t1660335611_CustomAttributesCacheGenerator_Graphic_OnPopulateMesh_m2916877004P21CustomAttributesCache
Jug:_Mathf_Sin_m3411839043
iQc:_UNITY_FT_Set_Pixel_Sizes
fXd:_OperatingSystem_Clone_m1122165140
QOh:_GameObject_AddComponent_TisRuntimeObject_m3469369570_gshared
h8:__ZNSt3__26vectorIN9ShaderLab19SerializedSubShaderENS_9allocatorIS2_EEE26__swap_out_circular_bufferERNS_14__split_bufferIS2_RS4_EE
ukj:__ZN6il2cpp2vmL24thread_cleanup_on_cancelEPv
Tah:_List_1_RemoveAll_m3165362277_gshared
Phg:_Type_type_is_subtype_of_m1406623598
Vdg:_Thread_get_CurrentThread_m4142136012
nKa:__Z30ProcessDynamicBatchGeometryJobP25DynamicVBOGeometryJobDataj
XDb:__ZNSt3__27__sort4IRNS_6__lessI11CulledLightS2_EEPS2_EEjT0_S6_S6_S6_T_
Ffj:__ZN6il2cpp2vm14TypeNameParser26ParseArrayModifierOptionalEv
XN:__Z26scripting_object_get_class18ScriptingObjectPtr
tlj:__ZN6il2cpp6icalls8mscorlib6System10Reflection8Assembly13get_code_baseEP24Il2CppReflectionAssemblyb
K4a:__ZNSt3__26vectorIN4core12basic_stringIcNS1_20StringStorageDefaultIcEEEE13stl_allocatorIS5_L18MemLabelIdentifier13ELi16EEE7reserveEj
ild:_DSASignatureDeformatter__ctor_m2889130126
ZUb:__ZNK28MonoBehaviourPropertyBinding15GenerateBindingERKN4core12basic_stringIcNS0_20StringStorageDefaultIcEEEEbRN11UnityEngine9Animation14GenericBindingE
LAg:_RectTransform_INTERNAL_set_pivot_m1160676233
Pfh:_List_1_set_Item_m35836043_gshared
l9e:_X509ChainElementCollection__ctor_m3424079155
DAi:_LinkStack_Push_m3081279930
cCe:_Enumerator_MoveNext_m1107569389_gshared
xwj:__ZN6il2cpp6icalls8mscorlib6System11Environment15internalGetHomeEv
ivg:_Matrix4x4_GetHashCode_m4034747639_AdjustorThunk
T8d:_ResourceCacheItem_t51292791_marshal_pinvoke_cleanup
mL:__ZNK5Unity9Component7GetNameEv
iVe:_U3CDelayedSetDirtyU3Ec__Iterator0_Reset_m160466733
nqg:_Native__cctor_m1435623442
eeh:_List_1_System_Collections_IList_Remove_m1070694895_gshared
RHi:_LayoutCache__ctor_m3885940174
Knc:__ZNK11b2RopeJoint16GetReactionForceEf
Lkg:_UInt64_System_IConvertible_ToByte_m1501504925_AdjustorThunk
WSi:_TextGenerator_Invalidate_m1072346986
tlf:_TlsClientHello_ProcessAsTls1_m2549285167
o6g:__Z74RuntimeInvoker_Boolean_t97287965_UIVertex_t4057497605_UIVertex_t4057497605PFvvEPK10MethodInfoPvPS4_
iwh:_ReadOnlyCollection_1_System_Collections_IList_Clear_m3591436538_gshared
WZe:_ScrollRect_set_decelerationRate_m723367336
O9f:_EncoderExceptionFallback_Equals_m2760188920
$x:__ZN4FMOD6System7releaseEv
Uud:_Boolean_CompareTo_m3665076258
WJf:_String_Split_m3580120853
AOe:_PrivateKeyInfo__ctor_m2811023496
WQ:__Z18PathToAbsolutePathRKN4core12basic_stringIcNS_20StringStorageDefaultIcEEEE
$2d:_PropertyBuilder_GetCustomAttributes_m2917594003
MIi:_GUILayoutUtility_LayoutFromEditorWindow_m2914699782
ima:__ZL13BlitImageImplR14ImageReferenceiiRKS_NS_10ColorSpaceENS_8BlitModeEb
roa:__ZN6prcoreL17RemapGenericFloatI18TexFormatRGBAFloat17TexFormatRGBFloatEEvPKNS_9InnerInfoE
TOh:_GameObject_GetComponentInChildren_TisRuntimeObject_m1310240902_gshared
Ifi:__ZL69PersistentCall_t3407714124_CustomAttributesCacheGenerator_m_ArgumentsP21CustomAttributesCache
ew:__ZN12AudioManager29ShutdownReinitializeAndReloadEv
qMa:__ZN16ReflectionProbes28GetMinBakedCubemapResolutionEv
gyj:__GLOBAL__sub_I_String_cpp
RYi:__ZN15dense_hashtableINSt3__24pairIK10KeyWrapperIPK22Il2CppGenericParameterEP11Il2CppClassEES6_N6il2cpp5utils11PointerHashIS4_EEN14dense_hash_mapIS6_S9_SE_NS6_14EqualsComparerINS0_8equal_toIS5_EEEENS0_9allocatorISA_EEE9SelectKeyESJ_SL_E6insertERKSA_
iTe:_InputField_GenerateCaret_m1459647218
cyi:_X509CertificateEnumerator__ctor_m85694331
dia:__ZN14DataBufferGLES16RecreateWithDataEjPKv
QS:__Z29GetGlobalAllowNameConversionsv
nVf:_Array_InternalArray__Insert_TisTableRange_t3332867892_m558285859_gshared
SNb:__ZN8Material8SetColorEN9ShaderLab16FastPropertyNameERK10ColorRGBAf
D7f:_Enumerator_System_Collections_IEnumerator_Reset_m3754523291_gshared
gVj:_glUniform3uiv__wrapper
Zz:__ZN11AudioSource23VirtualRedirectTransferER18StreamedBinaryReadILb0EE
b9e:_X509CertificateEnumerator__ctor_m943731472
Kyg:_RangeInt_get_end_m4128831787
Z$:__ZN21AssetReferenceStorageC2Ev
sNj:dynCall_iiifiii
Ych:_List_1_set_Item_m2082115010_gshared
Bag:_Encoding_GetBytes_m3735967069
mnc:__ZN23ColliderTilingExtension5ResetEv
Fra:__ZN14GfxContextGLES43AddRenderSurfaceToDeferredFBOInvalidateListEPK17RenderSurfaceGLES
Vlj:__ZN6il2cpp6icalls8mscorlib6System9Threading6Thread15Thread_internalEP12Il2CppThreadP14Il2CppDelegate
vca:__ZN11NamedObject23VirtualRedirectTransferER14SafeBinaryRead
t1e:_Text_get_resizeTextMinSize_m1002355407
ZPc:__ZNSt3__26vectorIN20TextRenderingPrivate8FontImpl13CharacterInfoE13stl_allocatorIS3_L18MemLabelIdentifier1ELi16EEE6insertENS_11__wrap_iterIPKS3_EERS9_
qza:__ZN23PreloadManagerOperation6IsDoneEv
sZe:_Selectable_get_navigation_m3508916916
hzc:__ZN10Effector2D10EndContactEP9b2Contact
Nxj:__ZN6il2cpp5utils11StringUtils11Utf16ToUtf8ERKNSt3__212basic_stringIDsNS2_11char_traitsIDsEENS2_9allocatorIDsEEEE
uff:_MD4Managed_Decode_m4273685594
CVg:__Z57RuntimeInvoker_Quaternion_t2301928331_Vector3_t3722313464PFvvEPK10MethodInfoPvPS4_
s6a:__ZN21LightProbeProxyVolume18HasHardwareSupportEv
msc:__ZNK20b2SeparationFunction17FindMinSeparationEPiS0_f
Wma:__ZN6prcoreL31inner_stretch_argb8888_bilinearEPKNS_9InnerInfoE
snb:__Z18Transfer_BlittableI18StreamedBinaryReadILb1EELb1E8BitFieldEvRK29SerializationCommandArgumentsR31RuntimeSerializationCommandInfo
BJc:_UNITY_FT_Outline_Decompose
YKd:_Int64_System_IConvertible_ToChar_m1509243576_AdjustorThunk
oxi:_GeneralNames_get_IPAddresses_m4242915644
ACj:_GC_init_size_map
sHa:__Z20scripting_object_new17ScriptingClassPtr
NOe:_KeyGeneratedEventHandler_Invoke_m2527485594
Bsf:_Decimal__ctor_m1925875020_AdjustorThunk
_gd:_SerializationCallbacks__ctor_m3863304525
OMa:__ZN18ShadowMapJobHeaderD0Ev
P:Math_exp
yog:_Vector3_Min_m1803158933
Lo:FUNCTION_TABLE_iiifi
Utj:__ZN6il2cpp2os5posix13PosixAutoLockD2Ev
uzc:__ZN13BoxCollider2D15InitializeClassEv
SJi:_SymmetricTransform_OFB_m3690147804
zCc:_cff_get_advances
dtb:__ZN13MonoBehaviour9SetScriptERK4PPtrI10MonoScriptE18ScriptingObjectPtr
LAa:__ZNK10FileSystem16LastErrorMessageEv
SIh:_Array_InternalArray__Insert_TisVector3_t3722313464_m3862657277_gshared
fHf:_SecurityException__ctor_m1631242336
S_i:__ZN15dense_hashtableINSt3__24pairIK10KeyWrapperIPK11Il2CppClassEPKcEES6_N6il2cpp5utils11PointerHashIS3_EEN14dense_hash_mapIS6_S9_SE_NS6_14EqualsComparerINS0_8equal_toIS5_EEEENS0_9allocatorISA_EEE9SelectKeyESJ_SL_E14squash_deletedEv
y3c:_EventSystem_Update_m1662072334
e1c:__ZN22UnityWebRequestManager10InitializeEv
usb:__ZN13MonoBehaviour13AwakeFromLoadE17AwakeFromLoadMode
zhb:__ZL26Transfer_SimpleNativeClassI17RemapPPtrTransfer8GradientLb1EEvRK29SerializationCommandArgumentsR31RuntimeSerializationCommandInfo
a3c:_RaycasterManager_RemoveRaycasters_m3057093063
Y_b:__ZN12CachedWriter9InitWriteER15CacheWriterBase
d_b:__Z21UnsignedInt64ToStringy
XXe:_GetRaycastNonAllocCallback_BeginInvoke_m3984885848
FBi:_PatternCompiler_BeginLink_m1295557963
TFa:__ZN14SafeBinaryRead21TransferSTLStyleArrayI13dynamic_arrayI17SortingLayerEntryLj4EEEEvRT_17TransferMetaFlags
vHd:_GuidParser_ThrowFormatException_m3223388534
TEi:_Group_GetAnchorInfo_m3730312864
Hpi:__ZL50Graphic_t1660335611_CustomAttributesCacheGeneratorP21CustomAttributesCache
ghg:_TimeSpan_op_LessThanOrEqual_m300470010
rcf:_Interval_Merge_m3454211016_AdjustorThunk
U1:__ZZN15DirectorManager15InitializeClassEvEN41FixedUpdateDirectorFixedUpdateRegistrator7ForwardEv
$Pd:_MemoryStream_get_Position_m3733941202
nRb:__ZL10KeyHandleriPK23EmscriptenKeyboardEventPv
uWj:_glLinkProgram__wrapper
p9a:__ZN18ScriptingArguments8AddInt64Ex
Ena:__ZN6prcoreL12RemapGenericI17TexFormatARGB888815TexFormatBGR888EEvPKNS_9InnerInfoE
W9a:__ZN12HandlerChain4LockER13FileEntryData12FileLockMode
iBf:_TextInfo_get_ListSeparator_m1628160079
O$e:_Selectable_OnCanvasGroupChanged_m472903475
ceg:_EventWaitHandle_Reset_m3348053200
S_c:__ZN28UnityConnectScriptingClasses23CallSessionStateChangedEixxbP21ScriptingExceptionPtr
noj:__ZN6il2cpp6icalls8mscorlib6System13Globalization11CultureInfo35construct_internal_locale_from_nameEP17Il2CppCultureInfoP12Il2CppString
Hjb:__ZL22Transfer_ManagedObjectI24GenerateTypeTreeTransferLb1EEvRK29SerializationCommandArgumentsR31RuntimeSerializationCommandInfo
BBb:__ZN15RenderNodeQueueC2E10MemLabelId
P8d:_ResourceEnumerator_FillCache_m1661715061
n1h:__ZL72SecuritySafeCriticalAttribute_t3505979402_CustomAttributesCacheGeneratorP21CustomAttributesCache
ck:_emscripten_set_main_loop_timing
mog:_Bounds_get_min_m3755135869
MGd:_Convert_ToUInt16_m3523269149
zja:__ZN14DataBufferGLES12RecordRenderEv
x4c:_ExecuteEvents_get_endDragHandler_m2879610446
zNb:__ZN14ImageReference10FlipImageYEv
bS:__ZN21ScalableBufferManager20GetHeightScaleFactorEv
rdc:__Z14GetDefaultSkini
qt:__ZN4FMOD3DSP9setBypassEb
fRb:__Z19NormalizeWheelInputf
zed:_Graphic_DoMeshGeneration_m3548487693
SCi:_Repetition__ctor_m1672362629
qmc:__Z29Transfer_Blittable_ArrayFieldI8JSONReadhEvRT_R9ArrayInfoRK23StaticTransferFieldInfo
iIf:_SecurityFrame_ToString_m339310712_AdjustorThunk
s3d:_TypeBuilder_create_runtime_class_m2581270900
_oe:_InternalEnumerator_1_get_Current_m3008260692_gshared
$Gj:__ZN6il2cpp2os20ThreadLocalValueImpl8SetValueEPv
WHa:__ZN22RenderingCommandBuffer20CleanupCommandBufferEv
vuf:_Decimal_op_Implicit_m2299919277
fhc:__Z18Transfer_BlittableI9JSONWriteLb1EtEvRK29SerializationCommandArgumentsR31RuntimeSerializationCommandInfo
XSd:_UnexceptionalStreamReader_ReadToEnd_m920589220
Xof:_DateTime_System_IConvertible_ToType_m1242864300
tKf:_String_IndexOf_m1298810678
wk:___syscall85
GBb:__ZNSt3__26__sortIRPFbP10GUIElementS2_EPS2_EEvT0_S7_T_
RYb:__ZN16GraphicsSettings12CleanupClassEv
o_d:_ConstructorBuilder_GetILGenerator_m1750792206
$9f:_EncoderFallback_get_ReplacementFallback_m818398284
Luj:__ZN6il2cpp2os6Thread19DetachCurrentThreadEv
T3c:_EventTrigger_OnBeginDrag_m4203438710
lZi:__ZN6il2cpp2vmL21SetupInterfacesLockedEP11Il2CppClassRKNS_2os12FastAutoLockE
hcb:__ZN11MonoManager23VirtualRedirectTransferER24GenerateTypeTreeTransfer
tqg:_CullingGroup_Dispose_m782801025
sG:__ZN11UnityEngine15CloudWebService14DataDispatcher15SetupWebRequestEv
pYc:__ZN11UnityEngine15PlatformWrapper13GetShaderCapsEv
gJb:__ZNSt3__211__sift_downIR26RenderDeferredObjectSorterP16RenderObjectDataEEvT0_S5_T_NS_15iterator_traitsIS5_E15difference_typeES5_
$0d:_GenericTypeParameterBuilder_IsDefined_m98179866
KNe:_KeyPairPersistence_get_MachinePath_m3812267291
UDd:_Stack_Peek_m2216191248
Kof:_DateTime_System_IConvertible_ToDecimal_m1044850612_AdjustorThunk
zZb:__ZN21FixedBehaviourManager6UpdateEv
Y1b:__ZN9Transform9SetParentEPS_NS_15SetParentOptionE
NU:__ZN19ShaderPropertySheet8SetFloatEN9ShaderLab16FastPropertyNameEfNS_8SetFlagsE
i5a:__ZN19RuntimeSceneManager24BeginIntegrateMainThreadEP10UnityScene
Jvj:__ZNSt3__2plIcNS_11char_traitsIcEENS_9allocatorIcEEEENS_12basic_stringIT_T0_T1_EERKS9_S6_
YRd:_StringReader_CheckObjectDisposedException_m3796163530
K7:__ZN9ShaderLab20SerializedSubProgramaSERKS0_
Mvd:_Byte_System_IConvertible_ToSingle_m324484566_AdjustorThunk
guf:_Decimal_op_Explicit_m2848387298
o4f:_KeyValuePair_2_ToString_m1238786018_gshared
mZi:__ZN6il2cpp2vmL24SetupTypeHierarchyLockedEP11Il2CppClassRKNS_2os12FastAutoLockE
oRb:__ZL11TextHandleriPK23EmscriptenKeyboardEventPv
uPc:_destroy_face
HSj:_glBlendEquationSeparate__wrapper
XDj:__ZN6il2cpp6icalls8mscorlib6System8Security12Cryptography24RNGCryptoServiceProvider13RngInitializeEP11Il2CppArray
gA:__ZN20SoundChannelInstance7setMuteEb
HWd:_NumberFormatter_NumberToString_m3906556024
rob:__Z19TransferField_ArrayI18StreamedBinaryReadILb1EE27Converter_SimpleNativeClassI17AnimationCurveTplIfEEEvRK23StaticTransferFieldInfoR31RuntimeSerializationCommandInfoRT0_
Vzc:__ZN7b2World18SetContactListenerEP17b2ContactListener
Hsc:__ZN14PhysicsQuery2D11LinecastAllERK8Vector2fS2_RKN10Collider2D13ContactFilterEPKS3_bP13dynamic_arrayI12RaycastHit2DLj4EE
cka:__ZN18GfxFramebufferGLES22MakeCurrentFramebufferENS_7BuiltinE
lX:__ZN12CachedReader4ReadEPvj
dDc:_cf2_blues_init
fKe:_SimpleCollator_MatchesForwardCore_m850743967
WFb:__Z24CalculateLightShadowFadeRK6CamerafffR8Vector4f
C_:__ZN19RuntimeSceneManagerD2Ev
Ayf:_CCGregorianCalendar_GetMonth_m1547203696
IH:__ZN11UnityEngine15CloudWebService25WebRequestDownloadHandler17OnCompleteContentEv
Vma:__ZN6prcore17GetIntegerBlitterE13TextureFormatS0_N14ImageReference8BlitModeE
$Bj:_GC_print_block_descr
Muc:__ZN13BoxCollider2DD0Ev
abj:__ZN6il2cpp2gc19AppendOnlyGCHashMapINSt3__24pairIPK11Il2CppImageP11Il2CppClassEEP22Il2CppReflectionModule17ReflectionMapHashIS9_ENS2_8equal_toIS9_EEE11TryGetValueERKS9_PSB_
$Ti:_playerBehavior_turnAround_m3370168518
aZ:__ZNSt3__26__treeI19RepeatingLogMessageNS_4lessIS1_EE13stl_allocatorIS1_L18MemLabelIdentifier73ELi16EEE12__find_equalIS1_EERPNS_16__tree_node_baseIPvEESD_RKT_
RD:__ZN11AudioSource18IsPlayingScriptingEv
CNe:_KeyBuilder_IV_m2230195376
poc:__ZNK12b2WheelJoint10GetAnchorAEv
xRj:_glShaderSource__wrapper
DCa:__ZN25MultiBlocksMemoryFileData17AdjustBlocksCountEj
Flj:__ZNSt3__214__split_bufferIN6il2cpp2vm22EmbeddedResourceRecordERNS_9allocatorIS3_EEED2Ev
bXi:_Physics2D_Internal_Linecast_m4246297633
PNc:__ZN13TextRendering4Font8TransferI24GenerateTypeTreeTransferEEvRT_
_4b:__Z27CullingGroup_CUSTOM_DisposeP12Il2CppObject
nlj:__ZN6il2cpp6icalls8mscorlib6SystemL23CheckWideningConversionEjjj
q$c:__ZNSt3__26vectorIP19BaseConnectSettings13stl_allocatorIS2_L18MemLabelIdentifier6ELi16EEE21__push_back_slow_pathIKS2_EEvRT_
lBb:__ZN13ComputeShader15SetTextureParamEjRKN9ShaderLab16FastPropertyNameE9TextureID16TextureDimension
Em:_glStencilMask
jvj:__ZN6il2cpp2os10ThreadImpl16GetCurrentThreadEv
m6d:_MonoMethod_GetBaseDefinition_m2844667474
hRb:__ZN15GUIEventManager10QueueEventERK10InputEvent
y9d:_DecimalConstantAttribute__ctor_m3583301917
BBj:_GC_push_conditional_with_exclusions
zAe:_Enumerator_System_Collections_IDictionaryEnumerator_get_Entry_m2772123357_AdjustorThunk
Lge:_MethodCallDictionary__ctor_m2167303393
fBj:_GC_make_disappearing_links_disappear
YJj:_strrchr
Vpg:_Component_GetComponentInParent_m779177818
I7c:_UIBehaviour_IsDestroyed_m3033055982
uUg:__Z109RuntimeInvoker_Void_t1185182177_RuntimeObject_RuntimeObject_SByte_t1669577662_Int32_t2950945753_RuntimeObjectPFvvEPK10MethodInfoPvPS4_
JRe:_InputField_get_readOnly_m3111985574
BMa:__ZN14RenderSettings27UpdateIndirectSpecularColorEv
_2a:__ZN14PlayerSettings8TransferI18StreamedBinaryReadILb0EEEEvRT_
e6i:__ZN6il2cpp6icalls8mscorlib6System8MonoType16GetMethodsByNameEP20Il2CppReflectionTypeP12Il2CppStringibS5_
veg:_Monitor_Monitor_wait_m3706677354
pnd:_RijndaelTransform__cctor_m2439033240
Dxb:__ZNSt3__27__sort3IRNS_4lessIN22BuiltinResourceManager8ResourceEEEPS3_EEjT0_S7_S7_T_
kMc:_ps_hints_t2mask
sOf:_Array_InternalArray__ICollection_Remove_TisMonoResource_t4103430009_m238733686_gshared
kMd:_IntPtr_ToString_m1831665121
J0e:_Slider_Set_m1476104429
lgd:_Image_set_fillClockwise_m2210525152
C_a:__ZN10BlendShape8TransferI19StreamedBinaryWriteILb0EEEEvRT_
bMd:__Z21il2cpp_codegen_sizeofP11Il2CppClass
Oqa:__Z19GetTimeSinceStartupv
Lgd:_Image_AddQuad_m2161647989
r7f:_Enumerator_System_Collections_IEnumerator_Reset_m2953002685_gshared
GLc:_TT_Load_Composite_Glyph
UOa:__ZN9ShaderLab11shaderprops9GetTexEnvEPK19ShaderPropertySheetS3_NS_16FastPropertyNameE16TextureDimensionb
oEb:__ZN29RenderNodeQueuePrepareContextC2Ev
Vhj:_il2cpp_gc_disable
W8:__ZN9ShaderLab20SerializedSubProgram16TextureParameter8TransferI24GenerateTypeTreeTransferEEvRT_
kld:_DSASignatureDeformatter_SetKey_m2999549245
vEj:__ZN6il2cpp2os11MutexHandle4WaitEb
nda:__ZN9GfxDevice19SaveStereoConstantsEv
uEj:__ZN6il2cpp2os11MutexHandle4WaitEj
S2b:__ZL34GetComponentsImplementationRecurseILb1ELi1ELi1EEbR10GameObjectbRK17CompareParametersRK39GetComponentsImplementation_ReturnValue
jLg:__Z114RuntimeInvoker_Boolean_t97287965_RuntimeObject_RuntimeObject_Int32_t2950945753_Int32_t2950945753_Int32_t2950945753PFvvEPK10MethodInfoPvPS4_
GZd:_AssemblyBuilder_GetTypes_m3415680380
Ooa:__ZN6prcoreL17RemapGenericFloatI15TexFormatRGHalf18TexFormatARGBFloatEEvPKNS_9InnerInfoE
Jvb:__Z18SimulateMouseInputi
CAb:__ZN13RenderManager23AddRemoveCamerasDelayedEv
kic:__ZN9JSONWrite8TransferI13dynamic_arrayIdLj8EEEEvRT_PKc17TransferMetaFlags
Mfc:__ZN5Unity9rapidjson6WriterI16TempBufferWriterNS0_4UTF8IcEES4_13JSONAllocatorE11WriteUint64Ey
Ltd:_BitConverter__cctor_m3841343255
vtf:_Decimal_Compare_m3062820418
ycf:_IntervalCollection_GetMetaCollection_m4029522214
O3c:_EventTrigger_OnDeselect_m1919608102
OSi:_TextGenerator_get_characterCount_m864136654
igg:_TimeSpan__ctor_m2047388489_AdjustorThunk
kMb:__ZN13RenderTexture8SetWidthEi
ILc:_UNITY_FT_GlyphLoader_CheckSubGlyphs
zGb:__Z25SetupObjectBakedOcclusionbRK15SharedLightDataRK26SharedLightmapSettingsDataRK15LightmapIndicesR17ShaderPassContext
Ykh:_Collection_1_System_Collections_ICollection_CopyTo_m1516601228_gshared
$Wi:_Physics2D_Linecast_m3401140243
VU:__ZN9ShaderLab16FastPropertyName4InitEPKc
sUb:__Z13RegisterClassIN2UI13RectTransformEEvv
jYb:__ZL31MeshRendererTransformChangedJobP13BoundsJobDatajPK23TransformAccessReadOnlyPKyj
Fkc:__ZN8JSONRead21TransferSTLStyleArrayI31ArrayOfManagedObjectsTransfererEEvRT_17TransferMetaFlags
vwd:_Char_System_IConvertible_ToByte_m2347554595_AdjustorThunk
aNa:__ZN13RenderTexture9SetMipMapEb
uLf:_String_CreateString_m860434552
o2:__Z18GetDirectorManagerv
xFe:_Enumerator_System_Collections_IEnumerator_Reset_m278261807_AdjustorThunk
B9b:__Z38Transform_CUSTOM_INTERNAL_get_rotationP12Il2CppObjectP11Quaternionf
odi:__ZL99SceneManager_t2787271929_CustomAttributesCacheGenerator_SceneManager_LoadScene_m2298600132____mode1P21CustomAttributesCache
ZWg:__Z73RuntimeInvoker_Single_t1397266774_Vector2_t2156229523_Vector2_t2156229523PFvvEPK10MethodInfoPvPS4_
Raj:__ZNK15dense_hashtableINSt3__24pairIK10KeyWrapperINS1_IPK10MethodInfoP11Il2CppClassEEEjEES9_17ReflectionMapHashIS8_EN14dense_hash_mapIS9_jSD_NS9_14EqualsComparerINS0_8equal_toIS8_EEEENS0_9allocatorISB_EEE9SelectKeyESI_SK_E5beginEv
eia:__ZN7ApiGLES19UploadBufferSubDataEjN2gl12BufferTargetEllPKv
A4:__ZNSt3__216__rotate_forwardINS_11__wrap_iterIPN4core12basic_stringIcNS2_20StringStorageDefaultIcEEEEEEEET_S9_S9_S9_
iFg:_Vector2_GetHashCode_m3916089713
_Bg:_SendMouseEvents_HitTestLegacyGUI_m579942228
OVd:_MulticastDelegate_Equals_m2502840627
UEf:_SymmetricAlgorithm_set_KeySize_m3805756466
Svd:_Byte_System_IConvertible_ToUInt32_m1049546902_AdjustorThunk
uTg:__Z53RuntimeInvoker_Double_t594665363_Interval_t1802865632PFvvEPK10MethodInfoPvPS4_
Oxb:__Z21InitializeBatchedJobsv
VUi:_CanvasGroup_get_blocksRaycasts_m1805542303
CDf:_SHA1Internal_ProcessBlock_m1991889327
Beb:__Z19TransferField_ArrayI14SafeBinaryRead27Converter_SimpleNativeClassI8GUIStyleEEvRK23StaticTransferFieldInfoR31RuntimeSerializationCommandInfoRT0_
aLh:_Array_Sort_TisRuntimeObject_TisRuntimeObject_m1685639929_gshared
eEj:__ZN6il2cpp5utils10MemoryPoolC2Ev
YLa:__ZN14RenderSettings5ResetEv
WSb:__ZN6Sprite9BindAtlasERK4PPtrI11SpriteAtlasE
Uec:__ZN5Unity9rapidjson12GenericValueINS0_4UTF8IcEE13JSONAllocatorE10FindMemberIS4_EENS0_21GenericMemberIteratorILb0ES3_S4_EERKNS1_IS3_T_EE
Lse:_InternalEnumerator_1_System_Collections_IEnumerator_get_Current_m3892960115_AdjustorThunk
smj:__ZNSt3__212basic_stringIDsNS_11char_traitsIDsEENS_9allocatorIDsEEE6appendEPKDsj
syd:_ArrayList_Clone_m2682741233
Qld:_HMAC_HashCore_m3684104066
sAh:__ZN28GenericInterfaceFuncInvoker2Ii20UIVertex_t4057497605S0_E6InvokeEPK10MethodInfoP12Il2CppObjectS0_S0_
sfc:__ZN5Unity9rapidjson13GenericReaderINS0_4UTF8IcEES3_13JSONAllocatorE11ParseNumberILj1ENS0_25GenericInsituStringStreamIS3_EENS0_15GenericDocumentIS3_S4_S4_EEEEvRT0_RT1_
M$a:__ZN14SpriteRenderer14OnChangeSpriteEv
Vuj:__ZN6il2cpp2os10ThreadImplD2Ev
ppc:__ZN12b2MouseJoint23InitVelocityConstraintsERK12b2SolverData
ngc:__ZN8Gradient8TransferI9JSONWriteEEvRT_
T5a:__ZN21RendererUpdateManager18OncePerFrameUpdateER13RendererScene
xzi:_X509StoreManager_get_LocalMachine_m269504582
_ya:__ZNK12TLSAllocatorI14StackAllocatorE22GetAllocatedMemorySizeEv
eT:__ZN17RemapPPtrTransfer12PushMetaFlagE17TransferMetaFlags
Q0f:_EqualityComparer_1_System_Collections_IEqualityComparer_GetHashCode_m2138064395_gshared
H9a:__ZN12HandlerChain4NameEv
bId:_Int16_System_IConvertible_ToType_m3672347013_AdjustorThunk
GKf:_String_LastIndexOf_m578673845
ogb:__Z29Transfer_Blittable_ArrayFieldI14SafeBinaryReadN4math12int3_storageEEvRT_R9ArrayInfoRK23StaticTransferFieldInfo
UHf:_SecurityException_ToString_m3228070608
NJd:_Int16_ToString_m2013897809
WHf:_String_Substring_m2848979100
TVc:__Z44Register_UnityEngine_CanvasRenderer_get_cullv
wXc:__ZN11UnityEngine7Connect17XRDeviceInfoEvent12XRDeviceInfoD2Ev
Dcb:__Z44InitializeTransferFunctionScriptingTraitsForI17RemapPPtrTransferEvR31TransferFunctionScriptingTraits
$Ub:__ZNSt3__26vectorI16MessageForwarder13stl_allocatorIS1_L18MemLabelIdentifier7ELi8EEE6resizeEj
I8e:_X509Chain_SelectBestFromCollection_m1068759221
VJi:_SymmetricTransform_TransformBlock_m851059707
VQh:__ZL68IntPtr_t_CustomAttributesCacheGenerator_IntPtr_ToPointer_m4157623054P21CustomAttributesCache
Whh:_Enumerator_System_Collections_IEnumerator_Reset_m2261065994_AdjustorThunk
z_e:_ScrollRect_get_verticalNormalizedPosition_m3693218937
g5a:__ZN18LoadSceneOperation21MustCompleteNextFrameEv
L0e:_Slider_UpdateDrag_m1102107039
P6d:_MonoMethodInfo_get_method_info_m88651774
hA:__ZNK12AudioManager16GetAudioListenerEv
_Jd:_Int32_System_IConvertible_ToDateTime_m1824716955
Eid:_RuntimeTypeHandle__ctor_m3315980708_AdjustorThunk
AUi:_Canvas_set_overrideSorting_m4088794420
RLb:__ZNSt3__26vectorI11CameraStackNS_9allocatorIS1_EEE8__appendEj
Fmc:__ZNK11Rigidbody2D20GetAttachedCollidersER13dynamic_arrayIP10Collider2DLj4EE
Lfg:_Scheduler_ShrinkIfNeeded_m820085397
aR:__Z13GetFileSystemv
o$:__ZNK5Unity4Type21FindAllDerivedClassesER13dynamic_arrayIPKS0_Lj4EENS0_17TypeFilterOptionsE
h0:__ZN13RuntimeStaticI15GUIEventManagerLb0EE16StaticInitializeEPv
G0a:__ZN14SafeBinaryRead8TransferIfEEvRT_PKc17TransferMetaFlags
Tsc:__ZNSt3__27__sort5IR24RayHitsByDepthComparitorP12RaycastHit2DEEjT0_S5_S5_S5_S5_T_
tmg:_Version_CompareTo_m3146217210
dqc:__ZN24RigidbodyMovementState2D21ResetAngularMoveStateEv
Q$a:__ZThn32_N14SpriteRenderer15AddAsRenderNodeER15RenderNodeQueueRK20DeprecatedSourceData
oUf:_Array_InternalArray__ICollection_CopyTo_TisKeyValuePair_2_t71524366_m1056941380_gshared
Chg:_Type_get_IsClass_m589177581
Ohg:_Type_get_IsSystemType_m624798880
Xbb:__ZN19ShaderPropertySheet9SetMatrixEN9ShaderLab16FastPropertyNameERK10Matrix4x4fNS_8SetFlagsE
_Sa:__Z29GetTextureSizeAllowedMultiple13TextureFormat
ntf:_Decimal_Subtract_m835601464
nyg:_Quaternion_Internal_ToEulerRad_m1503250752
SZb:__ZN21IntermediateRenderers3AddEP20IntermediateRenderer
ehj:_il2cpp_array_element_size
b8:__ZNSt3__26__treeINS_12__value_typeIN4core12basic_stringIcNS2_20StringStorageDefaultIcEEEEiEENS_19__map_value_compareIS6_S7_NS_4lessIS6_EELb1EEENS_9allocatorIS7_EEE12__find_equalIS6_EERPNS_16__tree_node_baseIPvEENS_21__tree_const_iteratorIS7_PNS_11__tree_nodeIS7_SH_EEiEESK_RKT_
PTd:_MissingMemberException__ctor_m2571045846
CPh:__ZL62ComVisibleAttribute_t1362837655_CustomAttributesCacheGeneratorP21CustomAttributesCache
HAg:_RectTransform_INTERNAL_set_sizeDelta_m188783163
$f:_glCheckFramebufferStatus
BDj:__ZN6il2cpp2os11EventHandle4WaitEv
Zed:_GraphicRaycaster__ctor_m646559428
nAd:_BitArrayEnumerator_get_Current_m4220391712
ZXd:__Z37il2cpp_codegen_get_executing_assemblyPK10MethodInfo
iBg:_Transform_get_parent_m835071599
O4e:_IPAddress_get_ScopeId_m4237202723
WCi:_ExpressionCollection_get_Item_m3510736379
IOh:_Array_InternalArray__get_Item_TisVector3_t3722313464_m2720091419_gshared
H6c:_StandaloneInputModule_get_inputActionsPerSecond_m3946624274
zdg:_UTF8Encoding_InternalGetCharCount_m82458470
yFg:_Vector2__cctor_m2108982652
Doj:__ZN14dense_hash_mapI10KeyWrapperIP14Il2CppIUnknownEjN6il2cpp5utils11PointerHashIS1_EENS3_14EqualsComparerINSt3__28equal_toIS2_EEEENS9_9allocatorINS9_4pairIKS3_jEEEEE15set_deleted_keyERSF_
vdj:__ZN13Il2CppHashMapIPK14Il2CppAssemblyPK22Il2CppMonoAssemblyNameN6il2cpp5utils11PointerHashIS1_EENSt3__28equal_toIS2_EENSA_9allocatorINSA_4pairIK10KeyWrapperIS2_ES5_EEEEEC2EjRKS9_RKSC_
Eqd:_DelegatePInvokeWrapper_AppDomainInitializer_t682969308
dvc:__ZN13BoxCollider2D13PrepareShapesER13dynamic_arrayIP7b2ShapeLj4EERK10Matrix4x4f
hQ:__ZN8Remapper6RemoveEi
Aag:_Encoding_GetBytes_m3148649984
eQc:__ZL36CleanupTextRenderingScriptingClassesv
hMb:__ZN15ReflectionProbe17UseRendererResultEP13ProbeRenderer
Tac:__Z34Mesh_CUSTOM_SetArrayForChannelImplP12Il2CppObject30InternalScriptingShaderChannel34InternalScriptingVertexChannelTypeiP11Il2CppArrayi
$O:__Z32scripting_class_get_nested_types17ScriptingClassPtrRNSt3__26vectorIS_13stl_allocatorIS_L18MemLabelIdentifier1ELi16EEEE
bVi:_CanvasRenderer_INTERNAL_CALL_EnableRectClipping_m3318097918
Rkg:_UInt64_System_IConvertible_ToDecimal_m806594027_AdjustorThunk
uAe:_Enumerator_System_Collections_IEnumerator_get_Current_m361750367_AdjustorThunk
Xie:_RealProxy_InternalGetTransparentProxy_m1765012608
n8g:_List_1__ctor_m3395838871_gshared
bsh:_Collection_1_IsFixedSize_m3698021882_gshared
Exi:_PKCS12__ctor_m1854440921
EKh:_Array_Resize_TisCustomAttributeNamedArgument_t287865710_m885566878_gshared
Ns:__ZN11UnityEngine9Animation28GenericAnimationBindingCache25RegisterIAnimationBindingEPKN5Unity4TypeEiP17IAnimationBinding
XVc:__Z70RectTransformUtility_CUSTOM_INTERNAL_CALL_RectangleContainsScreenPointP12Il2CppObjectRK13Vector2fIcallS0_
QNd:_DirectoryInfo__ctor_m481305441
uNj:dynCall_viiffiii
vZ:__ZN10MemoryPoolC2E10MemLabelIdbPKciii
JKb:__Z40ProcessCameraIndexListIsNodeVisibleInOutRK22SceneCullingParametersPK9SceneNodePK4AABBR9IndexList
QIi:_GUIScrollGroup_SetHorizontal_m291416666
EJa:__ZN16GraphicsSettings8TransferI17RemapPPtrTransferEEvRT_
DTc:__ZN2UI6Canvas13UpdateBatchesEb
E6e:_X509BasicConstraintsExtension_Decode_m120598446
Mji:__ZL64EventType_t3528516131_CustomAttributesCacheGenerator_dragUpdatedP21CustomAttributesCache
RYc:__ZN11UnityEngine7Connect13ConfigHandler12GetListenersERKN4core12basic_stringIcNS2_20StringStorageDefaultIcEEEE
Kea:__ZN9GfxDevice18AllocRenderSurfaceEb
nwd:_Char__cctor_m2787437263
PSb:__ZN10TagManager32GetSortingLayerUniqueIDFromValueEi
W7c:_AspectRatioFitter_get_rectTransform_m2996235303
OO:__ZL27CleanupCoreScriptingClassesv
Wed:_Graphic_UnregisterDirtyMaterialCallback_m2707090617
yze:_Comparer_1_System_Collections_IComparer_Compare_m1313384821_gshared
q7b:__Z26AnimationCurve_CUSTOM_InitP12Il2CppObjectP11Il2CppArray
aVj:_glUniform1uiv__wrapper
grc:__ZNK14b2PolygonShape5CloneEP16b2BlockAllocator
gdj:__ZN6il2cpp2vm10Reflection7IsEventEP12Il2CppObject
BN:__ZN17PersistentManager26GetStreamNameSpaceInternalEi
du:__ZN4FMOD6System11createSoundEPKcjP22FMOD_CREATESOUNDEXINFOPPNS_5SoundE
co:FUNCTION_TABLE_iiifiiii
bCc:__ZN13SpeedTreeWind20AdvanceWithoutUpdateEd
Jof:_DateTime_System_IConvertible_ToDecimal_m1044850612
_Z:__ZN9ShaderLab19CommonPropertyNames13StaticCleanupEPv
BP:__Z31scripting_method_get_returntype18ScriptingMethodPtr
tUa:__ZN15SerializeTraitsI12LightmapDataE8TransferI24GenerateTypeTreeTransferEEvRS0_RT_
pGf:_SecurityElement_AddAttribute_m311510562
zRj:_glStencilOpSeparate__wrapper
b0b:__ZN4Mesh5SetUvEiPKfjj
uVa:__ZN7Texture13SetAnisoLimitENS_20AnisotropicFilteringE
dC:__ZN11AudioModule16SetListenerPauseEb
Btd:_Attribute_IsDefined_m4069052474
Vh:_emscripten_glCompressedTexSubImage2D
ura:__ZN13GfxDeviceGLES22MemoryBarrierImmediateEyN2gl17MemoryBarrierTypeE
apa:__ZN6prcoreL26RemapGenericFloatToIntegerI18TexFormatARGBFloat17TexFormatARGB8888EEvPKNS_9InnerInfoE
Jgh:_List_1_set_Capacity_m1977188119_gshared
M2b:__Z46GetShaderModelNumericValueFromRequirementsMask18ShaderRequirements
PFc:_cff_ps_has_glyph_names
XYf:_Dictionary_2_Resize_m3287623642_gshared
dAj:_GC_write
Lmd:_RC2_Create_m2516417038
Ged:_Graphic_OnPopulateMesh_m767318148
fIe:_Dictionary_2_Remove_m4193450060_gshared
Hfe:_ConstructionCallDictionary__ctor_m2541174073
DJh:_Array_InternalArray__set_Item_TisMark_t3471605523_m1299772331_gshared
Gec:__Z44Register_UnityEngine_GUIStyle_SetDefaultFontv
Amb:__Z18Transfer_BlittableI18StreamedBinaryReadILb1EELb1EiEvRK29SerializationCommandArgumentsR31RuntimeSerializationCommandInfo
pLg:__Z173RuntimeInvoker_Int32_t2950945753_RuntimeObject_Int32_t2950945753_Int32_t2950945753_Int32_t2950945753_RuntimeObject_Int32_t2950945753_SByte_t1669577662_ContextU26_t3937453398PFvvEPK10MethodInfoPvPS4_
hah:_List_1__ctor_m2576108087_gshared
Wbj:__ZN15dense_hashtableINSt3__24pairIK10KeyWrapperINS1_IPK12PropertyInfoP11Il2CppClassEEEjEES9_17ReflectionMapHashIS8_EN14dense_hash_mapIS9_jSD_NS9_14EqualsComparerINS0_8equal_toIS8_EEEENS0_9allocatorISB_EEE9SelectKeyESI_SK_E12maybe_shrinkEv
$mb:__Z18Transfer_BlittableI18StreamedBinaryReadILb1EELb1EsEvRK29SerializationCommandArgumentsR31RuntimeSerializationCommandInfo
Rbg:_StringBuilder_Remove_m940064945
Fkd:_DESCryptoServiceProvider_GenerateIV_m683687014
uwe:_InternalEnumerator_1_get_Current_m3792939945_gshared
$Wc:__ZN22BaseUnityConnectClient17OnEnterStateReadyEv
B1e:_Text_get_fontSize_m1677872538
_kd:_DSACryptoServiceProvider_get_PublicOnly_m3933928860
$ui:_SslStreamBase_get_KeyExchangeStrength_m217695965
THa:__ZN14GrowableBufferD2Ev
E6b:__Z29Input_CUSTOM_GetMouseButtonUpi
E6i:__ZN6il2cpp6icalls8mscorlib6System8MonoType16InternalGetEventEP20Il2CppReflectionTypeP12Il2CppStringi
BGi:_UriScheme_t722425697_marshal_pinvoke_back
HHc:_UNITY_tt_face_load_maxp
S6b:__Z46Input_CUSTOM_INTERNAL_set_compositionCursorPosRK13Vector2fIcall
OKe:_BigInteger_ToString_m3475000413
t0a:__ZN19ShaderPropertySheet11ComputeHashEv
Q0i:__ZN30dense_hashtable_const_iteratorI10KeyWrapperIPK19Il2CppGenericMethodES4_N6il2cpp8metadata23Il2CppGenericMethodHashEN14dense_hash_setIS4_S7_NS4_14EqualsComparerINS6_26Il2CppGenericMethodCompareEEENSt3__29allocatorIS4_EEE8IdentityESB_SE_EppEv
Nrc:__ZN12b2EPCollider24ComputePolygonSeparationEv
rH:__ZN11UnityEngine15CloudWebService20WebRequestRestClient6IsDoneEv
Si:_llvm_fabs_f32
WG:__ZN11UnityEngine15CloudWebService16SessionContainer16GetJsonDataBlockEjRKN4core12basic_stringIcNS2_20StringStorageDefaultIcEEEERS6_PjSA_
jMe:_ASN1_Decode_m1695284166
sXi:_Physics2D_get_gravity_m3148949717
Uwf:_Enum_ToString_m3248653065
RN:__ZN14SafeBinaryReadD2Ev
lUb:__Z13RegisterClassI7TextureEvv
y7f:_Enumerator_MoveNext_m3859993671_gshared
pob:__ZN8Gradient8TransferI18StreamedBinaryReadILb1EEEEvRT_
paf:_Capture__ctor_m3103117740
wXa:__ZN4core8hash_mapINS_12basic_stringIcNS_20StringStorageDefaultIcEEEE13dynamic_arrayI4PPtrI6SpriteELj4EENS_4hashIS4_EENSt3__28equal_toIS4_EEEixERKS4_
nKg:__Z113RuntimeInvoker_Void_t1185182177_RuntimeObject_Int64_t3736567304_RuntimeObject_Int64_t3736567304_Int64_t3736567304PFvvEPK10MethodInfoPvPS4_
Ofc:__ZN5Unity9rapidjson8internal6Grisu2EdPcPiS3_
Lyg:_RangeInt_get_end_m4128831787_AdjustorThunk
$nj:__ZN6il2cpp6icalls8mscorlib6System4Type15MakeGenericTypeEP20Il2CppReflectionTypeP11Il2CppArray
sj:_SDL_PauseAudio
bCd:_Hashtable_Clone_m3078962909
Bhj:_il2cpp_class_from_type
X7i:__ZN6il2cpp2os4File11GetStdErrorEv
ZZ:__ZN9ShaderLab19CommonPropertyNames16StaticInitializeEPv
vs:__ZN7mecanim9animation18CreateAvatarOutputEPKNS0_14AvatarConstantEbbRNS_6memory9AllocatorE
Grd:_Array_GetLongLength_m561139708
r0e:_Slider_set_maxValue_m2251404465
$z:__ZN11AudioSource23VirtualRedirectTransferER24GenerateTypeTreeTransfer
N$b:__ZN7Texture11SetWrapModeE15TextureWrapMode
TXa:__ZN14Texture2DArray23VirtualRedirectTransferER14SafeBinaryRead
STd:_MissingMemberException__ctor_m1220732369
RFb:__ZNK6Camera21CalculateCanDoShadowsEv
gng:_Application_InvokeOnBeforeRender_m2875673833
Euj:__ZN6il2cpp2os6Thread12SetStackSizeEj
QWe:_MaskableGraphic_RecalculateMasking_m183336762
_Nh:_Array_InternalArray__get_Item_TisRuntimeObject_m3347010206_gshared
I3d:_TypeBuilder_IsSubclassOf_m3458909121
pN:__Z13VFormatBufferPciPKcz
vpb:__Z18Transfer_BlittableI18StreamedBinaryReadILb0EELb1EhEvRK29SerializationCommandArgumentsR31RuntimeSerializationCommandInfo
lod:_X509Certificate__cctor_m198658613
Cxg:_PlayableHandle_Equals_m1666612586_AdjustorThunk
epa:__ZN6prcoreL27StretchGenericFloatBilinearI15TexFormatRFloatEEvPKNS_9InnerInfoE
S6h:__ZL139ServicePointManager_t170559685_CustomAttributesCacheGenerator_ServicePointManager_t170559685____CheckCertificateRevocationList_PropertyInfoP21CustomAttributesCache
exf:_Enum_ToObject_m1628250250
PRd:_StreamWriter_LowLevelWrite_m1081676583
hma:__Z14PadImageBorderR14ImageReferenceii
waj:__ZN15dense_hashtableINSt3__24pairIK10KeyWrapperINS1_IPK10MethodInfoP11Il2CppClassEEEjEES9_17ReflectionMapHashIS8_EN14dense_hash_mapIS9_jSD_NS9_14EqualsComparerINS0_8equal_toIS8_EEEENS0_9allocatorISB_EEE9SelectKeyESI_SK_E4findERSA_
$3i:__ZN6il2cpp2vm13MetadataCache28GetFieldDefaultValueForFieldEPK9FieldInfo
HRf:_Array_IndexOf_TisUIVertex_t4057497605_m3336763564_gshared
had:_ColorBlock_Equals_m518833916_AdjustorThunk
Ffi:__ZL66PersistentCall_t3407714124_CustomAttributesCacheGenerator_m_TargetP21CustomAttributesCache
kw:__ZN12AudioManager39HandlePendingAudioConfigurationCallbackEv
pk:_emscripten_glIsFramebuffer
SOe:_RSAManaged_EncryptValue_m799827583
WR:__ZN12_GLOBAL__N_16qAtan2Eff
tk:_JS_Sound_SetLoopPoints
N0:__ZN15dense_hashtableINSt3__24pairIKyP17VertexDeclarationEEy14GfxGenericHashIyEN14GfxDoubleCacheIyS4_S7_NS0_8equal_toIyEEN31GfxDoubleCacheConcurrencyPolicy11LocklessGetE42GfxDoubleCacheDefaultEmptyDeletedGeneratorIyEE9SelectKeyESA_13stl_allocatorIS5_L18MemLabelIdentifier24ELi16EEE14squash_deletedEv
pB:__ZN12AudioManager17ShouldSourcePauseEb
FEj:__ZN6il2cpp2vm26MetadataAllocGenericMethodEv
DOf:_Array_InternalArray__ICollection_Remove_TisUInt16_t2177724958_m1766181761_gshared
fva:__ZN19ConstantBuffersGLES12RecordRenderEv
dic:__ZN9JSONWrite8TransferI10RectOffsetEEvRT_PKc17TransferMetaFlags
Ola:__ZN4crnd12symbol_codec11decode_bitsEj
hsc:__ZN15b2CircleContact8EvaluateEP10b2ManifoldRK11b2TransformS4_
mKi:_AesManaged_GenerateIV_m1368817386
LId:_NumberFormatter_FastIntegerToString_m390846811
ow:__ZN4FMOD6System12createReverbEPPNS_6ReverbE
hyj:__ZN6il2cpp2vm6String21InitializeEmptyStringEP11Il2CppClass
o7a:__Z16MarkDependenciesR27GarbageCollectorThreadStatej
oIh:_ObjectPool_1_get_countInactive_m526975942_gshared
Oie:_RemotingServices_DisposeIdentity_m2605848806
gS:__ZNK9Transform11GetPositionEv
iog:_Bounds_set_size_m4127623202
tHd:_GuidParser_Reset_m2640004655
HKa:__ZN23SharedMeshRenderingData18UnloadVertexStreamEi
RZb:__ZN31CanvasBatchIntermediateRenderer11AddSubBatchERK16DrawBuffersRangePK19ShaderPropertySheet
wYb:__ZN19RenderEventsContextC2Ei
fF:__Z6simd4fRKf
Xk:_emscripten_glEnable
Hqe:_InternalEnumerator_1_System_Collections_IEnumerator_get_Current_m2982675020_gshared
OFa:__ZN10TagManager23VirtualRedirectTransferER14SafeBinaryRead
dri:__ZL51RawImage_t3182918964_CustomAttributesCacheGeneratorP21CustomAttributesCache
AIb:__Z15InitLightMeshesv
z5d:_MonoCMethod_ToString_m3992577062
Hn:FUNCTION_TABLE_iifiii
pVa:__ZN15QualitySettings8TransferI19StreamedBinaryWriteILb0EEEEvRT_
dBf:_SortKey_GetHashCode_m3547067087
ZVe:_LayoutUtility_U3CGetFlexibleHeightU3Em__7_m2991026842
lDc:_cf2_arrstack_init
hOh:_Array_InternalArray__get_Item_TisResourceCacheItem_t51292791_m1306056717_gshared
IYg:__Z157RuntimeInvoker_Void_t1185182177_RuntimeObject_RuntimeObject_RuntimeObject_RuntimeObject_RuntimeObject_RuntimeObject_RuntimeObject_RuntimeObject_RuntimeObjectPFvvEPK10MethodInfoPvPS4_
fL:__Z15CleanLogHandler7LogTypePKcz
uWd:_NumberFormatter_NumberToString_m2481532188
D9:__ZN9ShaderLab19SerializedSubShader8TransferI19StreamedBinaryWriteILb0EEEEvRT_
C_e:_ScrollRect_InternalGetBounds_m599803667
Qsb:__ZN6Camera17RemoveImageFilterERK11ImageFilter
iba:__ZNSt3__218__insertion_sort_3IR25ValueParameterArraySorterPN20GpuProgramParameters14ValueParameterEEEvT0_S6_T_
dwc:__ZN10ClipperLib7Clipper27ProcessEdgesAtTopOfScanbeamEx
G6h:__ZL67EditorBrowsableAttribute_t1475454531_CustomAttributesCacheGeneratorP21CustomAttributesCache
gBd:_Comparer__cctor_m3311686689
jqe:_InternalEnumerator_1_get_Current_m3500427238_AdjustorThunk
jUc:__ZN2UI26InitializeDeviceForOverlayEi
_Y:__Z27LogRepeatingStringWithFlagsRKN4core12basic_stringIcNS_20StringStorageDefaultIcEEEE15LogMessageFlagsi
alg:_UInt64_System_IConvertible_ToSingle_m925613075
fxf:_Enum_IsDefined_m1442314461
Neg:_Thread__cctor_m817723615
gRi:_AudioExtensionManager_RegisterBuiltinDefinitions_m2742744104
H9f:_DecoderReplacementFallbackBuffer_Fallback_m1261056214
BYd:_Binder_get_DefaultBinder_m950908649
gOd:_StreamReader__ctor_m1616861391
KZc:__ZN18UnityConnectClient33OnPlayerSessionStateChangedStaticEPS_jyy
LCf:_RSA_ToXmlString_m2922661427
bI:__ZNK11UnityEngine15CloudWebService23WebRequestUploadHandler11GetProgressEv
Oia:__ZN7ApiGLES4LoadE16GfxDeviceLevelGL
GUa:__ZN18StreamedBinaryReadILb0EE21TransferSTLStyleArrayI13dynamic_arrayI31EnlightenSystemAtlasInformationLj8EEEEvRT_17TransferMetaFlags
mef:_ASN1_Add_m2431139999
rrj:__ZN15dense_hashtableI10KeyWrapperIP18Il2CppGenericClassES3_N6il2cpp8metadata22Il2CppGenericClassHashEN14dense_hash_setIS3_S6_NS3_14EqualsComparerINS5_25Il2CppGenericClassCompareEEENSt3__29allocatorIS3_EEE8IdentityESA_SD_E15insert_noresizeERKS3_
DXb:__ZZL31RegisterOtherRendererPropertiesR22GenericPropertyBindingEN30Wrapper_RendererReceiveShadows13GetFloatValueEPv
_Mf:_Array_InternalArray__ICollection_Contains_TisSlot_t384495010_m688761886_gshared
ZSa:__ZN17SharedTextureDataC2E10MemLabelIdii13TextureFormatjiibb
w_g:__Z114RuntimeInvoker_RuntimeObject_RuntimeObject_Int32_t2950945753_Int32_t2950945753_Int32_t2950945753_Int32_t2950945753PFvvEPK10MethodInfoPvPS4_
Xvb:__ZN8Material11SetPassFastEPN9ShaderLab4PassER17ShaderPassContextP6Shaderib
IZc:__ZN11UnityEngine7Connect20BasePersistentValues10SaveValuesER9JSONWrite
iph:_Collection_1_IsFixedSize_m3748602684_gshared
Lof:_DateTime_System_IConvertible_ToDouble_m2116720007
krg:_Display_GetSystemExtImpl_m2808197389
$fg:_WaitHandle_WaitOne_m2577152516
Xnd:_X509Certificate_PEM_m1177570576
Qle:_ArrayReadOnlyList_1_GetEnumerator_m1835926958_gshared
Ssc:__ZNSt3__27__sort4IR24RayHitsByDepthComparitorP12RaycastHit2DEEjT0_S5_S5_S5_T_
n0:__ZN22VirtualJoystickManagerC2Ev
P$:__ZN20GlobalCachingManager7DisposeEv
PCb:__Z12SetupLODFadeR9GfxDeviceR17ShaderPassContextf
Tqc:__ZN26b2PolygonAndCapsuleContact6CreateEP9b2FixtureiS1_iP16b2BlockAllocator
nIb:__ZL24CollectForwardObjectsJobP27CollectForwardObjectsHeader
iKb:__Z13IsNodeVisibleRK9SceneNodeRK4AABBRK22SceneCullingParameters
jSf:_Array_InternalArray__IndexOf_TisLabelFixup_t858502054_m1491765395_gshared
BJe:_SortKeyBuffer_AppendCJKExtension_m2591091991
ZVc:__Z57RectTransformUtility_CUSTOM_INTERNAL_CALL_PixelAdjustRectP12Il2CppObjectS0_R5RectTIfE
tdg:_UTF8Encoding_GetByteCount_m4153686982
iLb:__Z24ScheduleCullingAllGroupsR8JobFenceRK22SceneCullingParametersiRK13CullingOutputRK13dynamic_arrayIP12CullingGroupLj4EERKS_
YWj:_emscripten_glStencilMask__wrapper
cJg:__Z49RuntimeInvoker_Void_t1185182177_Double_t594665363PFvvEPK10MethodInfoPvPS4_
G0i:__ZN15dense_hashtableI10KeyWrapperIPK19Il2CppGenericMethodES4_N6il2cpp8metadata23Il2CppGenericMethodHashEN14dense_hash_setIS4_S7_NS4_14EqualsComparerINS6_26Il2CppGenericMethodCompareEEENSt3__29allocatorIS4_EEE8IdentityESB_SE_EC2ERKSH_j
NHa:__ZN15RenderNodeQueue7CleanupEv
i7d:_MonoProperty_CreateGetterDelegate_m2478402519
mBc:__ZN16NovodexAllocator8allocateEjPKcS1_i
NPa:__ZN39DeprecatedFastPropertyNameSerialization8TransferI14SafeBinaryReadEEvRT_
Sxi:_DeriveBytes_DeriveIV_m973925711
jKd:_Int32_System_IConvertible_ToSByte_m3133688512
kIb:__ZN9ShaderLab10GrabPassesD2Ev
L_e:_ScrollRect_CalculateOffset_m927043599
cYa:__ZN14Texture2DArray13UploadTextureEv
AWe:_MaskableGraphic_UpdateCull_m2805101913
oIc:_tt_cmap14_done
j5a:__ZN18AwakeFromLoadQueue25RegisterObjectInstanceIDsEv
AOc:__ZN20TextRenderingPrivate19NativeTextGenerator15InsertCharacterEiPj
Pnc:__ZN11b2RopeJoint24SolveVelocityConstraintsERK12b2SolverData
TUd:_MonoType_get_attributes_m1332507727
dIi:_GUIContent_ClearStaticCache_m1205116045
wHf:_WindowsIdentity_Dispose_m3466258450
Vje:_BinaryCommon__cctor_m2978407547
twd:_Char_System_IConvertible_ToByte_m2347554595
hQc:__ZN20TextRenderingPrivate15DynamicFontData21GetFontMetricsForFaceERK13dynamic_arrayIN4core17string_with_labelILi35EEELj4EEiRKS1_I4PPtrIN13TextRendering4FontEELj4EEPfSF_
YGh:_IndexedSet_1__ctor_m2250384602_gshared
Ejg:_UInt16_TryParse_m4139137016
rwj:__ZN6il2cpp2gc16GarbageCollector9FreeFixedEPv
nag:_Encoding__ctor_m2997749867
tug:_ManagedStreamHelpers_ManagedStreamSeek_m3158782053
NEi:_ExpressionAssertion_Compile_m2166597834
hsb:__ZN16ScriptingManagerD0Ev
JIf:_Single_System_IConvertible_ToSByte_m1208276900_AdjustorThunk
_yj:__ZN6il2cpp6icalls8mscorlib6System7Convert24InternalFromBase64StringEP12Il2CppStringb
Xpj:__ZN30dense_hashtable_const_iteratorINSt3__24pairIK10KeyWrapperINS1_IPKcS4_EEEiEES6_24NamespaceAndNamePairHashN14dense_hash_mapIS6_iS9_NS6_14EqualsComparerI26NamespaceAndNamePairEqualsEENS0_9allocatorIS8_EEE9SelectKeyESD_SF_EppEv
X4b:__Z44Register_UnityEngine_Component_get_transformv
B5b:__Z39GameObject_CUSTOM_FindGameObjectWithTagP12Il2CppString
wVi:_CanvasRenderer_get_absoluteDepth_m2703237819
mBf:_TextInfo_ToLower_m2744057472
Tyb:__ZN17ArchiveFileSystem12MountArchiveEPKcS1_
k2f:_EqualityComparer_1_System_Collections_IEqualityComparer_Equals_m3977314386_gshared
ihc:__Z18Transfer_BlittableI9JSONWriteLb1E8Vector4fEvRK29SerializationCommandArgumentsR31RuntimeSerializationCommandInfo
Dn:FUNCTION_TABLE_viififiii
tyf:_CCGregorianCalendar_year_from_fixed_m463929682
pSc:__ZN2UI13CanvasManagerD0Ev
LL:__ZThn32_NK8Renderer14GetSubsetIndexEi
Iqg:_Debug_get_unityLogger_m2239795986
jff:_MD2Managed_Initialize_m2341076836
Rxh:_ReadOnlyCollection_1_System_Collections_IList_Add_m4240023232_gshared
Dfa:__ZN9GfxDevice15ImmediateVertexEfff
VTb:__Z13RegisterClassI8MaterialEvv
RTa:__ZNK16LightmapSettings22GetTypeVirtualInternalEv
HLh:_Array_Sort_TisUIVertex_t4057497605_TisUIVertex_t4057497605_m4243853890_gshared
Vca:__ZN13GfxDeviceGLES15SetStencilStateEPK18DeviceStencilStatei
hvd:_Buffer_BlockCopyInternal_m418318694
bJj:_cycle
Qyj:__ZN6il2cpp2vm8Profiler7GCEventE13Il2CppGCEvent
PKg:__Z76RuntimeInvoker_Void_t1185182177_RuntimeObject_RuntimeFieldHandle_t1871169219PFvvEPK10MethodInfoPvPS4_
Id:_emscripten_glUniform1iv
jfg:_Thread_get_ManagedThreadId_m1068113671
wqc:__ZN15b2DistanceProxy3SetEPK7b2Shapei
bbb:__ZN16MemoryFileSystemD2Ev
eLg:__Z150RuntimeInvoker_Int32_t2950945753_RuntimeObject_Int32_t2950945753_Int32_t2950945753_RuntimeObject_Int32_t2950945753_Int32_t2950945753_Int32_t2950945753PFvvEPK10MethodInfoPvPS4_
Otd:_BitConverter_DoubleToInt64Bits_m3574395137
U2a:__ZN12AspectRatios8TransferI24GenerateTypeTreeTransferEEvRT_
mah:_List_1_System_Collections_IList_Add_m1540114404_gshared
F4b:__Z37Register_UnityEngine_Camera_get_depthv
ZRd:_StringReader_Read_m3322058819
Ybe:_CrossAppDomainChannel_get_ChannelPriority_m3418073750
wTe:_Selectable_StartColorTween_m3618813981
F2c:_BaseInputModule_HandlePointerExitAndEnter_m1705532066
GQb:__Z23ConvertIntegerToTypePtrItEbPvR14SafeBinaryRead
Tuf:_Delegate_CombineImpl_m3572135514
VId:_NumberFormatter_IntegerToString_m1679294587
hvh:_ReadOnlyCollection_1_System_Collections_IList_RemoveAt_m422909114_gshared
Zd:_emscripten_glStencilFunc
r6c:__Z46il2cpp_codegen_get_marshal_directive_exceptionPKc
$Qe:_InputField_get_isFocused_m709836844
ee:_glGetActiveUniformBlockName
Pf:_emscripten_glUniform1fv
j7b:__Z39Quaternion_CUSTOM_INTERNAL_CALL_InverseRK11QuaternionfRS_
b7a:__ZN27UnloadUnusedAssetsOperationD0Ev
jx:__ZN4FMOD7Channel20set3DConeOrientationEP11FMOD_VECTOR
un:FUNCTION_TABLE_iiifii
FZd:_AssemblyBuilder_not_supported_m1735277432
xtj:__ZN6il2cpp2vm12GenericClass11SetupEventsEP11Il2CppClass
mLc:_tt_delta_interpolate
MIc:_tt_cmap12_get_info
fpj:__ZN6il2cpp2vm15ReboxIReferenceEP14Il2CppIUnknownP11Il2CppClass
WXi:__ZN6il2cpp6icalls8mscorlib6System7Decimal14decimalCompareEP19il2cpp_decimal_reprS5_
eIe:_Dictionary_2_OnDeserialization_m4209543208_gshared
vzj:__ZThn4_N6il2cpp2vm13CachedCCWBaseINS0_13ManagedObjectEE7ReleaseEv
htg:_GameObject_AddComponent_m136524825
n_h:__ZL62SoapMethodAttribute_t1935009310_CustomAttributesCacheGeneratorP21CustomAttributesCache
JTg:__Z100RuntimeInvoker_Void_t1185182177_RuntimeObject_Int32_t2950945753_Int32_t2950945753_UInt16_t2177724958PFvvEPK10MethodInfoPvPS4_
$Tj:_glCopyTexImage2D__wrapper
$zc:__ZN16PhysicsManager2D11CreateWorldERK8Vector2f
Zvf:_Double_System_IConvertible_ToUInt32_m271206838
PX:__GLOBAL__sub_I_runtime_graphics_billboard_0_cpp
gwb:__Z18ClearByDrawingQuad13GfxClearFlagsRK10ColorRGBAffjR17ShaderPassContext
Doa:__ZN6prcoreL17RemapGenericFloatI14TexFormatRHalf15TexFormatRFloatEEvPKNS_9InnerInfoE
sEc:_cf2_getBlueValues
ECb:__Z16ShouldUseShadowsb
k2:__ZN15DirectorManager21RebuildStageCallbacksEv
twb:__ZN19RuntimeSceneManager9LoadSceneERKN4core12basic_stringIcNS0_20StringStorageDefaultIcEEEES6_S6_RK9UnityGUIDiNS_11LoadingModeE
Vha:__ZN7ApiGLES10DrawArraysE16GfxPrimitiveTypejjj
Gu:__ZN10SampleClip13LoadBaseSoundEv
npd:_SmallXmlParser_SkipWhitespaces_m4243606597
hzf:_CompareInfo_IndexOf_m2631915198
l_d:_ConstructorBuilder_GetCustomAttributes_m2495332786
Y3c:_TriggerEvent__ctor_m87299207
nE:__Z57AudioSource_CUSTOM_INTERNAL_CALL_ClearExtensionPropertiesP12Il2CppObjectRK12PropertyName
Lsj:__ZN15dense_hashtableINSt3__24pairIK10KeyWrapperIP12Il2CppObjectEN6il2cpp2gc9CachedCCWEEES5_NS7_5utils11PointerHashIS3_EEN14dense_hash_mapIS5_S9_SD_NS5_14EqualsComparerINS0_8equal_toIS4_EEEENS0_9allocatorISA_EEE9SelectKeyESI_SK_E15insert_noresizeERKSA_
Fuc:__ZN18PlatformEffector2D8TransferI24GenerateTypeTreeTransferEEvRT_
X0:__ZL50StaticRegisterSceneLoadedCallback_LightmapSettingsPv
RQa:__ZN22DeviceMVPMatricesStateC2ER9GfxDevice
dn:FUNCTION_TABLE_iifii
wAd:_Comparer_Compare_m3984347512
YTa:__ZN21EnlightenSceneMapping8TransferI14SafeBinaryReadEEvRT_
vfj:__ZN6il2cpp2vm10Reflection12HasAttributeEP9FieldInfoP11Il2CppClass
bAa:__ZNSt3__26__treeIiNS_4lessIiEE13stl_allocatorIiL18MemLabelIdentifier1ELi16EEE7destroyEPNS_11__tree_nodeIiPvEE
lc:invoke_viiifi
h7d:_MonoProperty_GetCustomAttributes_m3619796755
Qge:_MethodDictionary_System_Collections_IEnumerable_GetEnumerator_m4169036899
cAa:__ZNK11AssetBundle14GetPreloadDataEiR13dynamic_arrayIiLj4EE
lCf:_RIPEMD160Managed_JJJ_m4161373884
xZf:_DefaultComparer_Equals_m3257444875_gshared
of:_JS_Sound_SetPosition
SMa:__ZN19RenderBufferManager13GetTempBufferEii17DepthBufferFormat19RenderTextureFormatj22RenderTextureReadWrite14VRTextureUsagei23RenderTextureMemoryless
B3i:__ZL13GetSharedInstPK17Il2CppGenericInst
hXc:__ZN22BaseUnityConnectClient17SaveSessionValuesEv
moe:_InternalEnumerator_1_get_Current_m476140818_gshared
qIb:__Z24SetupActiveLightsContextR21ActiveLightingContextRK12ActiveLightsRK11CullResultsP14ShadowMapCacheRK10MinMaxAABB
A8b:__Z38Sprite_CUSTOM_INTERNAL_get_textureRectP12Il2CppObjectP5RectTIfE
hej:__ZNK15dense_hashtableINSt3__24pairIK10KeyWrapperIPK22Il2CppGenericParameterEPK24MonoGenericParameterInfoEES6_N6il2cpp5utils11PointerHashIS4_EEN14dense_hash_mapIS6_SA_SF_NS6_14EqualsComparerINS0_8equal_toIS5_EEEENS0_9allocatorISB_EEE9SelectKeyESK_SM_E3endEv
J2b:__ZN9TextAsset7SetTextERKN4core12basic_stringIcNS0_20StringStorageDefaultIcEEEE
LGa:__ZN6Camera8TransferI24GenerateTypeTreeTransferEEvRT_
Ja:invoke_iiiiiiif
Fa:invoke_iiiiiiii
XIh:_Array_InternalArray__set_Item_TisByte_t1134296376_m3104140039_gshared
Xzg:_Rect_ToString_m447614148
uyi:_PKCS12_GetBytes_m415958948
ILb:__ZN8Renderer17PendingAddToSceneEv
TXj:b122
WXj:b125
VXj:b124
YXj:b127
XXj:b126
_Xj:b129
N7b:__Z52Register_UnityEngine_RectTransform_INTERNAL_get_rectv
Gvg:_Mesh_SetSizedArrayForChannel_m2565120436
AO:__Z21PostprocessStacktracePKcRN4core12basic_stringIcNS1_20StringStorageDefaultIcEEEE
uug:_ManagedStreamHelpers_ManagedStreamLength_m2930872960
e3a:__ZN18StreamedBinaryReadILb0EE21TransferSTLStyleArrayI13dynamic_arrayI16SplashScreenLogoLj4EEEEvRT_17TransferMetaFlags
exi:_BasicConstraintsExtension_Encode_m2009213240
Q4b:__Z47Register_UnityEngine_Camera_get_allCamerasCountv
s9c:___clang_call_terminate
Fs:__ZN16MecanimAnimation25RegisterIAnimationBindingEPKN5Unity4TypeEiP17IAnimationBinding
g0b:__ZNSt3__26vectorIj13stl_allocatorIjL18MemLabelIdentifier1ELi16EEE6assignIPKtEENS_9enable_ifIXaasr21__is_forward_iteratorIT_EE5valuesr16is_constructibleIjNS_15iterator_traitsIS9_E9referenceEEE5valueEvE4typeES9_S9_
jkc:__ZL26Transfer_SimpleNativeClassI8JSONRead10RectOffsetLb0EEvRK29SerializationCommandArgumentsR31RuntimeSerializationCommandInfo
dAb:__ZN12InputManager13InputEndFrameEv
Roc:__ZN15b2RevoluteJointC2EPK18b2RevoluteJointDef
Vvg:_Object_get_name_m4211327027
Ckj:__ZN6il2cpp2vm6Thread5SetupEP12Il2CppThread
YBe:_Enumerator_System_Collections_IDictionaryEnumerator_get_Key_m2500634048_gshared
eKj:___munmap
fg:_localtime_r
jBb:__ZN22RenderingCommandBuffer13GetAndCheckRTE24BuiltinRenderTextureTypeRKN9ShaderLab16FastPropertyNameEPKcPP13RenderTexture
M0:__ZN14GfxDoubleCacheIyP17VertexDeclaration14GfxGenericHashIyENSt3__28equal_toIyEEN31GfxDoubleCacheConcurrencyPolicy11LocklessGetE42GfxDoubleCacheDefaultEmptyDeletedGeneratorIyEEC2Ev
WK:__Z19free_alloc_internalPv10MemLabelId
Vcg:_UTF32Decoder_GetChars_m1925558948
ig:_strftime
ata:__ZN7Texture33SetStoredColorSpaceNoDirtyNoApplyE17TextureColorSpace
g9d:_ResourceSet__ctor_m3618395942
Vsf:_Decimal_System_IConvertible_ToDouble_m3125524987_AdjustorThunk
AR:__ZN12FileAccessorD2Ev
UKa:__ZN14VertexDataInfoC2Ev
bwj:__ZN6il2cpp2gc16GarbageCollector14CollectALittleEv
f_b:__ZNK9HPlayable15GetPlayableTypeEv
Onb:__ZL17Transfer_GUIStyleI18StreamedBinaryReadILb1EELb1EEvRK29SerializationCommandArgumentsR31RuntimeSerializationCommandInfo
MXe:_RectMask2D_IsRaycastLocationValid_m1652308696
u6i:__ZN6il2cpp6icalls8mscorlib6SystemL9IsPrivateEPK12PropertyInfo
MAg:_RectTransform_add_reapplyDrivenProperties_m1374850920
XZ:__ZN9shadertag10InitializeEv
RCb:__ZN13BatchRenderer20RenderSingleWithPassER17ShaderPassContextPK18SharedMaterialDataP6ShaderPN9ShaderLab4PassEiPKNS7_10GrabPassesEjib15BatchBreakCause
mVa:__ZN15QualitySettings14QualitySetting8TransferI24GenerateTypeTreeTransferEEvRT_
tac:__Z44Register_UnityEngine_Object_DestroyImmediatev
zGd:_Convert_ToSingle_m835189399
e$b:__ZN22BlockMemoryCacheWriter14LockCacheBlockEjPPhS1_
Ukc:__Z22TransferField_NonArrayI8JSONRead27Converter_SimpleNativeClassI8GUIStyleEEvRK23StaticTransferFieldInfoR31RuntimeSerializationCommandInfoRT0_
Pg:_llvm_eh_typeid_for
MTb:__Z13RegisterClassI10GameObjectEvv
yge:_RemotingServices_FindInterfaceMethod_m2125212568
GRd:_StreamWriter__cctor_m1229272693
Qwf:_Enum_System_IConvertible_ToSByte_m779472798
Dhg:_Type_get_IsInterface_m3284996719
aqb:__Z18Transfer_BlittableI18StreamedBinaryReadILb0EELb1E8Vector4fEvRK29SerializationCommandArgumentsR31RuntimeSerializationCommandInfo
iZf:_Dictionary_2_U3CCopyToU3Em__0_m2023886030_gshared
yWj:_glBindVertexArray__wrapper
Ghd:_SerializationInfo__ctor_m2923079689
sPa:__ZN8Material8TransferI14SafeBinaryReadEEvRT_
zRa:__ZN12CubemapArray17UploadToGfxDeviceEv
yId:_Int32_JumpOverWhite_m208298144
avi:_X509CertificateCollection_get_Item_m3285563224
h2g:__Z53RuntimeInvoker_Int32_t2950945753_UIVertex_t4057497605PFvvEPK10MethodInfoPvPS4_
zVj:_emscripten_glGetUniformiv__wrapper
ozj:__ZN6il2cpp2vm13ManagedObject14QueryInterfaceERK10Il2CppGuidPPv
cv:__ZN11AudioSource4StopEb
Ifb:__ZN14SafeBinaryRead21TransferSTLStyleArrayI13dynamic_arrayI10Matrix4x4fLj4EEEEvRT_17TransferMetaFlags
xHa:__ZN15LODGroupManager26CollectAllLODGroupManagersERK16CoreCameraValuesR13dynamic_arrayIPS_Lj4EEb
Cva:__ZN18GlslGpuProgramGLESD2Ev
YNb:__ZN13RenderTexture14SetVolumeDepthEi
yG:__ZN11UnityEngine15CloudWebService14DataErrorEvent12ToJsonStringERN4core12basic_stringIcNS2_20StringStorageDefaultIcEEEEjPKc
$Sg:__Z86RuntimeInvoker_Void_t1185182177_UInt16_t2177724958_SByte_t1669577662_SByte_t1669577662PFvvEPK10MethodInfoPvPS4_
Yaa:__Z22LoadGpuProgramFromDataPKhS0_Rj
ylc:__ZN10Matrix4x4f8TransferI8JSONReadEEvRT_
wNc:__ZN14SafeBinaryRead21TransferSTLStyleArrayI13dynamic_arrayIN4core17string_with_labelILi35EEELj4EEEEvRT_17TransferMetaFlags
wXe:_PositionAsUV1_ModifyMesh_m4231919476
BBd:_Hashtable__ctor_m1941859523
k_e:_ScrollRect_set_horizontalScrollbarSpacing_m2209919081
TM:__ZN17PersistentManager18ReadObjectThreadedEi
rsa:__ZN25TransformFeedbackSkinning31CleanupTransformFeedbackShadersEv
lHa:__Z22scripting_object_unbox18ScriptingObjectPtr
COc:__ZNK20TextRenderingPrivate8FontImpl19GetCharacterAdvanceEjijfPj
RTf:_Array_InternalArray__ICollection_Add_TisUriScheme_t722425697_m3142345403_gshared
EIj:_fmt_u
$Wa:__ZN10VertexData8TransferI18StreamedBinaryReadILb0EEEEvRT_
FHj:__ZN6il2cpp8metadata25Il2CppGenericClassCompare7CompareEPK18Il2CppGenericClassS4_
uVd:_MonoType_get_Assembly_m4290914179
Sba:__ZN9ShaderLab7ProgramC2E10MemLabelIdi10ShaderType
iOb:__ZN14PreloadManager16UpdatePreloadingEv
JKf:_String_LastIndexOf_m95398196
UJh:_Array_InternalArray__set_Item_TisUILineInfo_t4195266810_m2313892078_gshared
qxg:_PlayableAsset__ctor_m2395156306
VJ:__ZNK21UnityDefaultAllocatorI17LowLevelAllocatorE8ContainsEPKv
Gid:_RuntimeTypeHandle_Equals_m2857439487
Zh:_emscripten_get_main_loop_timing
Hae:_SafeHandle_Finalize_m3866180675
lVa:__ZN24GenerateTypeTreeTransfer21TransferSTLStyleArrayINSt3__26vectorIN15QualitySettings14QualitySettingENS1_9allocatorIS4_EEEEEEvRT_17TransferMetaFlags
jQd:_MemoryStream_ToArray_m3911744835
xBe:_Enumerator_System_Collections_IDictionaryEnumerator_get_Entry_m859540448_AdjustorThunk
eig:_Type_GetHashCode_m1947148725
WOg:__Z91RuntimeInvoker_Void_t1185182177_RuntimeObject_RuntimeObject_RuntimeObject_SByte_t1669577662PFvvEPK10MethodInfoPvPS4_
p8a:__ZNK2UI13RectTransform22GetTypeVirtualInternalEv
op:getTempRet0
Z2c:_BaseRaycaster_OnEnable_m2678466030
JAe:_Enumerator_get_CurrentKey_m627428048_AdjustorThunk
vsg:_UnityEventBase__ctor_m1851535676
SLh:_Array_Sort_TisVector4_t3319028937_m2797285308_gshared
aTd:_UnexceptionalStreamWriter_Write_m1834931241
_lj:__ZN6il2cpp6icalls8mscorlib6System9ThreadingL21lookup_cached_cultureEP12Il2CppThreadi
zDj:__ZN6il2cpp2os11EventHandleD2Ev
Srg:_NetFxCoreExtensions_CreateDelegate_m751211712
hJb:__ZN18DeferredRenderLoopD2Ev
_Vi:_AnimationLayerMixerPlayable__cctor_m4086299972
MS:__ZNK16TypeTreeIterator4NameEv
_Q:__ZN15FileSystemEntry3SetEPKc
e_d:_ConstructorBuilder_Invoke_m3010446651
T4e:_IPv6Address_set_ScopeId_m3907190992
fsh:_ReadOnlyCollection_1_System_Collections_Generic_IListU3CTU3E_Insert_m568455025_gshared
Uw:__ZN20SoundChannelInstance15ParameterBuffer5ApplyEPN4FMOD7ChannelE
H4e:_IPv6Address__ctor_m4117281080
zOc:__ZN20TextRenderingPrivate19NativeTextGenerator9InsertTabEv
VMj:_sbrk
DYg:__Z66RuntimeInvoker_Boolean_t97287965_Vector2_t2156229523_RuntimeObjectPFvvEPK10MethodInfoPvPS4_
J7f:_Enumerator_VerifyState_m3474272061_AdjustorThunk
Ji:_glIsEnabled
KZd:_DerivedType__ctor_m1853298054
xeb:__Z25scripting_class_get_image17ScriptingClassPtr
vAd:_CaseInsensitiveComparer_Compare_m1224120810
u9f:_List_1_RemoveAt_m2730968292_gshared
N4a:__ZNSt3__26vectorIN4core12basic_stringIcNS1_20StringStorageDefaultIcEEEE13stl_allocatorIS5_L18MemLabelIdentifier13ELi16EEEC2INS_11__wrap_iterIPS5_EEEET_SE_RKS8_PNS_9enable_ifIXaasr21__is_forward_iteratorISE_EE5valuesr16is_constructibleIS5_NS_15iterator_traitsISE_E9referenceEEE5valueEvE4typeE
Ni:_emscripten_glDrawElementsInstanced
KUe:_LayoutGroup_get_preferredWidth_m3816902260
$Ia:__ZN18JobBatchDispatcherD2Ev
k8a:__ZN9Transform17MainThreadCleanupEv
fCj:_GC_clear_hdr_marks
uXj:_emscripten_glCreateShader__wrapper
JCc:_cff_fd_select_get
s1e:_Text_set_resizeTextForBestFit_m4095249125
Q6e:_OidEnumerator_MoveNext_m3138911739
Yi:_emscripten_glGetShaderiv
Ux:__ZN4FMOD6System10getVersionEPj
KRc:__ZN2UI6Canvas23VirtualRedirectTransferER24GenerateTypeTreeTransfer
iPj:dynCall_viiiififfi
B$e:_Selectable_set_animationTriggers_m2970345687
ajc:__ZN9JSONWrite8TransferIN4math12int2_storageEEEvRT_PKc17TransferMetaFlags
iNc:__ZN13TextRendering4Font13AwakeFromLoadE17AwakeFromLoadMode
nzf:_CompareInfo_LastIndexOf_m2688553706
hea:__ZN9GfxDevice21ReleaseSharedMeshDataEP14SharedMeshData
P5c:_MouseState__ctor_m1467839005
ZFi:_Uri_IsDomainAddress_m2867513594
W1a:__ZNSt3__27__sort5IRNS_6__lessINS_4pairIPKN5Unity4TypeE7Hash128EES8_EEPS8_EEjT0_SC_SC_SC_SC_T_
Rcd:_Dropdown_CreateItem_m2954407740
mBj:_GC_unreachable_finalize_mark_proc
l8e:_X509Chain_ProcessCrlExtensions_m236234529
KCj:_maybe_finalize
C_i:__ZN6il2cpp2vm5Class40GetInterfaceInvokeDataFromVTableSlowPathEPK12Il2CppObjectPK11Il2CppClassj
iSf:_Array_InternalArray__IndexOf_TisLabelData_t360167391_m1826525656_gshared
F7b:__Z43RectTransform_CUSTOM_INTERNAL_get_anchorMaxP12Il2CppObjectP13Vector2fIcall
JSi:_TextGenerator_INTERNAL_CALL_Populate_Internal_cpp_m4171649399
$ce:_RemotingConfiguration_RegisterChannelTemplate_m3105688054
ITa:__ZN8Material28UpdateHashesOnPropertyChangeEN9ShaderLab16FastPropertyNameE
tWh:__ZL56MethodBuilder_t2807316753_CustomAttributesCacheGeneratorP21CustomAttributesCache
t8b:__Z53Register_UnityEngine_SortingLayer_GetLayerValueFromIDv
pdb:__Z18Transfer_BlittableI14SafeBinaryReadLb1E8Vector4fEvRK29SerializationCommandArgumentsR31RuntimeSerializationCommandInfo
dA:__ZN11AudioSource12AddToManagerEv
aqj:__ZN6il2cpp2vm5Image13ClassFromNameEPK11Il2CppImagePKcS6_
zNj:dynCall_vdddddd
H8:__ZN24GenerateTypeTreeTransfer21TransferSTLStyleArrayINSt3__26vectorIN9ShaderLab14SerializedPassENS1_9allocatorIS4_EEEEEEvRT_17TransferMetaFlags
v_:__ZL32MarkLevelGameManagerDependenciesR27GarbageCollectorThreadState
Fga:__ZNK13GfxDeviceGLES26HasActiveRandomWriteTargetEv
skj:__GLOBAL__sub_I_Thread_cpp
YSh:__ZL54_MemberInfo_t3922476713_CustomAttributesCacheGeneratorP21CustomAttributesCache
oSj:_glGetActiveUniformsiv__wrapper
q8b:__Z43Register_UnityEngine_Material_EnableKeywordv
Zvg:_Mesh_GetIndices_m2873123901
lO:__ZN13MonoBehaviour19SetupScriptingCacheE17ScriptingClassPtrP10MonoScript
pWg:__Z106RuntimeInvoker_Void_t1185182177_Single_t1397266774_Single_t1397266774_Single_t1397266774_Int32_t2950945753PFvvEPK10MethodInfoPvPS4_
AN:__ZN17PersistentManager29ReadAndActivateObjectThreadedEiRK26SerializedObjectIdentifierP14SerializedFilebb
D5c:_PointerEventData_get_dragging_m746831934
Qxh:_ReadOnlyCollection_1_System_Collections_IEnumerable_GetEnumerator_m2781605075_gshared
_1:__ZZN15DirectorManager15InitializeClassEvEN52PreLateUpdateDirectorUpdateAnimationBeginRegistrator7ForwardEv
AMf:_Array_get_swapper_TisCustomAttributeNamedArgument_t287865710_m4254011335_gshared
Ved:_Graphic_RegisterDirtyMaterialCallback_m106898453
iIi:_GUILayoutEntry_get_margin_m3174861737
Z7:__ZNSt3__26vectorIN9ShaderLab14SerializedPassENS_9allocatorIS2_EEE8__appendEj
i7:__ZNSt3__26vectorIN9ShaderLab20SerializedSubProgram13BufferBindingENS_9allocatorIS3_EEEC2INS_11__wrap_iterIPS3_EEEET_SB_RKS5_PNS_9enable_ifIXaasr21__is_forward_iteratorISB_EE5valuesr16is_constructibleIS3_NS_15iterator_traitsISB_E9referenceEEE5valueEvE4typeE
Sag:_Encoding_get_ISOLatin1_m2107621369
Ypc:__ZNK16PhysicsManager2D21GetAutoSyncTransformsEv
Mdf:_BigInteger_op_Inequality_m2697143438
woc:__ZN12b2WheelJoint24SolveVelocityConstraintsERK12b2SolverData
pTa:__ZN9Texture2D23VirtualRedirectTransferER18StreamedBinaryReadILb0EE
bxc:__ZN10Collider2D8TransferI24GenerateTypeTreeTransferEEvRT_
Mof:_DateTime_System_IConvertible_ToDouble_m2116720007_AdjustorThunk
lAd:_BitArrayEnumerator__ctor_m2359341397
W5f:_Enumerator_MoveNext_m1177880931_gshared
chi:__ZL73g_UnityEngine_TextRenderingModule_Assembly_CustomAttributesCacheGeneratorP21CustomAttributesCache
IP:__ZN16ScriptingManager27NativeTypeForScriptingClassE17ScriptingClassPtr
Okg:_UInt64_System_IConvertible_ToDateTime_m3434604642
Nhg:_Type_get_IsSerializable_m1040556850
xHc:_get_sfnt_table
CKb:__ZL22ScheduleSceneNodesJobsP25ScheduleSceneNodesJobDataj
Ok:_emscripten_set_canvas_size
Zdd:_Graphic_SetVerticesDirty_m2124914069
qzf:_CultureInfo__ctor_m3285927757
zWe:_MaskableGraphic_get_rootCanvasRect_m3492154629
MKh:_Array_Resize_TisRaycastResult_t3360306849_m1811054291_gshared
D7:__ZNSt3__26vectorIN9ShaderLab20SerializedSubProgramENS_9allocatorIS2_EEE8__appendEj
DK:__ZN20DynamicHeapAllocatorI17LowLevelAllocatorE8AllocateEji
GJi:_Locale_GetText_m2427493201
wDb:__ZN20DynamicPropertySheet15SetVectorQueuedERKN9ShaderLab16FastPropertyNameERK8Vector4fN19ShaderPropertySheet8SetFlagsE
$Ka:__ZN31CanvasBatchIntermediateRendererD0Ev
_La:__ZN14RenderSettings23VirtualRedirectTransferER19StreamedBinaryWriteILb0EE
zhc:__ZL26Transfer_SimpleNativeClassI9JSONWrite10RectOffsetLb0EEvRK29SerializationCommandArgumentsR31RuntimeSerializationCommandInfo
GBj:_GC_push_conditional
Ika:__ZN17GenericDynamicVBO10AllocateVBEjR21DynamicVBOChunkHandle
jsf:_DBNull_ToString_m3638608738
drj:__ZN30dense_hashtable_const_iteratorI10KeyWrapperIP18Il2CppGenericClassES3_N6il2cpp8metadata22Il2CppGenericClassHashEN14dense_hash_setIS3_S6_NS3_14EqualsComparerINS5_25Il2CppGenericClassCompareEEENSt3__29allocatorIS3_EEE8IdentityESA_SD_EppEv
iAd:_BitArray_Clone_m3537018332
rke:_ObjectRecord_UnchainFixup_m3191243952
Bwi:_TlsStream_get_CanWrite_m16389328
ml:_glMapBufferRange
hTa:__ZN9Texture2D8TransferI18StreamedBinaryReadILb0EEEEvRT_
D6b:__Z31Input_CUSTOM_GetMouseButtonDowni
TZb:__Z29AddCanvasIntermediateRendererPN2UI6CanvasEPNS_13CanvasBuffersEP17VertexDeclarationjRK10Matrix4x4ftRK4AABB4PPtrI8MaterialEi17ShadowCastingModebP6Camerab
KBb:__ZNK9Transform16GetLocalPositionEv
xVd:_MonoType_get_BaseType_m1098640416
wza:__ZN13LoadOperation19IntegrateTimeSlicedEi
Uwi:_TlsStream_Read_m3392972801
Qga:__ZN13GfxDeviceGLES22DispatchComputeProgramE12ObjectHandleI18ComputeProgram_TagPvE15ComputeBufferIDj
zbg:_Latin1Encoding_GetString_m254210343
r6a:__Z17TransformAABBSlowRK4AABBRK10Matrix4x4fRS_
Fsd:_Array_combsort_m4052486289
JWa:__ZN15SerializeTraitsI13dynamic_arrayI12SpriteVertexLj4EEE19ResizeSTLStyleArrayERS2_i
_5:__ZN9ShaderLab21SerializedShaderState8TransferI14SafeBinaryReadEEvRT_
Fxf:_Environment_GetWindowsFolderPath_m1738399646
KDc:_cf2_stack_pushInt
lQc:__ZNSt3__26__treeINS_12__value_typeIN20TextRenderingPrivate7FontRefEP11FT_FaceRec_EENS_19__map_value_compareIS3_S6_NS_4lessIS3_EELb1EEENS_9allocatorIS6_EEE7destroyEPNS_11__tree_nodeIS6_PvEE
Z4d:_Module_GetCustomAttributes_m76573271
bkd:_CryptoConfig_EncodeOID_m2635914623
J8:__ZN15SerializeTraitsINSt3__24pairIN4core12basic_stringIcNS2_20StringStorageDefaultIcEEEES6_EEE8TransferI24GenerateTypeTreeTransferEEvRS7_RT_
IUj:b89
HUj:b88
fUj:b81
eUj:b80
mta:__ZN7ApiGLES19CreateSparseTextureEjj14GraphicsFormatiiiiRiS1_S1_
qQ:__ZN18ResourceImageGroup7CleanupEv
vUj:b85
uUj:b84
GUj:b87
Dhe:_RemotingSurrogateSelector_GetSurrogate_m3900875713
XIf:_Single_IsNaN_m4024467661
jhf:_CertificateValidationCallback_Invoke_m1014111289
T_i:__ZN15dense_hashtableINSt3__24pairIK10KeyWrapperIPK11Il2CppClassEPKcEES6_N6il2cpp5utils11PointerHashIS3_EEN14dense_hash_mapIS6_S9_SE_NS6_14EqualsComparerINS0_8equal_toIS5_EEEENS0_9allocatorISA_EEE9SelectKeyESJ_SL_EC2ERKSO_j
$l:_glDeleteShader
Loa:__ZN6prcoreL17RemapGenericFloatI15TexFormatRGHalf16TexFormatRGFloatEEvPKNS_9InnerInfoE
DLh:_Array_Sort_TisUICharInfo_t75501106_m128665067_gshared
bGc:_otv_GSUB_validate
mDf:_RSAPKCS1SignatureDeformatter_SetHashAlgorithm_m1602190713
Iwf:_Enum_System_IConvertible_ToByte_m1219166845
XHe:_Dictionary_2_CopyToCheck_m45332585_gshared
P2b:__Z27scripting_add_internal_callPKcPKv
Pej:__ZN13Il2CppHashMapINSt3__24pairIPK9EventInfoP11Il2CppClassEEj17ReflectionMapHashIS7_ENS0_8equal_toIS7_EENS0_9allocatorINS1_IK10KeyWrapperIS7_EjEEEEEC2EjRKS9_RKSB_
Vrj:__GLOBAL__sub_I_GarbageCollector_cpp
FBe:_Enumerator_MoveNext_m1556953412_AdjustorThunk
EWc:__Z44Register_UnityEngine_Canvas_get_pixelPerfectv
hXb:__ZN12CubemapArrayC2E10MemLabelId18ObjectCreationMode
VTc:__ZN2UI14CanvasRenderer12SyncMaterialENS0_8SyncFlagE
SRd:_StreamWriter_Write_m1660535366
EFj:__ZN6il2cpp2vm9Parameter30GetDefaultParameterValueObjectEPK10MethodInfoPK13ParameterInfoPb
sdg:_UTF8Encoding_GetByteCount_m4152118078
_Ne:_KeyPairPersistence__CanSecure_m3516574278
FPg:__Z95RuntimeInvoker_Void_t1185182177_RuntimeObject_RuntimeObject_Int32_t2950945753_SByte_t1669577662PFvvEPK10MethodInfoPvPS4_
Bmd:_MD5CryptoServiceProvider_Dispose_m3502499818
Fmh:_Collection_1_System_Collections_IList_get_Item_m2422562729_gshared
kIc:_UNITY_tt_face_done_kern
Ule:_ArrayReadOnlyList_1_RemoveAt_m2104218585_gshared
_Za:__ZN12BoneWeights48TransferI24GenerateTypeTreeTransferEEvRT_
jvb:__Z19scripting_gc_enablev
ove:_InternalEnumerator_1_get_Current_m2907722321_gshared
kzb:__ZZ23InitPlayerLoopCallbacksvEN41InitializationPlayerUpdateTimeRegistrator7ForwardEv
z2b:__ZN11UTF16StringC2ERKS_10MemLabelId
zwe:_InternalEnumerator_1_get_Current_m3792939945_AdjustorThunk
FVc:__Z55Register_UnityEngine_CanvasRenderer_DisableRectClippingv
zZa:__ZN14SafeBinaryRead21TransferSTLStyleArrayI13dynamic_arrayI11ColorRGBA32Lj4EEEEvRT_17TransferMetaFlags
kjb:__ZL26Transfer_SimpleNativeClassI24GenerateTypeTreeTransfer8GradientLb0EEvRK29SerializationCommandArgumentsR31RuntimeSerializationCommandInfo
Vpe:_InternalEnumerator_1_System_Collections_IEnumerator_get_Current_m888718134_gshared
zLg:__Z175RuntimeInvoker_Void_t1185182177_SByte_t1669577662_SByte_t1669577662_SByte_t1669577662_SByte_t1669577662_SByte_t1669577662_SByte_t1669577662_SByte_t1669577662_SByte_t1669577662PFvvEPK10MethodInfoPvPS4_
Nwg:_Object_Destroy_m3118546832
Cpf:_DateTime_FromTicks_m4059645178_AdjustorThunk
ade:_ConfigHandler_ParseTime_m1787834288
Jaa:__ZN9ShaderLab7Program27CreateFromSerializedProgramERKNS_17SerializedProgramE10ShaderTypeiP16PropertyNamesSetPK6Shader
XXd:_Assembly_Load_m3487507613
pLa:__ZNSt3__27__sort4IRNS_6__lessIN4core12basic_stringIcNS2_20StringStorageDefaultIcEEEES6_EEPS6_EEjT0_SA_SA_SA_T_
eOj:dynCall_viiiifii
rdj:__ZN6il2cpp2gc19AppendOnlyGCHashMapINSt3__24pairIPK11Il2CppImageP11Il2CppClassEEP22Il2CppReflectionModule17ReflectionMapHashIS9_ENS2_8equal_toIS9_EEEC2Ev
QM:__Z20GetPersistentManagerv
ALc:_UNITY_TT_Set_Var_Design
lY:__ZN21SystemInfoStringCache16StaticInitializeEPv
gsh:_ReadOnlyCollection_1_System_Collections_Generic_ICollectionU3CTU3E_Remove_m1100818788_gshared
c7:__ZNSt3__26vectorIN9ShaderLab20SerializedSubProgram15StructParameterENS_9allocatorIS3_EEE6assignIPS3_EENS_9enable_ifIXaasr21__is_forward_iteratorIT_EE5valuesr16is_constructibleIS3_NS_15iterator_traitsISA_E9referenceEEE5valueEvE4typeESA_SA_
prh:_Collection_1_IsSynchronized_m2291009199_gshared
ysb:__ZNK13MonoBehaviour7GetNameEv
u7a:__ZN19ScriptingInvocation28AdjustArgumentsToMatchMethodEv
dHh:_IndexedSet_1_Contains_m1525966688_gshared
Fu:__Z15_CheckFMODError11FMOD_RESULTPKciS1_
klj:__ZN6il2cpp6icalls8mscorlib6SystemL16ThrowInvalidCastEPK11Il2CppClassS5_
_Ja:__Z20RenderMultipleMeshesRK15RenderNodeQueueRK18RenderMultipleData17ShaderChannelMask
e$c:__ZN11UnityEngine15PlatformWrapper20GetPlayerPrefsStringERKN4core12basic_stringIcNS1_20StringStorageDefaultIcEEEES5_
vWe:_MaskableGraphic_get_maskable_m1260382606
Vag:_Latin1Encoding__ctor_m498920120
Bgj:__ZN6il2cpp2vm4Type19GetGenericParameterEPK10Il2CppType
qRd:_StreamReader_Peek_m2272511193
wqf:_DateTimeFormatInfo_FillAllDateTimePatterns_m2683124783
eVc:__Z51Register_UnityEngine_CanvasGroup_get_blocksRaycastsv
qWd:_NumberFormatter_get_IsFloatingSource_m3714711779
tig:_Type_GetConstructor_m1195697116
xd:_glBeginQuery
mVh:__ZL104RegionInfo_t1090270226_CustomAttributesCacheGenerator_RegionInfo_t1090270226____DisplayName_PropertyInfoP21CustomAttributesCache
izc:__ZN10Effector2D25CheckEffectorColliderMaskEP10Collider2DS1_
LAb:__ZN6Camera12RenderStereoENS_10RenderFlagE8CullFlagPNS_24PerformEyeRenderFunctionE
yab:__ZN20LocalFileSystemPosix10ToAbsoluteEPKc
PJa:__ZN20TierGraphicsSettings8TransferI19StreamedBinaryWriteILb0EEEEvRT_
HXj:b111
SX:__GLOBAL__sub_I_runtime_input_0_cpp
Gyj:__ZN6il2cpp2vm13ComObjectBase16DisconnectObjectEj
Gm:f0
CJj:_getcwd
Pqc:__ZN16b2CapsuleContact6CreateEP9b2FixtureiS1_iP16b2BlockAllocator
Hya:__ZN25ThreadsafeLinearAllocatorD2Ev
k2b:__ZL50GetAndClearChangedTransformsForMultilpleSystemsJobP45GetChangedTransformsForMultipleSystemsJobDatajPK23TransformAccessReadOnlyPKyj
I5a:__Z21SendMessageToEveryoneRK17MessageIdentifier11MessageData
G0:__ZN21BillboardBatchManager16StaticInitializeEPv
tof:_DateTime_AbsoluteDays_m4235097773
yZ:__ZN12_GLOBAL__N_138ArchiveRedirectFileSystemStaticDestroyEPv
LGg:__Z74RuntimeInvoker_RuntimeObject_RuntimeObject_RuntimeObject_SByte_t1669577662PFvvEPK10MethodInfoPvPS4_
Sbd:_DefaultControls_CreateScrollView_m3842770629
wRa:__ZN12CubemapArray34UpdateFileTextureUploadInstructionEP26FileAssetUploadInstructionj
lta:__Z23CreateSparseTextureGLES9TextureIDii14GraphicsFormati
JGc:_otv_Anchor_validate
EBf:_Guid_CompareTo_m243656946_AdjustorThunk
pyf:_CCMath_mod_m3631663509
Xgg:_TimeSpan_Negate_m1889505500_AdjustorThunk
Dvh:_ReadOnlyCollection_1_System_Collections_ICollection_CopyTo_m2715087453_gshared
hPc:__ZNSt3__23mapIN20TextRenderingPrivate7FontRefEP11FT_FaceRec_NS_4lessIS2_EENS_9allocatorINS_4pairIKS2_S4_EEEEEixERS9_
bBa:__ZN17ArchiveFileSystem10AddStorageEP20ArchiveStorageReader
wnc:__ZNK12b2MotorJoint16GetReactionForceEf
Ghj:_il2cpp_class_get_assemblyname
eZi:__ZN6il2cpp2vm5Class15GetEnumBaseTypeEP11Il2CppClass
vkf:_Context_set_WriteSequenceNumber_m942577065
ae:_glVertexAttrib4fv
Zyj:__ZNK6il2cpp5utils13VmStringUtils23CaseInsensitiveComparerclERKNSt3__212basic_stringIcNS3_11char_traitsIcEENS3_9allocatorIcEEEEPKc
_8c:_CanvasScaler_SetScaleFactor_m3006968999
j6g:__Z78RuntimeInvoker_Boolean_t97287965_Navigation_t3049316579_Navigation_t3049316579PFvvEPK10MethodInfoPvPS4_
ySa:__ZNK9Texture2D16GetNpotTexelSizeEv
mWd:_NumberFormatter_Init_m3576155222
zAa:__ZL33FileEntryInfoListToFolderContentsRKN4core12basic_stringIcNS_20StringStorageDefaultIcEEEERK19dynamic_block_arrayI13FileEntryInfoLj32EERNSt3__23setIS3_NSB_4lessIS3_EENSB_9allocatorIS3_EEEE
Lyd:_ArrayListWrapper_IndexOf_m3692065720
Xda:__ZN9GfxDevice22GetDefaultVertexBufferE26GfxDefaultVertexBufferTypej
eNf:_Array_InternalArray__ICollection_Contains_TisInt64_t3736567304_m2911357929_gshared
Smh:_Collection_1_Remove_m3022471627_gshared
UJj:___fseeko_unlocked
WWd:_Object_ToString_m1740002499
MJj:_sscanf
E4c:_ExecuteEvents_GetEventChain_m2404658789
iwb:__Z17BeginSplashScreenv
QKh:_Array_Resize_TisUILineInfo_t4195266810_m3763058392_gshared
xjd:_SByte_ToString_m3584531119_AdjustorThunk
A9:__ZN9ShaderLab16SerializedShader8TransferI19StreamedBinaryWriteILb0EEEEvRT_
ss:__ZN7mecanim9animation18CreateAvatarMemoryEPKNS0_14AvatarConstantERNS_6memory9AllocatorE
kdf:_ModulusRing__ctor_m2420310199
XEd:_Convert_ToDateTime_m626620011
_Be:_Enumerator_System_Collections_IDictionaryEnumerator_get_Key_m2500634048_AdjustorThunk
kjj:__ZN14dense_hash_mapI10KeyWrapperIP11Il2CppClassES2_N6il2cpp8metadata16SZArrayClassHashENS3_14EqualsComparerINS5_19SZArrayClassCompareEEENSt3__29allocatorINSA_4pairIKS3_S2_EEEEE15set_deleted_keyERSD_
qka:__ZN18GfxFramebufferGLES18GetFramebufferNameERK20GfxRenderTargetSetup
_Bj:_GC_print_block_list
Qfj:__ZN6il2cpp2vm14TypeNameParser12ParseVersionERKNSt3__212basic_stringIcNS2_11char_traitsIcEENS2_9allocatorIcEEEERtSB_SB_SB_
YSe:_InputField_MoveDown_m1455948167
Ndc:__Z30Event_Get_Custom_PropCharacterP12Il2CppObject
t2:__ZN13PlayableGraph27SchedulePlayableDestructionERK9HPlayable
UFc:_cff_get_mm_var
qRj:_glGetFramebufferAttachmentParameteriv__wrapper
Obe:_ChannelServices_GetCurrentChannelInfo_m3041604116
w$c:__Z13RegisterClassI20UnityConnectSettingsEvv
ueb:__Z22scripting_array_length17ScriptingArrayPtr
cSd:_SynchronizedReader_Peek_m148942882
tKg:__Z95RuntimeInvoker_Void_t1185182177_RuntimeObject_Int32_t2950945753_Int32_t2950945753_RuntimeObjectPFvvEPK10MethodInfoPvPS4_
JRa:__ZN14SafeBinaryRead20TransferTypelessDataEjPvi
N$a:__ZN14SpriteRenderer18UpdateCachedSpriteEb
yB:__ZN13dynamic_arrayI12SoundChannelLj4EE9push_backERKS0_
cV:__Z19GetActiveColorSpacev
MHc:_UNITY_tt_face_load_kern
t5d:_MonoMethodInfo_GetDeclaringType_m2924452727
uxb:__ZN13sorted_vectorINSt3__24pairIiN17InstancingBatcher12PropertyTypeEEEN10vector_mapIiS3_NS0_4lessIiEE13stl_allocatorIS4_L18MemLabelIdentifier1ELi16EEE13value_compareESA_E21sort_clear_duplicatesEv
FP:__Z6StrCmpPKcS0_
GJd:_NumberFormatter_AppendIntegerString_m2257376141
Rba:__Z21CheckGpuProgramUsable20ShaderGpuProgramType
GVb:__ZN13ProduceHelperI14Texture2DArrayLb0EE7ProduceE10MemLabelId18ObjectCreationMode
Gvj:__ZN6il2cpp2os9Directory20GetFileSystemEntriesERKNSt3__212basic_stringIcNS2_11char_traitsIcEENS2_9allocatorIcEEEESA_iiPi
prd:_Array_System_Collections_IList_Add_m1063688101
_qi:__ZL66Navigation_t3049316579_CustomAttributesCacheGenerator_m_SelectOnUpP21CustomAttributesCache
rOc:__ZN20TextRenderingPrivate19NativeTextGenerator5SetupEv
RHb:__ZNK15SharedLightData24GetFinalShadowResolutionEv
b3a:__ZN12AspectRatios8TransferI18StreamedBinaryReadILb0EEEEvRT_
JZb:__ZN10GameObject14CopyPropertiesERS_
Bec:__Z44Register_UnityEngine_GUIStyle_get_fixedWidthv
cOf:_Array_InternalArray__ICollection_Remove_TisLink_t544317964_m1280781374_gshared
Mtd:_BitConverter_DoubleWordsAreSwapped_m1474345095
qYg:__Z114RuntimeInvoker_Int32_t2950945753_Vector2_t2156229523_Vector2_t2156229523_ContactFilter2D_t3805203441_RuntimeObjectPFvvEPK10MethodInfoPvPS4_
$Va:__ZNK13ScreenManager12IsFullScreenEv
czd:_FixedSizeArrayListWrapper_set_Capacity_m4221053039
nKj:_rand
URj:_emscripten_glFramebufferRenderbuffer__wrapper
s0b:__ZN13MeshScripting10CreateMeshE21ScriptingObjectOfTypeI4MeshE
pyg:_Quaternion_INTERNAL_CALL_Internal_ToEulerRad_m1913372122
qfb:__ZN14SafeBinaryRead21TransferSTLStyleArrayINSt3__26vectorI17AnimationCurveTplIfE13stl_allocatorIS4_L18MemLabelIdentifier1ELi16EEEEEEvRT_17TransferMetaFlags
Hzd:_SynchronizedArrayListWrapper_Contains_m3809499313
pOf:_Array_InternalArray__ICollection_Remove_TisLabelData_t360167391_m3556246844_gshared
$ld:_HMACSHA256__ctor_m346174875
wpg:_Color_op_Multiply_m2887457390
lKb:__Z22PrepareOptimizedPlanesPK5PlaneiPKN4math7_float4E
rJ:__ZN11UnityEngine15CloudWebService17WebFileDownloaderINS0_20WebRequestRestClientENS0_23WebRequestRestHeaderMapEE10InitializeERKN4core12basic_stringIcNS5_20StringStorageDefaultIcEEEE
E0:__ZN17UniqueIDGenerator15CreatePureIndexEv
nr:__ZN11UnityEngine9Animation28GenericAnimationBindingCache15DidReloadDomainEv
T3a:__ZNSt3__26vectorIN15ResourceManager10DependencyE13stl_allocatorIS2_L18MemLabelIdentifier52ELi16EEE6assignINS_11__wrap_iterIPS2_EEEENS_9enable_ifIXaasr21__is_forward_iteratorIT_EE5valuesr16is_constructibleIS2_NS_15iterator_traitsISC_E9referenceEEE5valueEvE4typeESC_SC_
tYi:__ZN15dense_hashtableINSt3__24pairIK10KeyWrapperIPK22Il2CppGenericParameterEP11Il2CppClassEES6_N6il2cpp5utils11PointerHashIS4_EEN14dense_hash_mapIS6_S9_SE_NS6_14EqualsComparerINS0_8equal_toIS5_EEEENS0_9allocatorISA_EEE9SelectKeyESJ_SL_E14squash_deletedEv
HOa:__ZN9ShaderLabL27GetDesiredRenderTextureDescEPK6Camera
$ue:_InternalEnumerator_1_get_Current_m1523142935_AdjustorThunk
lpc:__ZNK12b2MouseJoint17GetReactionTorqueEf
xIh:_Array_InternalArray__Insert_TisMark_t3471605523_m2854535880_gshared
ana:__ZN6prcoreL29inner_stretch_rgb565_bilinearEPKNS_9InnerInfoE
Xbc:__Z14GUIClipTextureP9Texture2DPhiiii
khe:_MethodReturnDictionary__cctor_m278392388
yM:__ZNK9Transform18TransformDirectionERK8Vector3f
Fvi:_SslStreamBase_get_CanWrite_m1622082918
Gsi:__ZL80CanvasScaler_t2767979955_CustomAttributesCacheGenerator_m_ReferencePixelsPerUnitP21CustomAttributesCache
uGc:_otv_MarkLigPos_validate
vLe:_PrimalityTests_RabinMillerTest_m1471415870
y5f:_Enumerator_MoveNext_m2114485647_gshared
b1d:_GenericTypeParameterBuilder_GetCustomAttributes_m580748276
L2i:__ZN15dense_hashtableINSt3__24pairIK10KeyWrapperIPK11Il2CppClassEPKcEES6_N6il2cpp5utils11PointerHashIS3_EEN14dense_hash_mapIS6_S9_SE_NS6_14EqualsComparerINS0_8equal_toIS5_EEEENS0_9allocatorISA_EEE9SelectKeyESJ_SL_E12resize_deltaEjj
ZLj:__ZNK10__cxxabiv120__si_class_type_info27has_unambiguous_public_baseEPNS_19__dynamic_cast_infoEPvi
Ut:__ZN9AudioClip23VirtualRedirectTransferER14SafeBinaryRead
pdf:_Kernel_LeftShift_m4140742987
KXd:_Assembly_GetManifestResourceInternal_m1224391897
Mka:__Z30AddDefaultStreamsToMeshBuffersR9GfxDeviceR11MeshBuffersj17ShaderChannelMaskS3_
hZ:__ZL16GetInterfaceImpl18UnityInterfaceGUID
xZi:__ZN6il2cpp2vmL17SetupFieldOffsetsENS0_15FieldLayoutKindEP11Il2CppClassjRKNSt3__26vectorIjNS4_9allocatorIjEEEE
vyj:__ZN6il2cpp6icalls8mscorlib6System15MonoCustomAttrs27GetCustomAttributesInternalEP12Il2CppObjectP20Il2CppReflectionTypeb
Zb:invoke_viifi
XLc:_UNITY_TT_Set_MM_Blend
TX:__GLOBAL__sub_I_runtime_math_random_0_cpp
vwb:__ZN14PreloadManager35WaitForAllAsyncOperationsToCompleteEv
mw:__ZL31InitializeAudioScriptingClassesv
FBb:__Z14SortGUIByDepthP10GUIElementS0_
HGi:_UriParser__cctor_m3655686731
AVe:_LayoutRebuilder_U3Cs_RebuildersU3Em__0_m589488547
_ab:__ZNK20LocalFileSystemPosix21GetAvailableDiskSpaceEPKcRy
rY:__ZNSt3__26__treeIiNS_4lessIiEENS_9allocatorIiEEE7destroyEPNS_11__tree_nodeIiPvEE
qda:__ZNK9GfxDevice14GetWorldMatrixEv
Tkc:__ZN8JSONRead8TransferI8Vector2fEEvRT_PKc17TransferMetaFlagsb
nEg:_Transform_set_parent_m786917804
u0e:_Slider_get_value_m739683640
o9a:__Z19scripting_array_new17ScriptingClassPtrjj
mB:__ZN11SoundHandle13CreateChannelEb
_Ta:__ZN14SafeBinaryRead21TransferSTLStyleArrayI13dynamic_arrayI12LightmapDataLj4EEEEvRT_17TransferMetaFlags
L7:__ZNSt3__26vectorIN9ShaderLab20SerializedSubProgram16TextureParameterENS_9allocatorIS3_EEE6assignIPS3_EENS_9enable_ifIXaasr21__is_forward_iteratorIT_EE5valuesr16is_constructibleIS3_NS_15iterator_traitsISA_E9referenceEEE5valueEvE4typeESA_SA_
m1i:__ZN13Il2CppHashMapIN6il2cpp5utils13dynamic_arrayIPK10Il2CppTypeLj4EEEPFvvENS0_8metadata19Il2CppSignatureHashENS9_22Il2CppSignatureCompareENSt3__29allocatorINSC_4pairIK10KeyWrapperIS6_ES8_EEEEEC2EjRKSA_RKSB_
k7b:__Z51Quaternion_CUSTOM_INTERNAL_CALL_Internal_ToEulerRadRK11QuaternionfR8Vector3f
Zdj:__ZN15dense_hashtableINSt3__24pairIK10KeyWrapperIPK22Il2CppGenericParameterEPK24MonoGenericParameterInfoEES6_N6il2cpp5utils11PointerHashIS4_EEN14dense_hash_mapIS6_SA_SF_NS6_14EqualsComparerINS0_8equal_toIS5_EEEENS0_9allocatorISB_EEE9SelectKeyESK_SM_E15set_deleted_keyERKSB_
vjd:_SByte_TryParse_m2431806379
uSb:__ZN6prcoreL11inner_clearILj2EEEvPhjjj
Zkd:_DSACryptoServiceProvider_get_KeySize_m786836990
xoc:__ZN12b2WheelJoint24SolvePositionConstraintsERK12b2SolverData
Ng:_emscripten_exit_fullscreen
VWd:_Object_MemberwiseClone_m1474068832
nuj:__ZN6il2cpp6icalls8mscorlib6System6String19InternalAllocateStrEi
_lc:__Z29Transfer_Blittable_ArrayFieldI8JSONRead11QuaternionfEvRT_R9ArrayInfoRK23StaticTransferFieldInfo
L4b:__Z45Register_UnityEngine_Camera_get_targetDisplayv
UXb:__ZNK24RendererAnimationBinding15GenerateBindingERKN4core12basic_stringIcNS0_20StringStorageDefaultIcEEEEbRN11UnityEngine9Animation14GenericBindingE
X4e:_IPv6Address__ctor_m3704187391
_Bb:__Z15GetFlareManagerv
fs:__ZN8Animator13GetAvatarRootEv
GTf:_Array_InternalArray__ICollection_Add_TisResourceCacheItem_t51292791_m3851804827_gshared
pIj:___toread
Cub:__ZNSt3__26vectorI10vector_mapIiiNS_4lessIiEE13stl_allocatorINS_4pairIiiEEL18MemLabelIdentifier38ELi16EEES4_IS9_LS7_38ELi16EEE26__swap_out_circular_bufferERNS_14__split_bufferIS9_RSA_EE
Ncf:_BigInteger_get_Rng_m3283260184
AMj:___cxa_is_pointer_type
Zs:__ZN8Animator22ScriptingStringToCRC32ERK11ICallString
A6c:_RaycastResult_ToString_m2678663776_AdjustorThunk
PNh:_Array_InternalArray__get_Item_TisKeyValuePair_2_t2530217319_m2886833132_gshared
P_e:_ScrollRect_OnEndDrag_m3202230060
O9b:__Z34Transform_CUSTOM_SetAsFirstSiblingP12Il2CppObject
NSe:_InputField_Delete_m3471899192
$be:_RemotingConfiguration_get_ProcessId_m2180277012
oT:__ZN17PersistentManager40GlobalToLocalSerializedFileIndexInternalERK26SerializedObjectIdentifier
oG:__ZN11UnityEngine15CloudWebService17SessionEventQueue14ParseEventDataERKN4core12basic_stringIcNS2_20StringStorageDefaultIcEEEE
Qia:__ZN13TranslateGLES4InitERK12GraphicsCaps16GfxDeviceLevelGL
qLd:_Int64_System_IConvertible_ToUInt16_m848637338_AdjustorThunk
XRf:_Array_InternalArray__IndexOf_TisLink_t544317964_m455584088_gshared
bih:_Enumerator_get_Current_m2282646120_AdjustorThunk
rvh:_ReadOnlyCollection_1_IndexOf_m2539022912_gshared
Ori:__ZL66Selectable_t3250028441_CustomAttributesCacheGenerator_m_TransitionP21CustomAttributesCache
iGj:__ZN6il2cpp2os6Memory12AlignedAllocEjj
A1e:_Text_set_alignByGeometry_m3828822280
Tzj:__ZN6il2cpp8metadataL7CompareEPK10Il2CppTypeS3_
c2e:_HybridDictionary__ctor_m1681134385
$R:__ZN21ScalableBufferManager11GetInstanceEv
Npb:__Z18Transfer_BlittableI18StreamedBinaryReadILb0EELb1E10ColorRGBAfEvRK29SerializationCommandArgumentsR31RuntimeSerializationCommandInfo
fhg:_TimeSpan_op_LessThan_m1594498345
V2b:__ZL27GetComponentsImplementationILb0ELi0EEbR10GameObjectbRK17CompareParametersRK39GetComponentsImplementation_ReturnValue
ktb:__ZN9Scripting36IsSystemCollectionsGenericDictionaryE17ScriptingClassPtr
hGh:_UnityEvent_1_FindMethod_Impl_m322741469_gshared
EEg:_Enumerator_get_Current_m2591725252
UQ:__ZL16ReadTypeTreeImplILb0EEbR8TypeTreeRK16TypeTreeIteratorRPKhS6_i
ncf:_Interval_Contains_m110351300_AdjustorThunk
OFd:_Convert_ToInt32_m3048308591
yrf:_DateTimeOffset_Equals_m3030958070
pMa:__ZNK22BuiltinResourceManager21GetResourceInstanceIDEPKN5Unity4TypeERKN4core12basic_stringIcNS4_20StringStorageDefaultIcEEEE
u6b:__Z42Register_UnityEngine_RectOffset_set_bottomv
cnc:__ZN10Effector2D5ResetEv
ipf:_DateTimeFormatInfo_GetMonthName_m2034512315
KDb:__ZN28LightProbeProxyVolumeContext8CopyFromERKS_
$vh:_ReadOnlyCollection_1_System_Collections_Generic_IListU3CTU3E_Insert_m2489506856_gshared
DW:__ZN23TransformChangeDispatch32QueueTransformChangeIfHasChangedER18TransformHierarchy
nJe:_SimpleCollator_ToDashTypeValue_m6184468
Ira:__ZN7ApiGLES18DeleteRenderbufferERj
kqa:__ZL23ProgramUniformMatrix4fvPK7ApiGLESjiihPKv
Rra:__ZN7ApiGLES13CreateTextureEjj14GraphicsFormatiiiii
Ksd:_Array_new_gap_m262136975
p7:__ZN9ShaderLab20SerializedSubProgram15MatrixParameter8TransferI14SafeBinaryReadEEvRT_
X2b:__ZL27GetComponentsImplementationILb0ELi1EEbR10GameObjectbRK17CompareParametersRK39GetComponentsImplementation_ReturnValue
q8e:_X509Store__ctor_m275383717
UJe:_SimpleCollator_LastIndexOfOrdinalIgnoreCase_m2984667899
GKc:_Round_Down_To_Grid
Dsa:__ZN13RenderTexture7ReleaseEv
xjc:__Z18Transfer_BlittableI8JSONReadLb1EN4math12int3_storageEEvRK29SerializationCommandArgumentsR31RuntimeSerializationCommandInfo
V_a:__ZN10MeshFilter23VirtualRedirectTransferER14SafeBinaryRead
Jod:_X509CertificateEnumerator_MoveNext_m2269241175
d$a:__ZN12MeshRenderer17MainThreadCleanupEv
iZi:__ZN6il2cpp2vmL10InitLockedEP11Il2CppClassRKNS_2os12FastAutoLockE
xva:__ZN22CreateGpuProgramOutput12CreateParamsEv
xx:__ZN10ObjectPoolIN4FMOD7ChannelENS0_8ChannelIEE7GetFreeEi
xqe:_InternalEnumerator_1_System_Collections_IEnumerator_get_Current_m548105685_gshared
Gia:__ZNK14GfxContextGLES13GetDefaultFBOEv
ivd:_Byte_System_IConvertible_ToType_m2251112646
WZg:__Z81RuntimeInvoker_Char_t3634460470_RuntimeObject_Int32_t2950945753_Int16_t2552820387PFvvEPK10MethodInfoPvPS4_
Hpf:_DateTime_get_Hour_m4153505178_AdjustorThunk
ARi:_AudioExtensionManager_WriteExtensionProperties_m3028464154
RGf:_Evidence_Equals_m1478353107
x$b:__Z13GetImagePixelI10ColorRGBAfET_PKhii13TextureFormat15TextureWrapModeS5_ii
ubh:_List_1_System_Collections_IList_set_Item_m1842844683_gshared
kIh:_ObjectPool_1__ctor_m2535233435_gshared
Ikj:__ZN6il2cpp2vm6Thread49CheckCurrentThreadForInterruptAndThrowIfNecessaryEv
Szf:_CultureInfo_construct_datetime_format_m1928121315
kV:__ZNSt3__23mapIN9ShaderLab16FastPropertyNameEN18UnityPropertySheet11UnityTexEnvENS_4lessIS2_EENS_9allocatorINS_4pairIKS2_S4_EEEEEixERS9_
Lqa:__ZNK13TranslateGLES25GetTextureTargetDimensionEj
yth:_ReadOnlyCollection_1_System_Collections_IList_Remove_m1842121503_gshared
eOd:_File_OpenRead_m2936789020
a9b:__Z47Texture2D_CUSTOM_INTERNAL_CALL_GetPixelBilinearP12Il2CppObjectffR10ColorRGBAf
BDd:_Enumerator_get_Entry_m3561948123
oXg:__Z94RuntimeInvoker_Void_t1185182177_RuntimeObject_PlayableGraph_t3515989261_RuntimeObject_IntPtr_tPFvvEPK10MethodInfoPvPS4_
Oi:_emscripten_glVertexAttrib4f
mba:__ZNSt3__26vectorIN20GpuProgramParameters14ConstantBufferENS_9allocatorIS2_EEE8__appendEj
_8e:_X509CertificateCollection_AddRange_m3683116910
ice:_SinkProviderData__ctor_m1624738837
qZg:__Z88RuntimeInvoker_RuntimeObject_RuntimeObject_SByte_t1669577662_RuntimeObject_RuntimeObjectPFvvEPK10MethodInfoPvPS4_
lZd:_CustomAttributeTypedArgument_Equals_m2261980307
Yfa:__ZN9GfxDevice18SetGlobalDepthBiasEff
t5i:__ZN6il2cpp6icalls8mscorlib6System8MonoType12get_AssemblyEP20Il2CppReflectionType
Ao:FUNCTION_TABLE_vi
aj:_emscripten_glGetPointerv
IMh:_Dictionary_2_Do_CopyTo_TisKeyValuePair_2_t3842366416_TisRuntimeObject_m1564656153_gshared
Yvb:__Z26ApplyMaterialPassWithCacheRK18SharedMaterialDataR17ShaderPassContextP6ShaderPN9ShaderLab4PassEibPKNS6_10GrabPassesEPNS6_11SubProgramsEPK22DeviceRenderStateBlock
TVd:_MulticastDelegate_KPM_m22863605
due:_InternalEnumerator_1_get_Current_m1897120917_AdjustorThunk
rVd:_MonoType_ReorderParamArrayArguments_m2458683451
Rje:_FormatterConverter_ToInt16_m4282804414
KOg:__Z81RuntimeInvoker_Void_t1185182177_Int64_t3736567304_RuntimeObject_Int64_t3736567304PFvvEPK10MethodInfoPvPS4_
e7c:_StandaloneInputModule_ProcessTouchPress_m4019232747
$Nd:_FileStream__ctor_m3151488352
Jsd:_Array_swap_m547389985
BT:__ZN8Renderer23VirtualRedirectTransferER14SafeBinaryRead
Fkg:_UInt32_ToString_m2420423038
s8g:_List_1_System_Collections_IList_Add_m634558835_gshared
DOd:_FileStream_get_Length_m426703983
sZi:__ZN6il2cpp2vmL15GetBitmapNoInitEP11Il2CppClassPjRjj
Uv:__ZN12AudioManager5ResetEv
Xoa:__ZN6prcoreL17RemapGenericFloatI17TexFormatRGBAHalf15TexFormatRGHalfEEvPKNS_9InnerInfoE
wwj:__ZN6il2cpp6icalls8mscorlib6System11Environment20GetWindowsFolderPathEi
PEc:_UNITY_FT_RoundFix
fDj:_GC_is_heap_ptr
kMe:_ASN1_DecodeTLV_m1200977460
Csg:_UnityEventBase_PrepareInvoke_m1785382128
dwh:_ReadOnlyCollection_1_System_Collections_Generic_IListU3CTU3E_set_Item_m1584697503_gshared
f$a:__ZNK12MeshRenderer22GetTypeVirtualInternalEv
Uwd:_Char_System_IConvertible_ToUInt32_m3901815580
UYe:_Scrollbar_set_onValueChanged_m346467699
tzc:__ZN13ProduceHelperI13BoxCollider2DLb0EE7ProduceE10MemLabelId18ObjectCreationMode
iRg:__Z157RuntimeInvoker_Int32_t2950945753_RuntimeObject_Int32_t2950945753_Int32_t2950945753_Int32_t2950945753_SByte_t1669577662_SByte_t1669577662_Int32U26_t1369213839PFvvEPK10MethodInfoPvPS4_
HMe:_BitConverterLE_ToInt16_m1855092160
S5:__ZN14SafeBinaryRead19TransferSTLStyleMapINSt3__23mapIN4core12basic_stringIcNS3_20StringStorageDefaultIcEEEES7_NS1_4lessIS7_EE13stl_allocatorINS1_4pairIKS7_S7_EEL18MemLabelIdentifier1ELi16EEEEEEvRT_17TransferMetaFlags
xTc:__ZN2UI6Canvas27UpdateEventIndexesRecursiveERi
uG:__ZN11UnityEngine15CloudWebService16SessionContainer21PrepareDataErrorEventERN4core12basic_stringIcNS2_20StringStorageDefaultIcEEEE
s4c:_ExecuteEvents_get_pointerUpHandler_m3515704212
Pxd:_ArrayList_set_Item_m2003485935
v9d:_SatelliteContractVersionAttribute__ctor_m3630863995
l6c:_MouseButtonEventData_PressedThisFrame_m1060658845
Vlb:__Z19TransferField_ArrayI19StreamedBinaryWriteILb0EE27Converter_SimpleNativeClassI8GUIStyleEEvRK23StaticTransferFieldInfoR31RuntimeSerializationCommandInfoRT0_
vBb:__Z27SetClippingPlaneShaderPropsR9GfxDevice
Rth:_ReadOnlyCollection_1_System_Collections_Generic_IListU3CTU3E_RemoveAt_m3969985996_gshared
dUj:_emscripten_glCopyTexSubImage2D__wrapper
gfd:_GraphicRegistry_GetGraphicsForCanvas_m4219276355
FJd:_NumberFormatter_FastToDecHex_m699829267
vBi:_PatternCompiler_MakeFlags_m1977119795
ljc:__Z35Transfer_Blittable_FixedBufferFieldI8JSONReadiEvRK29SerializationCommandArgumentsR31RuntimeSerializationCommandInfo
Y9:__ZN15SerializeTraitsIN9ShaderLab16FastPropertyNameEE8TransferI19StreamedBinaryWriteILb0EEEEvRS1_RT_
w4i:__ZNSt3__213__vector_baseIN6il2cpp2os19SocketHandleWrapperENS_9allocatorIS3_EEED2Ev
_Sh:__ZL48_Type_t3588564251_CustomAttributesCacheGeneratorP21CustomAttributesCache
gc:invoke_viiffi
rLd:_Int64_System_IConvertible_ToUInt32_m109903525
bfc:__ZN5Unity9rapidjson13GenericReaderINS0_4UTF8IcEES3_13JSONAllocatorE10ParseFalseILj0ENS0_19GenericStringStreamIS3_EENS0_15GenericDocumentIS3_S4_S4_EEEEvRT0_RT1_
Vug:_Mathf_CeilToInt_m432108984
lRa:__ZNK12CubemapArray20GetRuntimeMemorySizeEv
Qgg:_TimeSpan_FromHours_m1109641064
hUi:_playerHealth_Die_m7015727
n8:__Z14resize_trimmedINSt3__26vectorIN9ShaderLab18SerializedPropertyENS0_9allocatorIS3_EEEEEvRT_j
s2i:__ZN6il2cpp2vm13MetadataCache38GetMethodInfoFromMethodDefinitionIndexEi
d3c:_EventSystem_set_current_m38955169
wAi:_CostDelegate_EndInvoke_m2797921932
SWa:__ZN10VertexData8TransferI24GenerateTypeTreeTransferEEvRT_
jwf:_Double_IsInfinity_m820013146
Swj:__ZN13Il2CppHashMapIPK19Il2CppGenericMethodP10MethodInfoN6il2cpp8metadata23Il2CppGenericMethodHashENS6_26Il2CppGenericMethodCompareENSt3__29allocatorINS9_4pairIK10KeyWrapperIS2_ES4_EEEEEC2EjRKS7_RKS8_
SBg:_Screen_get_dpi_m495672463
rdg:_UTF8Encoding_InternalGetByteCount_m2120178851
HJb:__ZL10CullLightsRK22SceneCullingParametersR11CullResults
qHd:_Convert_ToUInt64_m3170916409
nEh:_InvokableCall_3__ctor_m4245235439_gshared
eLd:_Int64_System_IConvertible_ToInt16_m4062196970_AdjustorThunk
NVd:_MonoType_GetGenericTypeDefinition_m3201894896
pSb:__Z40GetTemporaryCachePathApplicationSpecificv
cea:__ZN9GfxDevice16EndAsyncJobFrameEv
X_g:__Z99RuntimeInvoker_Int32_t2950945753_Ray_t3785851493_RuntimeObject_Single_t1397266774_Int32_t2950945753PFvvEPK10MethodInfoPvPS4_
FHc:_UNITY_tt_face_load_hhea
Z_d:_DerivedType_get_Assembly_m2979298667
Yk:___syscall3
mYg:__Z135RuntimeInvoker_RaycastHit2D_t2279581989_Vector2_t2156229523_Vector2_t2156229523_Single_t1397266774_Int32_t2950945753_Single_t1397266774PFvvEPK10MethodInfoPvPS4_
$k:___syscall6
bl:___syscall4
tH:__ZN11UnityEngine15CloudWebService20WebRequestRestClient17GetResponseStatusEv
Fhe:_ReturnMessage__ctor_m2352989078
lMg:__Z99RuntimeInvoker_Void_t1185182177_RuntimeObject_Int32_t2950945753_SByte_t1669577662_SByte_t1669577662PFvvEPK10MethodInfoPvPS4_
Vbb:__ZNSt3__26__treeINS_12__value_typeIN4core12basic_stringIcNS2_20StringStorageDefaultIcEEEEPN16MemoryFileSystem4NodeEEENS_19__map_value_compareIS6_SA_NS_4lessIS6_EELb1EEE13stl_allocatorISA_L18MemLabelIdentifier55ELi16EEE7destroyEPNS_11__tree_nodeISA_PvEE
Hsj:__ZN6il2cpp2vm3RCW14QueryInterfaceILb1EEEP14Il2CppIUnknownP15Il2CppComObjectRK10Il2CppGuid
Hjf:_TlsServerCertificateRequest__ctor_m1334974076
Isc:__ZNSt3__26__sortIR24RayHitsByDepthComparitorP12RaycastHit2DEEvT0_S5_T_
QFd:_Convert_ToInt32_m1613163543
qWe:_MatEntry__ctor_m1949610076
rth:_ReadOnlyCollection_1_System_Collections_ICollection_CopyTo_m3127175806_gshared
rl:_emscripten_glShaderBinary
Mjg:_UInt16_ToString_m760649087
Sab:__ZNK20LocalFileSystemPosix6ExistsERK13FileEntryData
Wog:_Camera_GetAllCameras_m668492922
PWc:__Z58Register_UnityEngine_Canvas_GetETC1SupportedCanvasMaterialv
ehg:_TimeSpan_op_Inequality_m2467851530
sob:__ZN17AnimationCurveTplIfE8TransferI18StreamedBinaryReadILb1EEEEvRT_
ILh:_Array_Sort_TisUIVertex_t4057497605_m3996333845_gshared
kZc:__ZN18UnityConnectClientD2Ev
btd:_Swapper_BeginInvoke_m1688449973
grg:_Display_get_renderingWidth_m1970428952
eUg:__Z81RuntimeInvoker_Void_t1185182177_RuntimeObject_Int32_t2950945753_Int64_t3736567304PFvvEPK10MethodInfoPvPS4_
SQ:__ZN13dynamic_arrayIcLj1EE6insertEPcPKcS3_
mPg:__Z86RuntimeInvoker_Boolean_t97287965_Int16_t2552820387_Int16_t2552820387_Int32_t2950945753PFvvEPK10MethodInfoPvPS4_
hHh:_IndexedSet_1_IndexOf_m241693686_gshared
oYc:__ZN11UnityEngine15PlatformWrapper30GetGraphicsDriverLibraryStringEv
Aid:_RuntimeMethodHandle_Equals_m3301340296_AdjustorThunk
blg:_UInt64_System_IConvertible_ToSingle_m925613075_AdjustorThunk
Opb:__Z18Transfer_BlittableI18StreamedBinaryReadILb0EELb0E4AABBEvRK29SerializationCommandArgumentsR31RuntimeSerializationCommandInfo
Y3a:__ZN24GenerateTypeTreeTransfer19TransferSTLStyleMapINSt3__28multimapIN4core12basic_stringIcNS3_20StringStorageDefaultIcEEEE4PPtrI6ObjectENS1_4lessIS7_EE13stl_allocatorINS1_4pairIKS7_SA_EEL18MemLabelIdentifier52ELi16EEEEEEvRT_17TransferMetaFlags
Is:__ZN16MecanimAnimation24DeleteAnimatedPropertiesERP26IAnimatedPropertyEvaluator
gVi:_CanvasRenderer_SetMaterial_m824577244
pAb:__Z14DrawGUITextureRK5RectTIfEP7Texture11ColorRGBA32P8Materiali
Nth:_ReadOnlyCollection_1_System_Collections_Generic_ICollectionU3CTU3E_Add_m2686599243_gshared
cBb:__ZN22RenderingCommandBuffer20ExecuteCommandBufferER17ShaderPassContextR15RenderNodeQueuejP13dynamic_arrayINSt3__24pairIN9ShaderLab16FastPropertyNameEP13RenderTextureEELj4EE16ComputeQueueTypeSA_
AEg:_Transform_IsChildOf_m224006092
Src:__ZNK11b2EdgeShape7RayCastEP15b2RayCastOutputRK14b2RayCastInputRK11b2Transformi
Wic:__ZN9JSONWrite8TransferI4AABBEEvRT_PKc17TransferMetaFlags
n6:__ZN15dense_hashtableINSt3__24pairIKiN4core17string_with_labelILi1EEEEEi18SInt32HashFunctionN14dense_hash_mapIiS5_S7_NS0_8equal_toIiEE13stl_allocatorIS6_L18MemLabelIdentifier1ELi16EEE9SelectKeyESA_SD_E12expand_arrayEjN21dense_hash_map_traits17integral_constantIbLb0EEE
K2g:__Z58RuntimeInvoker_Void_t1185182177_ContactPoint2D_t3390240644PFvvEPK10MethodInfoPvPS4_
Nuc:__ZN10Collider2D13AwakeFromLoadE17AwakeFromLoadMode
DMh:_Dictionary_2_Do_ICollectionCopyTo_TisRuntimeObject_m1855083806_gshared
kKi:_Aes__ctor_m178909601
oSa:__ZNK9Texture2D20GetRuntimeMemorySizeEv
Bac:__ZN11Marshalling39CreateNullExceptionForUnityEngineObjectE18ScriptingObjectPtr
afc:__ZN5Unity9rapidjson13GenericReaderINS0_4UTF8IcEES3_13JSONAllocatorE9ParseTrueILj0ENS0_19GenericStringStreamIS3_EENS0_15GenericDocumentIS3_S4_S4_EEEEvRT0_RT1_
zm:_emscripten_glUniform2iv
kCc:_UNITY_FT_Outline_Transform
LZi:__ZN6il2cpp2vm5Class10GetMethodsEP11Il2CppClassPPv
FFb:__Z30AddDefaultStreamsToMeshBuffersR9GfxDeviceR11MeshBuffersRK16DrawBuffersRange17ShaderChannelMaskS6_
Wqa:__ZN7ApiGLES17DeleteFramebufferERN2gl6HandleILNS0_10ObjectTypeE9EEES3_
zua:__ZN15UniformTFMethod13MapBoneBufferEj
sSc:__ZN2UI14CanvasRendererD2Ev
gOh:_Array_InternalArray__get_Item_TisParameterModifier_t1461694466_m29553316_gshared
wLd:_Int64_CompareTo_m1928360444_AdjustorThunk
Wub:__Z9SetupArgviPPKc
eGd:_Convert_ToInt64_m2075031821
YUj:_glTexParameteri__wrapper
pRa:__ZN12CubemapArray23VirtualRedirectTransferER24GenerateTypeTreeTransfer
yR:__ZN12FileAccessor4OpenER15FileSystemEntry14FilePermission16FileAutoBehavior
Fvj:__ZN6il2cpp2os9Directory6CreateERKNSt3__212basic_stringIcNS2_11char_traitsIcEENS2_9allocatorIcEEEEPi
CW:__ZN23TransformChangeDispatch32QueueTransformChangeIfHasChangedERK15TransformAccess
BQa:__ZNSt3__26vectorINS_4pairIN9ShaderLab16FastPropertyNameEN18UnityPropertySheet11UnityTexEnvEEENS_9allocatorIS6_EEE21__push_back_slow_pathIKS6_EEvRT_
GXd:_Assembly_get_FullName_m293988418
pAc:__ZN22WorldContactListener2D8PreSolveEP9b2ContactPK10b2Manifold
B:tempValue
UGj:__ZN6il2cpp8metadata24Il2CppGenericContextHash4HashEPK20Il2CppGenericContext
lse:_InternalEnumerator_1_get_Current_m356936020_AdjustorThunk
Sph:_Collection_1_CheckWritable_m1583234367_gshared
LKd:_Int32_ToString_m141394615_AdjustorThunk
Tyd:_ArrayListWrapper_CopyTo_m498486826
yNd:_Directory_GetCurrentDirectory_m219218555
qpd:_SmallXmlParser_UnexpectedEndError_m1914362401
Nja:__ZN14DelayedDeletorI15dense_hashtableINSt3__24pairIK9TextureIDiEES3_14GfxGenericHashIS3_EN14GfxDoubleCacheIS3_iS7_NS1_8equal_toIS3_EEN31GfxDoubleCacheConcurrencyPolicy11LocklessGetE42GfxDoubleCacheDefaultEmptyDeletedGeneratorIS3_EE9SelectKeyESA_13stl_allocatorIS5_L18MemLabelIdentifier24ELi16EEEEclEv
DB:__ZN11AudioSource19CreateOpenALRolloffEfff
zHc:_UNITY_FT_Stream_ReadAt
dgg:_TimeSpan__ctor_m1896986612_AdjustorThunk
Lnd:_ArgumentException__ctor_m1216717135
Uyg:_Ray_ToString_m1732834890_AdjustorThunk
rd:_glReadBuffer
kbh:_List_1_System_Collections_IList_Contains_m3860993176_gshared
pC:__ZN11AudioModule22CreateAudioClipFromWWWEP10IWWWStreamPKcbbi
fXb:__ZN9Texture2DC2E10MemLabelId18ObjectCreationMode
Xi:_emscripten_glRotatef
Qjg:_UInt32_System_IConvertible_ToBoolean_m1763673183_AdjustorThunk
JBg:_SceneManager_INTERNAL_CALL_GetActiveScene_m1427626561
wsg:_UnityEvent_AddListener_m2276267359
wSb:__ZN6prcoreL11inner_clearILj4EEEvPhjjj
ryg:_Quaternion_Euler_m3049309462
s2:__ZNK8Playable6HandleEv
lRe:_SetPropertyUtility_SetColor_m2229203028
eBe:_Enumerator_MoveNext_m481679286_gshared
EP:__ZN14MessageHandler28MessageIDToMessageIdentifierEi
mXa:__ZNK11SpriteAtlas20GetRuntimeRenderDataEPK6Sprite
oNd:_FileSystemInfo__ctor_m3035148496
bKd:_Int32_System_IConvertible_ToDecimal_m2190376994_AdjustorThunk
aPc:__ZN20TextRenderingPrivate15DynamicFontData36GetFaceForCharacterIfAvailableInFontERKNS_7FontRefERK13dynamic_arrayI4PPtrIN13TextRendering4FontEELj4EEj
kt:__Z51Register_UnityEngine_Animator_get_hasBoundPlayablesv
Jd:emscriptenWebGLGetUniform
Bo:FUNCTION_TABLE_iiiiiiiiiii
xHi:_GUI_CallWindowDelegate_m3309453386
SFc:_cff_set_mm_blend
oLb:__ZL10CleanUpJobP20CullingGroupsJobData
jNd:_DirectoryInfo_get_Exists_m3142069876
gAb:__ZN13RenderManager15BatchModeUpdateEv
n8e:_X509Chain_get_CertificateAuthorities_m804805415
wWa:__ZN14SafeBinaryRead21TransferSTLStyleArrayI13dynamic_arrayI8Vector2fLj4EEEEvRT_17TransferMetaFlags
nT:__ZN17PersistentManager51InstanceIDToLocalSerializedObjectIdentifierInternalEiR31LocalSerializedObjectIdentifier
YAg:_Vector2_get_one_m738793577
Iwc:__ZN10ClipperLib7Clipper15SetWindingCountERNS_5TEdgeE
z$b:__ZNK4Mesh14GetIndexFormatEv
Zrj:__ZN14dense_hash_mapI10KeyWrapperIP12Il2CppObjectEN6il2cpp2gc9CachedCCWENS4_5utils11PointerHashIS1_EENS3_14EqualsComparerINSt3__28equal_toIS2_EEEENSB_9allocatorINSB_4pairIKS3_S6_EEEEE13set_empty_keyERSH_
md:_glVertexAttribIPointer
Pbg:_StringBuilder_ToString_m3317489284
nqa:__ZN13dynamic_arrayI21ComputeShaderResourceLj4EE9push_backERKS0_
K$b:__ZNK6Sprite10GetPaddingE20SpriteRenderDataMode
EOf:_Array_InternalArray__ICollection_Remove_TisUInt32_t2560061978_m733727733_gshared
Qjd:_CryptographicException__ctor_m503735289
YOd:_Stream_EndRead_m1896469262
cHg:__Z93RuntimeInvoker_Boolean_t97287965_Int32_t2950945753_SByte_t1669577662_ExceptionU26_t3600731591PFvvEPK10MethodInfoPvPS4_
zDb:__ZN14qsort_internal5QSortIP15RODataDepthPassi17ROSorterDepthPassEEvT_S4_T0_T1_
jIc:_UNITY_ft_glyphslot_alloc_bitmap
fnf:_RSASslSignatureDeformatter_SetHashAlgorithm_m895570787
Mzi:_X509CrlEntry__ctor_m4013514048
tWg:__Z87RuntimeInvoker_Color_t2555686324_Color_t2555686324_Color_t2555686324_Single_t1397266774PFvvEPK10MethodInfoPvPS4_
cNc:_ft_raster1_render
R7b:__Z57Register_UnityEngine_RectTransform_INTERNAL_set_anchorMaxv
pea:__ZN9GfxDevice27UpdateComputeSkinPoseBufferEP9GfxBufferP12SkinMeshInfo
hLj:__ZNKSt3__221__basic_string_commonILb1EE20__throw_length_errorEv
C0f:_EqualityComparer_1_System_Collections_IEqualityComparer_Equals_m245992594_gshared
nSf:_Array_InternalArray__IndexOf_TisParameterModifier_t1461694466_m1227120810_gshared
Xra:__ZN18GfxFramebufferGLES13ReadbackImageER14ImageReferenceiiiiii
Efc:__ZN5Unity9rapidjson6WriterI16TempBufferWriterNS0_4UTF8IcEES4_13JSONAllocatorE11WriteStringEPKcj
Khd:_SerializationInfo_SetType_m3923964808
Ana:__ZN6prcoreL12RemapGenericI17TexFormatARGB888815TexFormatRGB565EEvPKNS_9InnerInfoE
fx:__ZN4FMOD7Channel19setReverbPropertiesEPK29FMOD_REVERB_CHANNELPROPERTIES
mRd:_StreamReader_Dispose_m156389394
oO:__ZN13MonoBehaviour22GetScriptFullClassNameEv
MUb:__ZN13ProduceHelperI11MonoManagerLb0EE7ProduceE10MemLabelId18ObjectCreationMode
kCf:_RIPEMD160Managed_JJ_m112143231
XCb:__ZN13BatchRendererC2ER15RenderLoopStatsRK15RenderNodeQueuebb
Mbb:__ZNK16MemoryFileSystem9EnumerateEPKcP19dynamic_block_arrayI13FileEntryInfoLj32EEbPPv19FileEnumerationFlag
Usb:__ZN13MonoBehaviour9CallAwakeEv
JMa:__ZN20SphericalHarmonicsL211AddWeightedERKS_f
eKg:__Z82RuntimeInvoker_RuntimeObject_Int64_t3736567304_Int64_t3736567304_Int64_t3736567304PFvvEPK10MethodInfoPvPS4_
_hb:__Z19TransferField_ArrayI17RemapPPtrTransfer27Converter_SimpleNativeClassI8GUIStyleEEvRK23StaticTransferFieldInfoR31RuntimeSerializationCommandInfoRT0_
ogc:__ZN9JSONWrite8TransferI10ColorRGBAfEEvRT_PKc17TransferMetaFlags
yP:__Z25scripting_method_get_name18ScriptingMethodPtr
qnf:_SslCipherSuite_ComputeKeys_m661027754
Rwg:_Object_set_name_m291480324
Ltf:_Decimal_Equals_m2486655999
BCj:_GC_exit_check
Vzh:__ZN16VirtFuncInvoker2Ii19Color32_t2600501292S0_E6InvokeEjP12Il2CppObjectS0_S0_
d6d:_MonoField_ToString_m2518484388
nNe:_DSAManaged_get_Random_m923751780
zDe:_Transform_1_Invoke_m2385719192_gshared
GFg:_Vector3_set_Item_m1772472431_AdjustorThunk
gbf:_Interpreter_PopulateGroup_m4042796257
fPb:__ZNSt3__26vectorINS_4pairIN4core12basic_stringIcNS2_20StringStorageDefaultIcEEEES6_EE13stl_allocatorIS7_L18MemLabelIdentifier38ELi16EEE6insertENS_11__wrap_iterIPKS7_EERSD_
Xsg:_RenderPipelineManager_DoRenderLoop_Internal_m3799666479
jnh:_Collection_1_System_Collections_IList_IndexOf_m3894953546_gshared
Q2e:_NameObjectCollectionBase_Init_m2525481323
lyj:__ZN6il2cpp2vm6String8NewUtf16EPKDsi
Mid:_SByte_System_IConvertible_ToByte_m2268214252_AdjustorThunk
avj:__ZN6il2cpp2os10ThreadImpl12QueueUserAPCEPFvPvES2_
aFi:_RegularExpression__ctor_m119502265
aZc:__ZN22BaseUnityConnectClient10QueueEventERN11UnityEngine15CloudWebService17CloudServiceEventEPKcjb
Oth:_ReadOnlyCollection_1_System_Collections_Generic_ICollectionU3CTU3E_Clear_m522482168_gshared
Izc:__ZN13ProduceHelperI17PhysicsMaterial2DLb0EE7ProduceE10MemLabelId18ObjectCreationMode
Ofe:_ConstructionCall_InitMethodProperty_m2021094586
$Kc:_UNITY_FT_Hypot
Nsi:__ZL74CanvasScaler_t2767979955_CustomAttributesCacheGenerator_m_DefaultSpriteDPIP21CustomAttributesCache
yhj:_il2cpp_class_is_abstract
Df:_emscripten_glGetError
Cdj:__ZN15dense_hashtableINSt3__24pairIK10KeyWrapperIPK14Il2CppAssemblyEPK22Il2CppMonoAssemblyNameEES6_N6il2cpp5utils11PointerHashIS4_EEN14dense_hash_mapIS6_SA_SF_NS6_14EqualsComparerINS0_8equal_toIS5_EEEENS0_9allocatorISB_EEE9SelectKeyESK_SM_E14squash_deletedEv
Sx:__Z14FMOD_FILE_SeekPvjS_
LWe:_MaskableGraphic_OnDisable_m1757789159
dNa:__ZN7TextureC2E10MemLabelId18ObjectCreationMode
AUe:_LayoutGroup__ctor_m2162961217
pMb:__ZNK13RenderTexture32CalculateNeedsInvertedProjectionEv
tRb:__ZN10systeminfo18GetOperatingSystemEv
Lf:emscriptenWebGLGet
M_:__Z19CanReplaceComponentRN5Unity9ComponentEPKNS_4TypeEPN4core12basic_stringIcNS5_20StringStorageDefaultIcEEEE
mTd:_UnmanagedMemoryStream_Flush_m1540584491
BHd:_GuidParser_ParseGuid2_m1914838819
_Wb:__ZN12CubemapArray11InitTextureEiii13TextureFormatb
M1b:__Z17GetSceneBuildInfoRKN4core12basic_stringIcNS_20StringStorageDefaultIcEEEEiR14SceneBuildInfo
FGd:_Convert_ToSingle_m3983149863
Nme:_InternalEnumerator_1_System_Collections_IEnumerator_get_Current_m55999184_gshared
g9e:_X509CertificateEnumerator_get_Current_m364341970
ied:_Graphic_get_depth_m815589653
$Gi:_Event_set_displayIndex_m1342258734
nGb:__ZL24AssignProjectorQueuesJobP30AssignProjectorQueuesJobHeader
S7d:_ParameterModifier_t1461694466_marshal_pinvoke
I1i:__ZN15dense_hashtableINSt3__24pairIK10KeyWrapperIN6il2cpp5utils13dynamic_arrayIPK10Il2CppTypeLj4EEEEPFvvEEESA_NS3_8metadata19Il2CppSignatureHashEN14dense_hash_mapISA_SD_SG_NSA_14EqualsComparerINSF_22Il2CppSignatureCompareEEENS0_9allocatorISE_EEE9SelectKeyESK_SM_E4swapERSP_
eId:_Int16_System_IConvertible_ToUInt32_m3410279543
uba:__ZN9ShaderLab20SerializedSubProgram14SetConstBufferEPKci
h8i:__ZN6il2cpp2os4File5CloseEPNS0_10FileHandleEPi
h1i:__ZNSt3__27__sort5IRN6il2cpp5utils11collections13ArrayValueMapIPK10Il2CppType17Il2CppInteropData26InteropDataToTypeConverterNS1_8metadata14Il2CppTypeLessENSA_26Il2CppTypeEqualityComparerEE12SortComparerEPS8_EEjT0_SH_SH_SH_SH_T_
ujg:_UInt16_CompareTo_m2664746316_AdjustorThunk
dL:__Z40DebugStringToFilePostprocessedStacktraceRK21DebugStringToFileData
alc:__Z29Transfer_Blittable_ArrayFieldI8JSONReadjEvRT_R9ArrayInfoRK23StaticTransferFieldInfo
HCj:_GC_check_finalizer_nested
rg:__setLetterbox
K_e:_ScrollRect_OnScroll_m3861066534
iIe:_Dictionary_2_ToTKey_m224697230_gshared
Xgi:__ZL72FormerlySerializedAsAttribute_t2859083114_CustomAttributesCacheGeneratorP21CustomAttributesCache
AQe:_OnValidateInput_Invoke_m1009124904
RBi:_PatternCompiler_EmitFastRepeat_m3012952683
RZa:__ZNSt3__26vectorI17BlendShapeChannelNS_9allocatorIS1_EEE6assignINS_11__wrap_iterIPS1_EEEENS_9enable_ifIXaasr21__is_forward_iteratorIT_EE5valuesr16is_constructibleIS1_NS_15iterator_traitsISA_E9referenceEEE5valueEvE4typeESA_SA_
mRb:__ZN11TimeManager11GetRealtimeEv
ky:__ZN29AudioEffectInternalDefinitionC2EP26UnityAudioEffectDefinitionb
yyh:_ReadOnlyCollection_1_System_Collections_IList_Remove_m2434650390_gshared
Njg:_UInt16_ToString_m3056878594_AdjustorThunk
WFj:__ZN6il2cpp2os9FastMutexD2Ev
dcf:_Interval_get_IsSingleton_m3386290029
Tgj:__ZNSt3__2plIcNS_11char_traitsIcEENS_9allocatorIcEEEENS_12basic_stringIT_T0_T1_EERKS9_PKS6_
iDg:_Time_get_unscaledDeltaTime_m4270080131
s$a:__ZN4Mesh14GetMeshBuffersER11MeshBuffers17ShaderChannelMaskPS_b
aEf:_SHA384Managed__ctor_m3220477113
zma:_stbir_resize
ARf:_Array_IndexOf_TisCustomAttributeTypedArgument_t2723150157_m3158556463_gshared
Bxf:_Environment_GetOSVersionString_m407782784
gMf:_DecoderExceptionFallback_Equals_m1082173956
SWh:__ZL69Assembly_t_CustomAttributesCacheGenerator_Assembly_GetName_m981771927P21CustomAttributesCache
Xqc:__ZN24b2ChainAndCapsuleContact6CreateEP9b2FixtureiS1_iP16b2BlockAllocator
GCa:__Z37ReadDirectoryInfo_UnityWebAndUnityRawR12FileAccessorRKN20ArchiveStorageHeader6HeaderERNS1_13DirectoryInfoE
kyi:_PKCS12_get_Keys_m3893933360
VZ:__ZNSt3__26__treeINS_12__value_typeIPKciEENS_19__map_value_compareIS3_S4_15compare_tstringIS3_ELb1EEENS_9allocatorIS4_EEE7destroyEPNS_11__tree_nodeIS4_PvEE
IVf:_Array_InternalArray__Insert_TisIntPtr_t_m189626842_gshared
s7e:_X509Certificate2_get_IssuerName_m1277209535
jnd:_RijndaelManaged_CreateEncryptor_m263736311
xDb:__ZN20DynamicPropertySheet14SetValueQueuedEN9ShaderLab16FastPropertyNameEN19ShaderPropertySheet12PropertyTypeEjNS2_8SetFlagsE
gTc:__ZN2UI6Canvas26MarkAllNestedCanvasesDirtyEv
bsg:_InvokableCallList_ClearPersistent_m1904264973
eva:__ZN16GeometryJobTasks20ScheduleGeometryJobsER9GfxDevicePFvP15GeometryJobDataEPK22GeometryJobInstructionjb
uub:__ZN25PathNamePersistentManagerD2Ev
SM:__ZN17PersistentManager48IntegrateObjectAndUnlockIntegrationMutexInternalEi
L4:__ZZ29InitializeSortingGroupManagerPvEN44PostLateUpdateSortingGroupsUpdateRegistrator7ForwardEv
vmi:__ZL55EventTrigger_t1076084509_CustomAttributesCacheGeneratorP21CustomAttributesCache
IHf:_SecurityElement_SearchForChildByTag_m900466299
wp:__ZN6Object12SetHideFlagsENS_9HideFlagsE
gqc:__ZN9b2Fixture11SynchronizeEP12b2BroadPhaseRK11b2TransformS4_
yGd:_Convert_ToSingle_m3227075028
VRj:_emscripten_glGetFramebufferAttachmentParameteriv__wrapper
IAb:__ZN13RendererScene15InitializeUmbraEv
ALa:__Z28CalculateGlobalMatrixInverse23TransformAccessReadOnly
f3f:_GenericEqualityComparer_1_Equals_m3457564127_gshared
fdf:_BigInteger_ModInverse_m2426215562
cMf:_DecoderExceptionFallback__ctor_m4044614564
rTd:_LocalDataStoreSlot__cctor_m644942532
SGj:__ZN6il2cpp6icalls8mscorlib6System6Object7GetTypeEP12Il2CppObject
T6d:_MonoProperty_CachePropertyInfo_m2968057423
z0c:__ZNK25UnityWebRequestJavaScript18GetDownloadedBytesEv
Syg:_Ray_GetPoint_m1852405345_AdjustorThunk
DMf:_Array_get_swapper_TisColor32_t2600501292_m2310851009_gshared
r0c:__ZN12HeaderHelper14SetUnvalidatedERKN4core12basic_stringIcNS0_20StringStorageDefaultIcEEEES6_b
iu:__ZN4FMOD6SoundI7releaseEv
B$a:__ZN14SpriteRenderer13AwakeFromLoadE17AwakeFromLoadMode
EEc:_cff_parse_num
iDa:__ZN10MemoryFile9SetLengthEy
dkb:__ZN5RectTIiE8TransferI24GenerateTypeTreeTransferEEvRT_
eUa:__ZN14SafeBinaryRead21TransferSTLStyleArrayI13dynamic_arrayI7Hash128Lj8EEEEvRT_17TransferMetaFlags
wtb:__Z28scripting_class_is_interface17ScriptingClassPtr
Ih:_glTexStorage2D
LCd:_SyncHashtable_get_Item_m2686606216
Raa:__ZNK9ShaderLab10SubProgram14EnsureCompiledEv
b2d:_MethodBuilder_GetGenericArguments_m1765425737
$pf:_DateTime_CompareTo_m3687348273
wBj:_GC_push_marked
hrf:_DateTime_ToUniversalTime_m1945318289_AdjustorThunk
ZKe:_Kernel_modInverse_m668448880
oP:__Z18BuildScriptClassId17ScriptingClassPtr
GSi:_TextGenerator_Init_m1168488231
JAa:__ZL31DeleteLastPathNameComponentImplRKN4core12basic_stringIcNS_20StringStorageDefaultIcEEEEPKc
JTb:__Z13RegisterClassI18DelayedCallManagerEvv
nZc:__ZN18UnityConnectClient15GetCloudServiceEv
Jfb:__Z29Transfer_Blittable_ArrayFieldI14SafeBinaryRead5RectTIiEEvRT_R9ArrayInfoRK23StaticTransferFieldInfo
kre:_InternalEnumerator_1_get_Current_m2698009637_gshared
q4i:__ZN6il2cpp2os19SocketHandleWrapperD2Ev
wFe:_Enumerator_System_Collections_IEnumerator_Reset_m278261807_gshared
Bqc:__ZN15b2CircleContact6CreateEP9b2FixtureiS1_iP16b2BlockAllocator
ptb:__ZL28SerializationCommandGroupForRK31TransferFunctionScriptingTraits17ScriptingClassPtr17ScriptingFieldPtrRK20CoreScriptingClasses
QFa:__ZN10TagManager32RegisterDefaultTagsAndLayerMasksEv
Zfg:_WaitHandle_Dispose_m738127030
iQg:__Z50RuntimeInvoker_Double_t594665363_Int32_t2950945753PFvvEPK10MethodInfoPvPS4_
vZg:__Z104RuntimeInvoker_Void_t1185182177_Color_t2555686324_Single_t1397266774_SByte_t1669577662_SByte_t1669577662PFvvEPK10MethodInfoPvPS4_
i7f:_Enumerator_System_Collections_IEnumerator_get_Current_m1540440674_gshared
DIf:_Single_System_IConvertible_ToInt16_m809233024_AdjustorThunk
uJj:_fmodf
DQe:_InputField_UpdateLabel_m1837760870
Pia:__ZN4gles8InitCapsEP7ApiGLESP12GraphicsCapsR16GfxDeviceLevelGL
pga:__ZN13GfxDeviceGLES22GetNativeBufferPointerEP9GfxBuffer
dJa:__Z24CalculateVertexLightDataRK15SharedLightDataR14GfxVertexLight
qi:_glEnable
Oaa:__ZNK9ShaderLab7Program28BeginReadUnsupportedVariantsEv
oW:__ZN12CachedWriter11Align4WriteEv
F4a:__ZNSt3__26vectorIN30RuntimeInitializeOnLoadManager9ClassInfoE13stl_allocatorIS2_L18MemLabelIdentifier13ELi16EEE7reserveEj
Bgc:__Z35Transfer_Blittable_FixedBufferFieldI9JSONWriteiEvRK29SerializationCommandArgumentsR31RuntimeSerializationCommandInfo
v3f:_Enumerator__ctor_m1590062855_AdjustorThunk
Aej:__ZN14dense_hash_mapI10KeyWrapperINSt3__24pairIPK10MethodInfoP11Il2CppClassEEEj17ReflectionMapHashIS8_ENS9_14EqualsComparerINS1_8equal_toIS8_EEEENS1_9allocatorINS2_IKS9_jEEEEEC2EjRKSB_RKSF_
SSd:_UnexceptionalStreamReader_Peek_m1842169584
OXc:__ZN11UnityEngine7Connect15DeviceInfoEvent16CollectExtraInfoEv
$ng:_Bounds_GetHashCode_m1844059663_AdjustorThunk
fkd:_CryptographicException__ctor_m1422015889
cGg:_Vector4_Equals_m1779210055_AdjustorThunk
rHd:_Convert_ChangeType_m739676612
xzj:__ZThn8_N6il2cpp2vm13CachedCCWBaseINS0_13ManagedObjectEE6AddRefEv
Zgf:_Alert_GetAlertMessage_m1942367141
Hde:_RemotingServices_GetRealProxy_m2081098851
OMe:_BlockProcessor_Core_m189015002
bSj:_emscripten_glScissor__wrapper
Go:FUNCTION_TABLE_viifi
Ho:FUNCTION_TABLE_viiff
Snd:_X501__cctor_m1166912714
UWe:_MaskUtilities_GetRectMasksForClip_m532898711
qLc:_UNITY_tt_face_free_hdmx
etc:__ZNSt3__26__sortIRN18Overlap2DQueryBase29ColliderHitsByDepthComparitorEPP10Collider2DEEvT0_S7_T_
Bog:_Bounds_ToString_m4208690781
zfj:__ZN6il2cpp2vm14TypeNameParser5ParseEb
ITd:_Math_Sqrt_m1297338011
FRd:_StreamWriter_Initialize_m3490883444
wig:_Type_GetGenericArguments_m3500465462
u$c:__ZN23UnityPurchasingSettingsC2Ev
a5d:_Module_IsDefined_m2423524910
B_d:_DerivedType_create_unmanaged_type_m747846525
Kji:__ZL60EventType_t3528516131_CustomAttributesCacheGenerator_repaintP21CustomAttributesCache
UHa:__ZN17GPUFenceInternals7ReleaseEv
Nri:__ZL66Selectable_t3250028441_CustomAttributesCacheGenerator_m_NavigationP21CustomAttributesCache
qMb:__ZL10RenderFaceR9GfxDeviceR18MaterialStateCacheP13RenderTextureiif
zRf:_Array_IndexOf_TisCustomAttributeNamedArgument_t287865710_m2817957199_gshared
A7:__ZN15SerializeTraitsI13dynamic_arrayIN9ShaderLab21SerializedBindChannelELj4EEE19ResizeSTLStyleArrayERS3_i
Jpj:__ZNK24NamespaceAndNamePairHashclERKNSt3__24pairIPKcS3_EE
lxi:_ExtendedKeyUsageExtension_ToString_m2116504780
z7a:__ZNK5Unity9Component38MarkGameObjectAndComponentDependenciesER27GarbageCollectorThreadState
OMd:_BinaryReader_Read_m3708759962
O0c:__ZN20UnityWebRequestProtoI24UnityWebRequestTransport16AtomicRefCounter14RedirectHelper14ResponseHelper15DownloadHandler13UploadHandler12HeaderHelper14AsyncOperationED0Ev
Fnc:__Z5b2LogPKcz
uia:__ZN9GfxDevice26CreateDefaultVertexBuffersEv
uTj:_emscripten_glVertexAttrib2fv__wrapper
eSd:_SynchronizedReader_ReadToEnd_m2160105378
Yvf:_Double_System_IConvertible_ToUInt16_m4132603953_AdjustorThunk
Nla:__ZN4crnd12symbol_codec32decode_receive_static_data_modelERNS_25static_huffman_data_modelE
KRb:__ZN18ScriptingArguments8AddFloatEf
xDg:_TouchScreenKeyboard_Open_m3325559252
ngd:_Image_set_fillOrigin_m469806249
CXc:__ZN11UnityEngine15PlatformWrapper16GetVRRenderScaleEv
Bhc:__Z18Transfer_BlittableI9JSONWriteLb0EaEvRK29SerializationCommandArgumentsR31RuntimeSerializationCommandInfo
QF:__ZN11UnityEngine15CloudWebService14DataDispatcher34OnSessionContainerArchivedAndReadyERNS0_16SessionContainerE
uwg:_ConnectionChangeEvent__ctor_m764126802
pnc:__ZN7b2World11CreateJointEPK10b2JointDef
o8d:_ResolveEventHandler_Invoke_m1337322179
a6f:_Enumerator_VerifyState_m2621680056_gshared
XFi:_UriParser_InternalRegister_m3643767086
Y5:__ZN14SafeBinaryRead19TransferSTLStyleMapINSt3__23mapIN4core12basic_stringIcNS3_20StringStorageDefaultIcEEEEiNS1_4lessIS7_EENS1_9allocatorINS1_4pairIKS7_iEEEEEEEEvRT_17TransferMetaFlags
CJc:_gray_move_to
esf:_DBNull_System_IConvertible_ToSingle_m13713620
Tsh:_ReadOnlyCollection_1_System_Collections_IList_Contains_m1327645028_gshared
Agd:_Image_GetDrawingDimensions_m3060965396
khi:__ZL69FontTextureRebuildCallback_t2467502454_CustomAttributesCacheGeneratorP21CustomAttributesCache
Pig:_TypeLoadException__ctor_m1154572625
ukf:_Context_get_WriteSequenceNumber_m1115956887
QMh:_Dictionary_2_Do_ICollectionCopyTo_TisKeyValuePair_2_t2401056908_m1169495264_gshared
N2d:_OpCodes__cctor_m3821715395
nad:_ContentSizeFitter__ctor_m2349275633
PIc:_tt_cmap_init
Tlc:__ZN8JSONRead8TransferI9BoundsIntEEvRT_PKc17TransferMetaFlagsb
Ka:invoke_viidi
rLh:_Array_Sort_TisOrderBlock_t1585977831_m2922111197_gshared
$dd:_Graphic_OnRectTransformDimensionsChange_m3695755375
Oid:_SByte_System_IConvertible_ToChar_m1489191771_AdjustorThunk
Lw:__ZN9AudioClip7CleanupEv
dkj:__ZNK15dense_hashtableINSt3__24pairIK10KeyWrapperIP11Il2CppClassES4_EES5_N6il2cpp8metadata16SZArrayClassHashEN14dense_hash_mapIS5_S4_SA_NS5_14EqualsComparerINS9_19SZArrayClassCompareEEENS0_9allocatorIS7_EEE9SelectKeyESE_SG_E12test_deletedEj
ukc:__Z18Transfer_BlittableI8JSONReadLb0EdEvRK29SerializationCommandArgumentsR31RuntimeSerializationCommandInfo
Vee:_SynchronizationAttribute_EnterContext_m1660729920
vUi:_Canvas_get_referencePixelsPerUnit_m3420541976
dHi:_Event_get_current_m2393892120
mLi:_VertexHelper_Clear_m627349662
rda:__ZNK9GfxDevice13GetViewMatrixEv
nTd:_UnmanagedMemoryStream_Dispose_m2681886347
z6a:__ZN17RemapPPtrTransferC2E24TransferInstructionFlagsb
zne:_InternalEnumerator_1_System_Collections_IEnumerator_get_Current_m1295084274_gshared
lFd:_Convert_ToDecimal_m889385228
MQ:__ZN8TypeTree8BlobReadERPKhS1_ib
Bsd:_Array_Reverse_m3714848183
vcd:_Dropdown_ClearOptions_m4085591601
A9c:_CanvasUpdateRegistry_InternalRegisterCanvasElementForGraphicRebuild_m3522560454
a5a:__ZN18LoadSceneOperation23GetAllowSceneActivationEv
oGa:__ZN6CameraD0Ev
x3:__ZN31CanvasBatchIntermediateRenderer16StaticInitializeEPv
t4a:__ZN14SafeBinaryRead21TransferSTLStyleArrayINSt3__26vectorIi13stl_allocatorIiL18MemLabelIdentifier13ELi16EEEEEEvRT_17TransferMetaFlags
X9f:_EncoderFallback__cctor_m3806755293
zPc:_raccess_guess_apple_double
Spa:__ZL18ProgramUniform1uivPK7ApiGLESjiihPKv
iXb:__ZN14Texture2DArray13RebuildMipMapEv
H_i:__ZN13Il2CppHashSetIPK17Il2CppGenericInstN6il2cpp8metadata21Il2CppGenericInstHashENS4_24Il2CppGenericInstCompareENSt3__29allocatorI10KeyWrapperIS2_EEEEC2EjRKS5_RKS6_
Jdb:__Z18Transfer_BlittableI14SafeBinaryReadLb1EaEvRK29SerializationCommandArgumentsR31RuntimeSerializationCommandInfo
iwj:__ZN6il2cpp2gc16GarbageCollector14RemoveWeakLinkEPPv
vba:__ZN9ShaderLab20SerializedSubProgram14AddVectorParamEPKcii15ShaderParamTypei
Mah:_List_1_GetEnumerator_m563931292_gshared
MUc:__ZN2UI14CanvasRenderer12CleanupClassEv
TDd:_Enumerator__ctor_m3362421874
AXg:__Z117RuntimeInvoker_CSSSize_t3377836552_IntPtr_t_Single_t1397266774_Int32_t2950945753_Single_t1397266774_Int32_t2950945753PFvvEPK10MethodInfoPvPS4_
xXj:_emscripten_glIsFramebuffer__wrapper
htj:__ZN6il2cpp2vm6Object3BoxEP11Il2CppClassPv
Tkj:__ZN6il2cpp2vm6Thread7SetNameEP12Il2CppThreadP12Il2CppString
Cvb:__ZN13ScreenManager18SetAllowCursorLockEb
iH:__ZN11UnityEngine15CloudWebService10RestClientINS0_23WebRequestRestHeaderMapEE16SetRequestHeaderERKN4core12basic_stringIcNS4_20StringStorageDefaultIcEEEESA_
y4a:__ZN30RuntimeInitializeOnLoadManager15ClassMethodInfo8TransferI14SafeBinaryReadEEvRT_
Gfe:_ConstructionCall_InitDictionary_m2824447813
HD:__ZL22InitializeModule_Audiov
zbb:__ZN16MemoryFileSystem8IsLockedERK13FileEntryData
knj:__ZN6il2cpp6icalls8mscorlib6System2IO6MonoIO5WriteEiP11Il2CppArrayiiPi
dvg:_Mathf_InverseLerp_m4155825980
vNg:__Z92RuntimeInvoker_RuntimeObject_RuntimeObject_RuntimeObject_SByte_t1669577662_SByte_t1669577662PFvvEPK10MethodInfoPvPS4_
cl:_emscripten_glBindRenderbuffer
wCj:_GC_dirty_init
Cqj:__ZN6il2cpp2vm5Image33GetCachedMemoryMappedResourceFileEP24Il2CppReflectionAssembly
Vsj:__ZN6il2cpp2vm5Field14GetValueObjectEP9FieldInfoP12Il2CppObject
oUc:__ZNK2UI6Canvas16GetTargetDisplayEv
Hgg:_TimeSpan_CompareTo_m3633415627_AdjustorThunk
m1:__ZN6Object17FindObjectsOfTypeEPKN5Unity4TypeER13dynamic_arrayIPS_Lj4EEb
MWe:_MaskableGraphic_OnTransformParentChanged_m329502413
Osb:__ZN13MonoBehaviour17RemoveFromManagerEv
EFg:_Vector3_get_Item_m668685504_AdjustorThunk
VGa:__ZN12ImageFilters14AddImageFilterERK11ImageFilter
C5d:_MonoEventInfo_GetEventInfo_m873645389
Tde:_Context_NotifyDynamicSinks_m1841702879
FHi:_GUIUtility_get_pixelsPerPoint_m2369948084
uHf:_WindowsIdentity_System_Runtime_Serialization_IDeserializationCallback_OnDeserialization_m3428853631
tK:__ZN13MemoryManagerC2Ev
Lta:__ZN12SkinMeshInfo10DeallocateEPS_
l_e:_ScrollRect_SetDirty_m214267968
xDa:__ZN20ArchiveStorageReader28AcquireAndPrefillUnusedBlockEjPNS_11CacheResultE
oud:_Boolean_System_IConvertible_ToDateTime_m603510836
cXb:__Z12NHxRoughnessIA4_tEvP9Texture2DPT_iiii
pMe:_ASN1_get_Value_m1857007406
G1:__ZN18AsyncUploadManagerD2Ev
b9a:__ZN9Transform5ResetEv
kuf:_Decimal_op_Explicit_m1842265407
tkb:__Z22TransferField_NonArrayI24GenerateTypeTreeTransfer16Converter_StringEvRK23StaticTransferFieldInfoR31RuntimeSerializationCommandInfoRT0_
L2h:__ZL52Activator_t1841325713_CustomAttributesCacheGeneratorP21CustomAttributesCache
iFc:_UNITY_FT_CMap_New
Zne:_InternalEnumerator_1_get_Current_m4241643334_AdjustorThunk
vvb:__Z17MainLoopKeepalivePv
nue:_InternalEnumerator_1_get_Current_m1588647567_AdjustorThunk
AIj:_printf_core
yYh:__ZL51GCHandle_t3351438187_CustomAttributesCacheGeneratorP21CustomAttributesCache
aRe:_InputField_get_caretBlinkRate_m3620074524
sDb:__Z19SetupLODFadeKeywordR17ShaderPassContexti
qDf:_RSAPKCS1SignatureFormatter_CreateSignature_m3191980616
VOa:__ZN10builtintex16GetDefaultTexEnvE16TextureDimensionb
nta:__ZL25CheckCopyTextureArgumentsRK7ApiGLESP11GLESTextureS3_
kWj:_glDeleteShader__wrapper
Sjb:__Z29Transfer_Blittable_ArrayFieldI24GenerateTypeTreeTransferyEvRT_R9ArrayInfoRK23StaticTransferFieldInfo
wx:__ZN4FMOD7SystemI9playSoundE17FMOD_CHANNELINDEXPNS_5SoundEbPPNS_7ChannelE
zLd:_Int64_GetHashCode_m703091690
Tzf:_CultureInfo_set_DateTimeFormat_m1843682751
cyc:__ZN17PhysicsMaterial2D5ResetEv
YGi:_Event_get_commandName_m4275147343
ruf:_Decimal_op_Implicit_m4256234411
Xv:__ZN12AudioManager23VirtualRedirectTransferER18StreamedBinaryReadILb0EE
YJg:__Z60RuntimeInvoker_RuntimeObject_RuntimeObject_Int16_t2552820387PFvvEPK10MethodInfoPvPS4_
AZa:__ZN10VertexData13SwapEndianessEv
iRd:_StreamReader__ctor_m3941437302
X9b:__Z57Register_UnityEngine_Transform_INTERNAL_get_localRotationv
NOj:dynCall_viif
Ir:__ZN7mecanim4hand8HandPoseC2Ev
$Rd:_StringReader_ReadLine_m2337102945
yhb:__ZL26Transfer_SimpleNativeClassI17RemapPPtrTransfer8GradientLb0EEvRK29SerializationCommandArgumentsR31RuntimeSerializationCommandInfo
OCd:_SyncHashtable_Add_m3016107307
Xud:_Boolean_Equals_m2410333903_AdjustorThunk
_eh:_List_1_System_Collections_IList_Contains_m2131605266_gshared
nPj:dynCall_viifffi
dI:__ZN13UploadHandlerD2Ev
hNj:dynCall_viiiiiffi
Ec:_emscripten_glBlendFuncSeparate
tnh:_Collection_1_Add_m809543251_gshared
HO:__Z20scripting_string_newPKc
i8b:__Z43Material_CUSTOM_Internal_CreateWithMaterialP12Il2CppObjectS0_
fFi:_Parser_IsSingleline_m326238187
SAd:_CollectionBase_get_Count_m1708965601
Cld:_HMAC__ctor_m97939284
cmg:_ValueType_DefaultEquals_m2927252100
Zfc:__ZN9JSONWrite12AppendToNodeEPN5Unity9rapidjson12GenericValueINS1_4UTF8IcEE13JSONAllocatorEEPKcRS6_
wMe:_ASN1_ToString_m1340204511
Upc:__ZN16PhysicsManager2D20GetRigidBodyVelocityERK11Rigidbody2D
t8e:_X509Store_get_Certificates_m2149701265
koi:__ZL144StandaloneInputModule_t2760469101_CustomAttributesCacheGenerator_StandaloneInputModule_t2760469101____allowActivationOnMobileDevice_PropertyInfoP21CustomAttributesCache
Obg:_StringBuilder_set_Chars_m3548656617
$7i:__ZN6il2cpp2os4File17GetFileAttributesERKNSt3__212basic_stringIcNS2_11char_traitsIcEENS2_9allocatorIcEEEEPi
av:__ZN17AudioCustomFilterD2Ev
B2g:__Z56RuntimeInvoker_Void_t1185182177_MonoResource_t4103430009PFvvEPK10MethodInfoPvPS4_
pAj:_GC_unpromote_black_lists
Era:__ZN18GfxFramebufferGLES18ReleaseFramebufferEP17RenderSurfaceBaseP14GfxContextGLES
kjc:__Z18Transfer_BlittableI8JSONReadLb1EiEvRK29SerializationCommandArgumentsR31RuntimeSerializationCommandInfo
sJ:__ZN19CloudServiceHandler34HandleSaveFileWebRequestPlayerLoopEv
Ku:__Z31GetParentSampleClipFromInstancePN11SoundHandle8InstanceE
hVb:__ZNK28RectTransformPropertyBinding13GetFloatValueERKN11UnityEngine9Animation10BoundCurveE
NMb:__ZN6Camera22StandaloneCustomRenderENS_10RenderFlagEP6ShaderRKN4core12basic_stringIcNS3_20StringStorageDefaultIcEEEEPNS_21PerformRenderFunctionE
VRf:_Array_InternalArray__IndexOf_TisKeyValuePair_2_t2401056908_m4118889689_gshared
Q3a:__ZNSt3__26vectorI4PPtrI6ObjectE13stl_allocatorIS3_L18MemLabelIdentifier52ELi16EEE6assignINS_11__wrap_iterIPS3_EEEENS_9enable_ifIXaasr21__is_forward_iteratorIT_EE5valuesr16is_constructibleIS3_NS_15iterator_traitsISD_E9referenceEEE5valueEvE4typeESD_SD_
nHj:__ZN6il2cpp2os16ThreadLocalValue8GetValueEPPv
w7e:_X509Certificate2_get_PublicKey_m370665820
vCc:_cff_slot_init
_2i:__ZN6il2cpp2vm13MetadataCache14GetGenericInstEPKPK10Il2CppTypej
KD:__ZN13AudioListener17ReadExtensionNameEi
Ob:invoke_iiidii
mp:setThrew
VWb:__ZL21BuildEmptyCubeTexturePKci11ColorRGBA3217TextureColorSpace
$5:__ZN14SafeBinaryRead21TransferSTLStyleArrayINSt3__26vectorIN9ShaderLab20SerializedSubProgramENS1_9allocatorIS4_EEEEEEvRT_17TransferMetaFlags
sSf:_Array_InternalArray__IndexOf_TisX509ChainStatus_t133602714_m48896230_gshared
aCa:__ZN19dynamic_block_arrayI13FileEntryInfoLj32EE4growEj
tjc:__Z15Transfer_StringI8JSONReadLb1EEvRK29SerializationCommandArgumentsR31RuntimeSerializationCommandInfo
noa:__ZN6prcoreL17RemapGenericFloatI17TexFormatRGBFloat15TexFormatRGHalfEEvPKNS_9InnerInfoE
CHc:_sfnt_load_face
YOc:_UNITY_FT_Render_Glyph_Internal
ymj:__ZNSt3__212basic_stringIDsNS_11char_traitsIDsEENS_9allocatorIDsEEE21__grow_by_and_replaceEjjjjjjPKDs
CFc:_UNITY_ft_service_list_lookup
$cc:__ZN5IMGUI21SelectReceivingWindowER8GUIStateb
Sld:_HMAC_Initialize_m3157696427
itf:_Decimal_System_IConvertible_ToUInt64_m1323635232
AJj:___strchrnul
UJ:__ZN13BaseAllocator13TryDeallocateEPv
p6e:_X509SubjectKeyIdentifierExtension__ctor_m2055934916
cIa:__ZNSt3__26vectorIN12FlareManager10FlareEntryENS_9allocatorIS2_EEE21__push_back_slow_pathIKS2_EEvRT_
wIj:_sprintf
n3b:__ZN9Scripting25CreateNullExceptionObjectE18ScriptingObjectPtr
GOe:_PrivateKeyInfo_DecodeRSA_m2889346634
Ev:__ZN13AudioListener17RemoveFromManagerEv
yd:_glAttachShader
yad:_ContentSizeFitter_SetLayoutHorizontal_m2833273874
lM:__ZNK6Camera19GetProjectionMatrixEv
wqi:__ZL70InputField_t3762917431_CustomAttributesCacheGenerator_m_SelectionColorP21CustomAttributesCache
CRe:_InputField_SetToCustomIfContentTypeIsNot_m2813459946
Cei:__ZL70RuntimePlatform_t4159857903_CustomAttributesCacheGenerator_FlashPlayerP21CustomAttributesCache
LBf:_Guid_GetHashCode_m3042133858_AdjustorThunk
gO:__Z38PreallocateObjectFromPersistentManagerib
obf:_Interpreter_Backtrack_m2828876822
vSa:__ZNK9Texture2D20GetUnscaledTextureIDEv
cjd:_SByte_System_IConvertible_ToType_m4075253447
AUj:_glFenceSync__wrapper
sEg:_Transform_INTERNAL_get_worldToLocalMatrix_m2730237241
SSe:_InputField_IsValidChar_m1928072643
ASa:__ZNK9Texture2D26CanReuploadDataToGfxDeviceEv
$0h:__ZL63CodeAccessPermission_t2681295399_CustomAttributesCacheGeneratorP21CustomAttributesCache
N5a:__Z29ClearRepeatingLogMessageStatev
Ase:_InternalEnumerator_1_get_Current_m3191242573_gshared
Zvd:_Byte_Equals_m1161982810_AdjustorThunk
onf:_SslCipherSuite_ComputeMasterSecret_m3963626850
GHj:__ZNK6il2cpp8metadata21Il2CppGenericInstHashclEPK17Il2CppGenericInst
Ixa:__ZN7ApiGLESD2Ev
jFa:__ZN9Transform47ClearTransformHierarchyAndApplyToSerializedDataEv
Ikc:__ZN8JSONRead21TransferSTLStyleArrayINSt3__26vectorI8MonoPPtr13stl_allocatorIS3_L18MemLabelIdentifier1ELi16EEEEEEvRT_17TransferMetaFlags
uGa:__ZN6Camera23VirtualRedirectTransferER19StreamedBinaryWriteILb0EE
cPj:dynCall_fidi
n9i:__ZN15dense_hashtableINSt3__24pairIK10KeyWrapperINS1_IPK9FieldInfoP11Il2CppClassEEEjEES9_17ReflectionMapHashIS8_EN14dense_hash_mapIS9_jSD_NS9_14EqualsComparerINS0_8equal_toIS8_EEEENS0_9allocatorISB_EEE9SelectKeyESI_SK_E12resize_deltaEjj
QHi:_GUILayoutEntry__ctor_m2229197035
oU:__ZN15dense_hashtableINSt3__24pairIKN9ShaderLab7Program23ShaderKeywordSetAndHashEPKNS2_10SubProgramEEES4_NS3_24ShaderKeywordHashFunctorEN14dense_hash_mapIS4_S8_SA_NS0_8equal_toIS4_EE13stl_allocatorIS9_L18MemLabelIdentifier67ELi16EEE9SelectKeyESD_SG_E15insert_noresizeERKS9_
bNa:__ZN13RenderTexture12SetDimensionE16TextureDimension
aNe:_DSAManaged_add_KeyGenerated_m2286864968
oe:_SDL_FreeRW
yVc:__Z34CanvasRenderer_Get_Custom_PropCullP12Il2CppObject
sB:__ZN20SoundChannelInstance8getDelayE14FMOD_DELAYTYPEPjS1_
FU:__ZNSt3__26vectorIN20GpuProgramParameters15StructParameterENS_9allocatorIS2_EEEC2ERKS5_
cme:_ArrayReadOnlyList_1_Contains_m232667507_gshared
NPg:__Z77RuntimeInvoker_Boolean_t97287965_IntPtr_t_Int32_t2950945753_SByte_t1669577662PFvvEPK10MethodInfoPvPS4_
Kxg:_PlayableHandle_GetPlayableType_m432385838_AdjustorThunk
NNc:__ZNSt3__26vectorIN20TextRenderingPrivate8FontImpl13CharacterInfoE13stl_allocatorIS3_L18MemLabelIdentifier1ELi16EEE8__appendEj
v:tempBigInt
HIh:_Array_InternalArray__Insert_TisKeyframe_t4206410242_m1558638568_gshared
we:_emscripten_glVertexAttrib1fv
I6:__ZNSt3__26vectorIN9ShaderLab20SerializedSubProgram12UAVParameterENS_9allocatorIS3_EEE7reserveEj
cMj:__ZSt11__terminatePFvvE
Wx:__ZN12AudioManager14systemCallbackEP11FMOD_SYSTEM24FMOD_SYSTEM_CALLBACKTYPEPvS3_
Cwh:_ReadOnlyCollection_1_System_Collections_Generic_ICollectionU3CTU3E_Clear_m3451551308_gshared
i8c:_BaseMeshEffect_OnEnable_m3291426649
Dt:__ZN10SampleClip23VirtualRedirectTransferER24GenerateTypeTreeTransfer
eCj:_clear_marks_for_block
CMa:__ZN16ReflectionProbes16UpdateSampleDataEv
$zf:_CultureInfo_GetCultureInfo_m56098747
QJb:__Z20AddActiveLocalLightsR11CullResultsR27LocalLightCullingParametersPPK15SharedLightDataPK8Vector4fRK9IndexListPfRSA_R12ActiveLightsSG_P5RectTIfEP13TargetEyeMask
rUh:__ZL80Hashtable_t1853889766_CustomAttributesCacheGenerator_Hashtable__ctor_m1763145853P21CustomAttributesCache
gFd:_Convert_ToDecimal_m1284148187
jph:_Collection_1__ctor_m3489157029_gshared
dSj:_emscripten_glRenderbufferStorage__wrapper
Vfj:__ZNK6il2cpp2vm14TypeNameParser10NextWillBeEcb
YCc:_cf2_getNormalizedVector
Te:_JS_Sound_Play
zxh:_ReadOnlyCollection_1_System_Collections_IList_set_Item_m1538987737_gshared
n5:__ZN9ShaderLab16SerializedShader8TransferI14SafeBinaryReadEEvRT_
yfd:_GridLayoutGroup_set_constraint_m3308895167
Zfe:_ConstructionCallDictionary_SetMethodProperty_m3145285304
rKd:_Int32_System_IConvertible_ToUInt32_m3557270157
$Tg:__Z243RuntimeInvoker_Void_t1185182177_Int16_t2552820387_RuntimeObject_Int32_t2950945753_Int32_t2950945753_Int32_t2950945753_SByte_t1669577662_SByte_t1669577662_SByte_t1669577662_SByte_t1669577662_Int16_t2552820387_SByte_t1669577662_SByte_t1669577662PFvvEPK10MethodInfoPvPS4_
Xme:_InternalEnumerator_1_System_Collections_IEnumerator_get_Current_m1503522504_gshared
NXb:__ZN19ShaderPropertySheet16SetVectorIndexedEN9ShaderLab16FastPropertyNameEifRK8Vector4fNS_8SetFlagsE
zhg:_Type_get_IsAbstract_m1120089130
KFg:_Vector3_get_normalized_m2454957984_AdjustorThunk
EGi:_UriFormatException__ctor_m1115096473
Sij:__ZN15dense_hashtableINSt3__24pairIK10KeyWrapperINS1_IP11Il2CppClassjEEES4_EES6_N6il2cpp8metadata14ArrayClassHashEN14dense_hash_mapIS6_S4_SB_NS6_14EqualsComparerINSA_17ArrayClassCompareEEENS0_9allocatorIS8_EEE9SelectKeyESF_SH_E9copy_fromERKSK_j
zJi:_GUIUtility_IsExitGUIException_m3644066650
$I:__ZN11UnityEngine15CloudWebService14DataDispatcher4StopEv
lad:_ColorBlock_GetHashCode_m4264192507
gId:_Int16_System_IConvertible_ToUInt64_m134975563
K6:__ZNSt3__26vectorIN9ShaderLab20SerializedSubProgram12UAVParameterENS_9allocatorIS3_EEE8__appendEj
Tcc:__ZN5IMGUI9GUIWindow5OnGUIER8GUIState
zIf:_Single_System_IConvertible_ToDecimal_m325860800_AdjustorThunk
RUf:_Array_InternalArray__ICollection_CopyTo_TisSingle_t1397266774_m455540885_gshared
YAa:__ZN17ScriptingGCHandle7AcquireE18ScriptingObjectPtr25ScriptingGCHandleWeakness
$Rg:__Z74RuntimeInvoker_RuntimeObject_RuntimeObject_Int64_t3736567304_RuntimeObjectPFvvEPK10MethodInfoPvPS4_
yTc:__ZN2UI14CanvasRenderer14AttachToCanvasER8JobFencePNS_6CanvasENS0_15InstructionTypeE
ZNj:dynCall_iifiii
nma:__Z21HasAlphaTextureFormat13TextureFormat
$C:__ZN12AudioManager6UpdateEv
gma:__ZN14ImageReference9BlitImageERKS_NS_8BlitModeE
k9e:_X509Chain__ctor_m2674663382
Dwh:_ReadOnlyCollection_1_System_Collections_Generic_IListU3CTU3E_Insert_m1121807192_gshared
Itb:__ZN23CachedSerializationDataD2Ev
NLb:__ZNK25CameraStackRenderingState31CalculateStereoCameraTargetTypeEv
cMa:__ZN14RenderSettings23VirtualRedirectTransferER14SafeBinaryRead
Ive:_InternalEnumerator_1_get_Current_m114240259_gshared
usc:__ZNK13b2CircleShape5CloneEP16b2BlockAllocator
ivj:__ZN6il2cpp2os10ThreadImpl15CurrentThreadIdEv
RIh:_Array_InternalArray__Insert_TisVector2_t2156229523_m2148694950_gshared
REf:_SymmetricAlgorithm_get_Key_m3241860519
WTe:_U3CMouseDragOutsideRectU3Ec__Iterator1_Reset_m2233410497
mRe:_InputField_set_customCaretColor_m720445789
wLc:_UNITY_tt_face_load_fpgm
dFa:__Z17IsObjectAvailablei
U0a:__ZN12InputManagerD0Ev
vih:_Queue_1_Peek_m1713833142_gshared
keg:_ExecutionContext_Capture_m681135907
noe:_InternalEnumerator_1_System_Collections_IEnumerator_get_Current_m2889979481_AdjustorThunk
YKj:_posix_memalign
tMe:_ASN1_GetBytes_m3305539297
kO:__ZNK15MonoScriptCache7ReleaseEv
vZi:__ZN6il2cpp2vm5Class13HasReferencesEP11Il2CppClass
gg:_glBindTexture
nJj:_snprintf
pZg:__Z50RuntimeInvoker_RuntimeObject_Resources_t1597885468PFvvEPK10MethodInfoPvPS4_
xbc:__Z51Register_UnityEngine_Physics2D_get_gravity_Injectedv
l7a:__Z36scripting_liveness_calculation_begin17ScriptingClassPtriPFvPP12Il2CppObjectiPvES3_PFvvES7_
MRi:_AudioExtensionManager_RemoveExtensionFromManager_m442924172
TRj:_emscripten_glGetProgramInfoLog__wrapper
Ms:__ZN25AnimatedPropertyEvaluator29BindCurveToScriptingObjectPtrERKN13AnimationClip10FloatCurveEj18ScriptingObjectPtrb
_0h:__ZL80AllowPartiallyTrustedCallersAttribute_t1828959166_CustomAttributesCacheGeneratorP21CustomAttributesCache
gQ:__ZN17PersistentManager23DestroyFromFileInternalEi
erg:_Display__ctor_m501911701
lth:_ReadOnlyCollection_1_System_Collections_Generic_IListU3CTU3E_Insert_m1020890112_gshared
wbd:_DefaultControls_SetDefaultTextValues_m1943359795
YEb:__Z19SetupMotionMatricesR6CameraR18RPDataMotionVector
aYi:__ZL7log2_64y
tfd:_GridLayoutGroup_get_cellSize_m2967185053
lof:_CurrentSystemTimeZone_GetUtcOffset_m340358963
Nxi:_PKCS12_Decrypt_m1280162536
woe:_InternalEnumerator_1_get_Current_m3081223448_gshared
gHi:_Event_get_isMouse_m1058251071
MKa:__ZN10VertexDataC2ERKS_17ShaderChannelMask10MemLabelId
yAd:_CaseInsensitiveHashCodeProvider_AreEqual_m1790260777
dGc:_otv_JSTF_validate
IU:__ZN22CreateGpuProgramOutputC2Ev
psg:_PersistentCallGroup_Initialize_m4253175514
nud:_Boolean_System_IConvertible_ToChar_m4279513009_AdjustorThunk
xBd:_Hashtable__ctor_m1763145853
lge:_LogicalCallContext__ctor_m1263247987
vJd:_NumberFormatter_ScaleOrder_m3813786990
HOe:_PrivateKeyInfo_DecodeDSA_m771724585
Gaj:__ZNK15dense_hashtableINSt3__24pairIK10KeyWrapperINS1_IPK10MethodInfoP11Il2CppClassEEEjEES9_17ReflectionMapHashIS8_EN14dense_hash_mapIS9_jSD_NS9_14EqualsComparerINS0_8equal_toIS8_EEEENS0_9allocatorISB_EEE9SelectKeyESI_SK_E23find_position_with_hashERSA_j
HYb:__ZN8GUILayer12CleanupClassEv
fkg:_UInt32_System_IConvertible_ToSByte_m1061556466
_ce:_WellKnownClientTypeEntry__ctor_m2471908952
uZi:__ZN6il2cpp2vm5Class4InitEP11Il2CppClass
ha:invoke_vidi
AWd:_NumberFormatter_FormatRoundtrip_m19342689
dbe:_RemotingServices_CreateClientProxyForContextBound_m783705199
Tsd:_Array_slow_swapper_m4116724811
PTc:__ZN2UI14CanvasRenderer17SyncDirtyElementsER8JobFence
RAe:_Enumerator_System_Collections_IEnumerator_get_Current_m3816090481_gshared
byj:__ZN6il2cpp5utils11StringUtils15StringDuplicateEPKc
i$f:_DefaultComparer_Equals_m2480133610_gshared
_T:__ZNK9ShaderLab21ShaderRasterStateDesc16ToGfxRasterStateEPK19ShaderPropertySheetS3_R14GfxRasterState
OLh:_Array_Sort_TisVector3_t3722313464_m1915176437_gshared
uHj:__ZN6il2cpp2os9EventImplC2Ebb
_bh:_List_1_get_Item_m2113769949_gshared
jIa:__ZN12FlareManager12RemoveCameraER6Camera
YU:__Z20IsMatrixBuiltinParamPKcPi
iGf:_String_memcpy4_m979367827
ocg:_UnicodeEncoding_GetBytesInternal_m1902824297
uXb:__ZN8Renderer19PostInitializeClassEv
qRf:_Array_FindIndex_TisRuntimeObject_m2504082708_gshared
Vdc:__Z38Register_UnityEngine_Event_get_rawTypev
Ezi:_X509Chain_FindCertificateRoot_m1937726457
JDj:__ZN6il2cpp6icalls8mscorlib6System8Delegate23CreateDelegate_internalEP20Il2CppReflectionTypeP12Il2CppObjectP22Il2CppReflectionMethodb
SBe:_Enumerator_System_Collections_IEnumerator_get_Current_m921113401_AdjustorThunk
SKb:__ZNK13RendererScene22GetStaticBoundingBoxesEv
atb:__ZN18DelayedCallManager18CancelCallDelayed2E4PPtrI6ObjectEPF15CallObjectStatePS1_PvES7_
gvg:_Matrix4x4_GetHashCode_m4034747639
Kya:__ZN25ThreadsafeLinearAllocator10ReallocateEPvji
_cb:__Z18Transfer_BlittableI14SafeBinaryReadLb1E11QuaternionfEvRK29SerializationCommandArgumentsR31RuntimeSerializationCommandInfo
H4:__ZN18SpriteAtlasManagerD0Ev
JZa:__ZN10Matrix4x4f8TransferI14SafeBinaryReadEEvRT_
ckd:_CryptographicUnexpectedOperationException__ctor_m2381988196
Xdj:__ZN14dense_hash_mapI10KeyWrapperIPK22Il2CppGenericParameterEPK24MonoGenericParameterInfoN6il2cpp5utils11PointerHashIS2_EENS4_14EqualsComparerINSt3__28equal_toIS3_EEEENSD_9allocatorINSD_4pairIKS4_S7_EEEEE15set_deleted_keyERSJ_
$qe:_InternalEnumerator_1_System_Collections_IEnumerator_get_Current_m4213507601_gshared
k$:__Z6AppendRKN4core12basic_stringIcNS_20StringStorageDefaultIcEEEEPKc
sJi:_GUIUtility_RemoveCapture_m1294193818
hia:__ZN7ApiGLES18ClearBufferSubDataEjN2gl12BufferTargetEll
z4b:__Z37Camera_Get_Custom_PropAllCamerasCountv
fYa:__ZN14Texture2DArray8TransferI18StreamedBinaryReadILb0EEEEvRT_
ZIb:__Z18ApplyOcclusionMaskR19ProbeOcclusionCacheRK17LightProbeContextRK10RenderNodeb
ZMc:_Split_Cubic
eb:invoke_fiiii
tTe:_InputField_OnSubmit_m3583210804
RFi:_Uri_CheckHostName_m2213216182
qTj:_emscripten_glBindRenderbuffer__wrapper
rNh:_Mesh_SetUvsImpl_TisVector2_t2156229523_m3009194955_gshared
bmg:_ValueType_InternalEquals_m1384040357
QLh:_Array_Sort_TisVector4_t3319028937_TisVector4_t3319028937_m4254533673_gshared
Jyd:_ArrayListWrapper_Contains_m2641184447
LMc:_ft_black_render
iPg:__Z177RuntimeInvoker_Int32_t2950945753_RuntimeObject_Int32_t2950945753_Int32_t2950945753_RuntimeObject_Int32_t2950945753_EncoderFallbackBufferU26_t2343550713_CharU5BU5DU26_t3299466565PFvvEPK10MethodInfoPvPS4_
jPj:dynCall_viiifi
Rqa:__ZN18GfxFramebufferGLES20ActiveContextChangedEPP17RenderSurfaceBaseS2_
Iqa:__Z19PluginsRenderMarkeri
R6:__ZNSt3__26vectorIN9ShaderLab20SerializedSubProgram15StructParameterENS_9allocatorIS3_EEE6assignINS_11__wrap_iterIPS3_EEEENS_9enable_ifIXaasr21__is_forward_iteratorIT_EE5valuesr16is_constructibleIS3_NS_15iterator_traitsISC_E9referenceEEE5valueEvE4typeESC_SC_
cXi:_Physics2D_INTERNAL_CALL_Internal_Linecast_m2595034268
Hqj:__ZNSt3__214__split_bufferIN6il2cpp2vm5Image20EmbeddedResourceDataERNS_9allocatorIS4_EEEC2EjjS7_
iv:__ZN12AudioManager17RemoveAudioSourceEP11AudioSource
u8e:_X509Certificate2Collection_Add_m3151757943
tze:_Comparer_1__cctor_m951016718_gshared
CAd:_CaseInsensitiveHashCodeProvider_get_DefaultInvariant_m4264275163
APg:__Z195RuntimeInvoker_Int32_t2950945753_RuntimeObject_Int32_t2950945753_Int32_t2950945753_Int32_t2950945753_RuntimeObject_DecoderFallbackBufferU26_t3866396827_ByteU5BU5DU26_t4057885439_SByte_t1669577662PFvvEPK10MethodInfoPvPS4_
XAi:_MatchCollection_get_Count_m1586545784
OE:__ZN5physx14PxLightCpuTask12addReferenceEv
ksc:__Z10b2DistanceP16b2DistanceOutputP14b2SimplexCachePK15b2DistanceInput
e1g:__Z86RuntimeInvoker_Int32_t2950945753_Color32_t2600501292_Color32_t2600501292_RuntimeObjectPFvvEPK10MethodInfoPvPS4_
JUa:__ZN21EnlightenSceneMapping8TransferI19StreamedBinaryWriteILb0EEEEvRT_
usj:__ZN6il2cpp2gc16GarbageCollector19InitializeFinalizerEv
ycc:__ZN10GUIManager10DoGUIEventER10InputEventb
Sib:__Z35Transfer_Blittable_FixedBufferFieldI24GenerateTypeTreeTransferxEvRK29SerializationCommandArgumentsR31RuntimeSerializationCommandInfo
TGc:_otv_LangSys_validate
gAg:_RectOffset_get_right_m2294081512
eJh:_Array_InternalArray__set_Item_TisLink_t544317964_m1234244240_gshared
CLc:_UNITY_TT_Init_Glyph_Loading
ZDb:__Z20CalculateSqrDistanceRK8Vector3fRK4AABB
Ohd:_SerializationInfo_GetBoolean_m1756153320
Hz:__Z32AudioMixerDuckingProcessCallbackP21UnityAudioEffectStatePfS1_jii
Lvg:_Mesh_get_uv2_m3615020997
yWb:__ZN26CustomRenderTextureManagerD2Ev
i0f:_EqualityComparer_1_System_Collections_IEqualityComparer_Equals_m4172006498_gshared
aw:__ZN12AudioManager8TransferI24GenerateTypeTreeTransferEEvRT_
Uug:_Mathf_Round_m4098141538
lla:__Z25GetBytesFromTextureFormat13TextureFormat
Xlj:__ZN6il2cpp6icalls8mscorlib6System9Threading6Thread20Thread_free_internalEP12Il2CppThreadi
jNj:dynCall_iiffi
h3e:__KeysEnumerator_get_Current_m2996478063
YP:__Z32scripting_class_get_assemblyname17ScriptingClassPtr
EXc:__ZN11UnityEngine15PlatformWrapper15GetVRDeviceNameEv
cZg:__Z99RuntimeInvoker_Boolean_t97287965_Int32_t2950945753_PointerEventDataU26_t867828220_SByte_t1669577662PFvvEPK10MethodInfoPvPS4_
Hpe:_InternalEnumerator_1_get_Current_m2128158355_AdjustorThunk
Mwa:__ZN9GfxDevice21RegisterNativeTextureE9TextureIDi16TextureDimension
eed:_GraphicRegistry__ctor_m1851575309
ZEj:__ZN6il2cpp6icalls8mscorlib6System10Reflection4Emit11TypeBuilder20create_generic_classEP27Il2CppReflectionTypeBuilder
EDf:_SHA1Internal_FillBuff_m3615718415
dPf:_PlayableHandle_IsPlayableOfType_TisAnimationLayerMixerPlayable_t3631223897_m201603007_gshared
sE:__Z60Register_UnityEngine_AudioListener_GetNumExtensionPropertiesv
$i:_emscripten_glUniformMatrix4fv
fjj:__ZN15dense_hashtableINSt3__24pairIK10KeyWrapperINS1_IP11Il2CppClassjEEES4_EES6_N6il2cpp8metadata14ArrayClassHashEN14dense_hash_mapIS6_S4_SB_NS6_14EqualsComparerINSA_17ArrayClassCompareEEENS0_9allocatorIS8_EEE9SelectKeyESF_SH_E13set_empty_keyERKS8_
S7a:__ZN12ScriptMapperD2Ev
aXj:b100
Ovg:_Mesh_get_colors32_m1253190811
ZAj:_GC_stopped_mark
Tmg:_AnimationCurve_Finalize_m2397002729
K1e:_Text_OnEnable_m616205807
m7g:__Z50RuntimeInvoker_RuntimeObject_ColorTween_t809614380PFvvEPK10MethodInfoPvPS4_
ahd:_SerializationCallbacks__cctor_m1674315180
j9b:__Z52Register_UnityEngine_RenderTexture_Internal_GetWidthv
R9:__ZN9ShaderLab20SerializedSubProgram16TextureParameter8TransferI19StreamedBinaryWriteILb0EEEEvRT_
nya:__ZNK7Hash12812PackToUInt32Ev
Kzd:_SynchronizedArrayListWrapper_IndexOf_m3642674350
LR:__ZNSt3__227__insertion_sort_incompleteIRNS_6__lessI14ObjectLoadDataS2_EEPS2_EEbT0_S6_T_
hJ:__ZN11UnityEngine15CloudWebService16SessionContainer8AddEventEPNS0_14CloudEventInfoE
Bva:__Z4TrimRKN4core12basic_stringIcNS_20StringStorageDefaultIcEEEES5_
Dvc:__ZN13dynamic_arrayIN19CompositeCollider2D11SubColliderELj4EE12emplace_backEv
KMh:_Dictionary_2_Do_ICollectionCopyTo_TisKeyValuePair_2_t3842366416_m1399105608_gshared
G7e:_X509Certificate2_Import_m4026562329
yUj:_glGetStringi__wrapper
FWa:__ZN10VertexData8TransferI14SafeBinaryReadEEvRT_
$la:__ZN11TextureData17GetImageReferenceEii
NCj:_GC_malloc_atomic
Tae:_ActivatedClientTypeEntry_ToString_m2494181680
f4f:_HashSet_1_GetEnumerator_m3346268098_gshared
wFj:__ZN6il2cpp5utils6Memory13AlignedMallocEjj
zTe:_Selectable_get_animator_m2899312855
hqg:__ZN23GenericVirtFuncInvoker5I19CSSSize_t3377836552ififiE6InvokeEPK10MethodInfoP12Il2CppObjectififi
aN:__ZL20SortItemByInstanceIDRKN18AwakeFromLoadQueue4ItemES2_
pFg:_Vector2_op_Multiply_m2347887432
z3e:_TypeConverterAttribute__ctor_m1774069684
n_c:__ZN20UnityConnectSettings8TransferI24GenerateTypeTreeTransferEEvRT_
Pod:_Byte_ToString_m4063101981
_Ud:_MonoType_GetConstructors_m2574682189
MBg:_SceneManager_LoadSceneAsyncNameIndexInternal_m4031498323
Q0:__ZL31InitializeRendererUpdateManagerPv
$Zd:_ParameterInfo__ctor_m2779026345
tRe:_InputField_set_onValueChange_m1251390545
Bnd:_DeriveBytes_set_Password_m3005258189
sWd:_NumberFormatter_get_IsZeroInteger_m2263284741
cwi:_X509Certificate_PEM_m2020851166
CVf:_Array_InternalArray__Insert_TisDateTime_t3738529785_m2308632330_gshared
D1a:__ZN11TimeManager8TransferI19StreamedBinaryWriteILb0EEEEvRT_
Ilf:_TlsServerCertificateRequest_ProcessAsTls1_m3214041063
nHc:_compare_uni_maps
tYc:__ZN11UnityEngine15PlatformWrapper27GetGraphicsCapsSupportFlagsEv
tmb:__ZN12NativeBufferI16Converter_StringE15SetupForWritingER9ArrayInfo
_3:__ZN13RuntimeStaticI18AssetBundleManagerLb1EE16StaticInitializeEPv
VQj:___cxa_end_catch__wrapper
yxd:_Char_ToString_m278452217
qHg:__Z32RuntimeInvoker_Boolean_t97287965PFvvEPK10MethodInfoPvPS4_
Ldf:_BigInteger_op_RightShift_m460065452
Ltb:__ZN13MonoBehaviour22DoScriptRebuildWarningEv
B4b:__Z38Camera_CUSTOM_INTERNAL_CALL_RaycastTryP12Il2CppObjectRK3Rayfi
Zkj:__ZN6il2cpp6icalls8mscorlib6System5Array13ClearInternalEP11Il2CppArrayii
kRc:__Z38TextGenerator_Get_Custom_PropLineCountP12Il2CppObject
LMj:_llvm_cttz_i32
Jag:_Encoding_GetEncoding_m2801244948
Adc:__ZN11IMGUIModule25GetGUIStyleScriptingClassEv
RJc:_tt_get_interface
qvi:_SslStreamBase_EndRead_m495357226
Ilj:__ZN6il2cpp5utils9PathUtils7CombineIcEENSt3__212basic_stringIT_NS3_11char_traitsIS5_EENS3_9allocatorIS5_EEEERKSA_SC_
ijc:__ZN9JSONWrite8TransferI13dynamic_arrayIiLj4EEEEvRT_PKc17TransferMetaFlags
TRg:__Z64RuntimeInvoker_RuntimeObject_SByte_t1669577662_SByte_t1669577662PFvvEPK10MethodInfoPvPS4_
T5f:_Enumerator_System_Collections_IEnumerator_get_Current_m713684915_AdjustorThunk
G2f:_GenericComparer_1_Compare_m459680062_gshared
E$d:_EnumBuilder_GetConstructorImpl_m3068576149
KO:__Z18ConvertUTF16toUTF8PPKtS0_PPhS2_15ConversionFlags
Ewj:__ZN6il2cpp2os20PathErrnoToErrorCodeERKNSt3__212basic_stringIcNS1_11char_traitsIcEENS1_9allocatorIcEEEEi
mqi:__ZL68InputField_t3762917431_CustomAttributesCacheGenerator_m_KeyboardTypeP21CustomAttributesCache
PXi:__ZL16my_g_bit_nth_msfj
Shh:_Enumerator_MoveNext_m3662315381_AdjustorThunk
qlf:_TlsClientFinished_ProcessAsTls1_m2429863130
jCb:__Z23SetupStereoFlareElementP11FlareVertexRK8Vector2fS3_S3_RK11ColorRGBA32RK10Matrix4x4fRK8Vector3fb
ta:invoke_iiiifiiii
zRe:_InputField_EnforceContentType_m2436948794
gLf:_String_Join_m2050845953
OCe:_ShimEnumerator_MoveNext_m2406150314_gshared
Kra:__ZL19BlitFramebufferImplRN4gles23BlitFramebufferDrawQuadER9GfxDevice9TextureIDRK8Vector4f
Q9i:__ZN15dense_hashtableINSt3__24pairIK10KeyWrapperIPK10Il2CppTypeEjEES6_N6il2cpp8metadata14Il2CppTypeHashEN14dense_hash_mapIS6_jSB_NS6_14EqualsComparerINSA_26Il2CppTypeEqualityComparerEEENS0_9allocatorIS8_EEE9SelectKeyESF_SH_E4findERS7_
WNj:dynCall_viiiiiiiiiiiiii
gLc:_UNITY_FT_List_Add
YWb:__ZN14Texture2DArray11InitTextureEiii13TextureFormatb
Zwi:_X509Extension__ctor_m1474351312
aEh:_InvokableCall_1_Invoke_m1524307439_gshared
gNd:_Directory_CreateDirectoriesInternal_m3735342319
JVe:_LayoutUtility_GetLayoutProperty_m3731360667
Mej:__ZN15dense_hashtableINSt3__24pairIK10KeyWrapperINS1_IPK11Il2CppImageP11Il2CppClassEEEjEES9_17ReflectionMapHashIS8_EN14dense_hash_mapIS9_jSD_NS9_14EqualsComparerINS0_8equal_toIS8_EEEENS0_9allocatorISB_EEE9SelectKeyESI_SK_E14squash_deletedEv
GEf:_SHAConstants__cctor_m1699027474
cM:__ZNK6Camera26GetStereoSingleCullEnabledEv
J4a:__Z14resize_trimmedINSt3__26vectorIN4core12basic_stringIcNS2_20StringStorageDefaultIcEEEE13stl_allocatorIS6_L18MemLabelIdentifier13ELi16EEEEEvRT_j
Idb:__Z18Transfer_BlittableI14SafeBinaryReadLb0EaEvRK29SerializationCommandArgumentsR31RuntimeSerializationCommandInfo
Cxd:_CharEnumerator_System_Collections_IEnumerator_get_Current_m1328529384
eQj:_emscripten_glFrustum__wrapper
VVi:_AnimationLayerMixerPlayable__ctor_m860721801
MLc:_UNITY_FT_List_Iterate
Xwd:_Char_System_IConvertible_ToUInt64_m3536560782
z$f:_EqualityComparer_1__cctor_m3452395357_gshared
RMc:_Render_Single_Pass
Mgj:__ZN6il2cpp2vm4Type6IsEnumEPK10Il2CppType
QAb:__Z20SyncFenceCullResultsR11CullResults
nua:__ZN15TextureTFMethod20IsBoneCountSupportedEi
wwf:_Double_ToString_m3828879243_AdjustorThunk
bib:__Z22TransferField_NonArrayI17RemapPPtrTransfer27Converter_SimpleNativeClassI8GUIStyleEEvRK23StaticTransferFieldInfoR31RuntimeSerializationCommandInfoRT0_
ySd:_TextReader_Synchronized_m3004980758
ORb:__ZNK17AnimationCurveTplIfE20EvaluateWithoutCacheEfRf
UWg:__Z67RuntimeInvoker_Boolean_t97287965_Rect_t2360479859_SByte_t1669577662PFvvEPK10MethodInfoPvPS4_
uMa:__ZN19ShaderPropertySheet10SetTextureERK23FastTexturePropertyNameP7Texture
ZYd:_CustomAttributeData__ctor_m2966233049
n9c:_CanvasUpdateRegistry_PerformUpdate_m1793997159
Ikf:_Context_set_ClientWriteIV_m3405909624
$$b:__ZN4Mesh10SetNormalsEPK8Vector3fj
_Ac:__Z66Register_UnityEngine_Physics2D_INTERNAL_CALL_GetRayIntersectionAllv
oKi:_AesManaged_CreateDecryptor_m692040246
Kr:__ZN17AnimationCurveTplIfE8TransferI14SafeBinaryReadEEvRT_
kJh:_Array_InternalArray__set_Item_TisInt16_t2552820387_m2544074754_gshared
hrd:_ArithmeticException__ctor_m3551809662
HNd:_MonoIO_ExistsDirectory_m2182482658
vPb:__Z29StdTemplateConversionFunctionIybEbPvR14SafeBinaryRead
eVa:__ZNSt3__26vectorIN15QualitySettings14QualitySettingENS_9allocatorIS2_EEE6assignIPS2_EENS_9enable_ifIXaasr21__is_forward_iteratorIT_EE5valuesr16is_constructibleIS2_NS_15iterator_traitsIS9_E9referenceEEE5valueEvE4typeES9_S9_
f:HEAPU32
v8f:_List_1_CheckCollection_m1671972112_gshared
Tif:_CipherSuiteFactory_GetSsl3SupportedCiphers_m3757358569
Acg:_UnicodeEncoding_GetPreamble_m3002287178
sRi:_AudioSource_get_spatialize_m3609701298
xWg:__Z52RuntimeInvoker_Color_t2555686324_Color32_t2600501292PFvvEPK10MethodInfoPvPS4_
oba:__ZN20GpuProgramParameters14AddVectorParamEPKcii15ShaderParamTypeiiiP16PropertyNamesSet
c0c:__ZNK12HeaderHelper3GetERKN4core12basic_stringIcNS0_20StringStorageDefaultIcEEEE
i1a:__ZN9InputAxis8TransferI14SafeBinaryReadEEvRT_
vN:__ZNK21ExecutionOrderManager30GetCustomAwakeFromLoadQueueForEPKN5Unity4TypeE
x$c:__Z27RegisterModule_UnityConnectv
hQd:_MemoryStream_Expand_m3554752073
hdj:__ZN6il2cpp2vm10Reflection27GetCustomAttributesCacheForEP25Il2CppReflectionParameter
WBg:_ScriptableObject_CreateInstance_m2611081756
Eje:_ObjectRecord_get_IsInstanceReady_m2304516395
Hve:_InternalEnumerator_1_System_Collections_IEnumerator_get_Current_m1635397542_gshared
OQd:_Path__cctor_m3273994011
iMj:__ZNSt11logic_errorD2Ev
dpf:_DateTimeUtils_CountRepeat_m3396693018
Rxc:__ZNK17Physics2DSettings22GetTypeVirtualInternalEv
FSj:_glBindRenderbuffer__wrapper
Ky:__ZN10ObjectPoolIN4FMOD12ChannelGroupENS0_13ChannelGroupIEE7SetSizeEi
$Ji:_SymmetricTransform_FinalDecrypt_m764004682
ovj:__ZN6il2cpp2os10ThreadImpl33UnregisterCurrentThreadForCleanupEv
LCi:_Parser_ParseGroupingConstruct_m263270497
FAc:__ZL26InitializeModule_Physics2Dv
bTb:__ZN9Polygon2D7SetPathEiRK13dynamic_arrayI8Vector2fLj4EE
Sej:__ZN14dense_hash_mapI10KeyWrapperINSt3__24pairIPK9EventInfoP11Il2CppClassEEEj17ReflectionMapHashIS8_ENS9_14EqualsComparerINS1_8equal_toIS8_EEEENS1_9allocatorINS2_IKS9_jEEEEE15set_deleted_keyERSH_
sfb:__Z14resize_trimmedINSt3__26vectorI17AnimationCurveTplIfE13stl_allocatorIS3_L18MemLabelIdentifier1ELi16EEEEEvRT_j
LLb:__ZN25CameraStackRenderingState19SetupLastEyeCamerasERK11CameraStack
ODa:__Z12GUIDToStringRK9UnityGUID
gnf:_RSASslSignatureDeformatter_SetKey_m2204705853
Hu:__ZN11SoundHandleC2ERKS_
vQe:_InputField_set_shouldHideMobileInput_m1650743574
F2i:__ZNK6il2cpp5utils11collections13ArrayValueMapIPK10Il2CppType17Il2CppInteropData26InteropDataToTypeConverterNS_8metadata14Il2CppTypeLessENS8_26Il2CppTypeEqualityComparerEE10find_firstERKS5_
COd:_FileStream_get_CanSeek_m331583577
fld:_DSAParameters_t1885824122_marshal_pinvoke_back
JLe:_Kernel_MultiplyByDword_m1266935086
dGd:_Convert_ToInt64_m3916071102
uNb:__ZN6Camera25StandaloneRenderToCubemapEP7TextureiPFvPK9SceneNodePK4AABBR9IndexListPvESA_j
dKf:_String_Trim_m3384720403
gMa:__ZN14RenderSettings18TransferDeprecatedI14SafeBinaryReadEEvRT_
HPg:__Z93RuntimeInvoker_Single_t1397266774_SingleU26_t1922108698_Single_t1397266774_Single_t1397266774PFvvEPK10MethodInfoPvPS4_
RGi:_Event__ctor_m526447123
hUg:__Z88RuntimeInvoker_RuntimeObject_RuntimeObject_RuntimeObject_RuntimeObject_Int32_t2950945753PFvvEPK10MethodInfoPvPS4_
vig:_Type_ToString_m3975981286
nN:__ZN12TLSAllocatorI14StackAllocatorE8AllocateEji
nP:__ZN16ScriptingManager18GetMonoScriptCacheEi
ZCi:_ExpressionAssertion__ctor_m2554412824
GKh:_Array_Resize_TisCustomAttributeTypedArgument_t2723150157_m3021884250_gshared
Pdb:__Z18Transfer_BlittableI14SafeBinaryReadLb1EyEvRK29SerializationCommandArgumentsR31RuntimeSerializationCommandInfo
dWd:_NullReferenceException__ctor_m3076065613
egc:__ZN8JSONRead8TransferIfEEvRT_PKc17TransferMetaFlagsb
Naa:__ZN9ShaderLab7Program22ComputeSupportsShadowsEv
s6e:_X509SubjectKeyIdentifierExtension_Decode_m1505409124
Zaa:__ZL23AddGpuProgramParametersR20GpuProgramParametersRKNSt3__26vectorIN9ShaderLab20SerializedSubProgram15MatrixParameterENS1_9allocatorIS5_EEEERKNS2_INS4_15VectorParameterENS6_ISB_EEEEiiP16PropertyNamesSet
Coa:__ZN6prcoreL17RemapGenericFloatI18TexFormatARGBFloat17TexFormatRGBAHalfEEvPKNS_9InnerInfoE
IJf:_String_System_IConvertible_ToUInt16_m2888090399
tA:__ZN11AudioSource21ApplyCachedParametersE12SoundChannel
QXd:_Assembly_InternalGetType_m3065345470
kF:__ZN13Simd4iFactoryIN6detail9FourTupleEEC2Eiiii
d9d:_ResourceSet__ctor_m3356376607
Udf:_PrimeGeneratorBase_get_PrimalityTest_m2487240563
jZh:__ZL56_ParameterInfo_t489405856_CustomAttributesCacheGeneratorP21CustomAttributesCache
jUa:__ZN15SerializeTraitsI33EnlightenTerrainChunksInformationE8TransferI14SafeBinaryReadEEvRS0_RT_
aqc:__ZN6b2Body12SetTransformERK6b2Vec2f
KXb:__ZNK32RendererMaterialAnimationBinding9BindValueER6ObjectRKN11UnityEngine9Animation14GenericBindingERNS3_10BoundCurveE
SEe:_Transform_1_Invoke_m1731820209_gshared
PMa:__Z13GetIAnimationv
Lma:__ZL18stbir__support_onef
$If:_Single_CompareTo_m189772128
Rhc:__Z26Transfer_UnityEngineObjectI9JSONWriteLb0EEvRK29SerializationCommandArgumentsR31RuntimeSerializationCommandInfo
Txe:_DefaultComparer_Compare_m4042058291_gshared
agd:_Image_set_overrideSprite_m3213596394
VPa:__ZNSt3__26vectorIN4core12basic_stringIcNS1_20StringStorageDefaultIcEEEE13stl_allocatorIS5_L18MemLabelIdentifier1ELi16EEE6assignINS_11__wrap_iterIPS5_EEEENS_9enable_ifIXaasr21__is_forward_iteratorIT_EE5valuesr16is_constructibleIS5_NS_15iterator_traitsISF_E9referenceEEE5valueEvE4typeESF_SF_
XSc:__ZNSt3__27__sort5IRNS_6__lessIN2UI14DepthSortEntryES3_EEPS3_EEjT0_S7_S7_S7_S7_T_
nOd:_FileLoadException_ToString_m2989457882
KRi:_AudioListener_ClearExtensionProperties_m3849891634
FCc:_UNITY_FT_DivFix
UNh:_Array_InternalArray__get_Item_TisDecimal_t2948259380_m3511003792_gshared
uGf:_SecurityElement_IsValidAttributeValue_m948345692
yBc:__ZN19ControllerHitReport15onControllerHitERKN5physx16PxControllersHitE
Ca:invoke_vdd
Fn:FUNCTION_TABLE_fiii
JSd:_TextWriter_Write_m2252948084
_Zb:__Z19RegisterModule_Corev
dWb:__ZNK30SpriteRendererAnimationBinding12GetPPtrValueERKN11UnityEngine9Animation10BoundCurveE
QQc:__ZZ29InitializeTextRenderingModulevEN27cleanupAfterLoadRegistrator7ForwardEv
V8a:__ZNSt3__26__sortIRPFbRK23TransformAccessReadOnlyS3_EPS1_EEvT0_S8_T_
nyf:_CCFixed_FromDateTime_m3894190577
yLb:__Z29PluginsIssueRenderingExtEvent26UnityRenderingExtEventTypePv
GKg:__Z116RuntimeInvoker_RuntimeObject_RuntimeObject_Int32_t2950945753_RuntimeObject_RuntimeObject_RuntimeObject_RuntimeObjectPFvvEPK10MethodInfoPvPS4_
gke:_MessageFormatter_ReadMethodCall_m2327590823
LWb:__Z14RandomRotationP9Texture2DPhiiii
OTf:_Array_InternalArray__ICollection_Add_TisUInt16_t2177724958_m3981262878_gshared
ktf:_Decimal_GetBits_m453754410
c4f:_HashSet_1_Contains_m3173358704_gshared
GKi:_ToggleEvent__ctor_m834619998
Uff:_PKCS1_Encode_v15_m2077073129
eAg:_RectOffset_get_left_m1232181034
Mpa:__ZN4gles14UseGLSLProgramER15DeviceStateGLESjbij
jWj:_glDeleteProgram__wrapper
I4b:__Z50Register_UnityEngine_Camera_INTERNAL_get_pixelRectv
Una:__ZN6prcoreL18BlitFloatToIntegerERK14ImageReferenceRS0_
hsf:_DBNull_System_IConvertible_ToUInt32_m3784627971
Ljf:_ClientSessionCache_Add_m964342678
Xta:__ZN13dynamic_arrayI15ComputeShaderCBLj4EE6assignEPKS0_S3_
CI:__ZN11UnityEngine15CloudWebService14RestDownloader17OnCompleteContentEv
H8i:__ZN15dense_hashtableINSt3__24pairIK10KeyWrapperINS1_IPK14Il2CppAssemblyP11Il2CppClassEEEjEES9_17ReflectionMapHashIS8_EN14dense_hash_mapIS9_jSD_NS9_14EqualsComparerINS0_8equal_toIS8_EEEENS0_9allocatorISB_EEE9SelectKeyESI_SK_E15insert_noresizeERKSB_
jEg:_Transform_get_localScale_m129152068
Etf:_DivideByZeroException__ctor_m3496959969
Sa:invoke_viffi
Isj:__ZN6il2cpp2gcL10CleanupCCWEPvS1_
Va:invoke_vifff
XUj:_glGetVertexAttribiv__wrapper
Se:_emscripten_request_fullscreen
fCh:_Predicate_1_Invoke_m851618236_gshared
Fub:__ZN20LocalFileSystemWebGL6DeleteER13FileEntryDatab
Ue:_emscripten_glDisableVertexAttribArray
AOf:_Array_InternalArray__ICollection_Remove_TisSingle_t1397266774_m3361324455_gshared
_m:FUNCTION_TABLE_iiiifiiii
I4:__ZN4core8hash_mapINS_12basic_stringIcNS_20StringStorageDefaultIcEEEE13dynamic_arrayI4PPtrI6SpriteELj4EENS_4hashIS4_EENSt3__28equal_toIS4_EEE12delete_nodesEv
nc:invoke_fifffi
nph:_Collection_1_System_Collections_IList_Add_m2969482770_gshared
Ax:__ZN4FMOD5Sound15getNumSubSoundsEPi
gka:__ZN4gles23ClearCurrentFramebufferEP7ApiGLESbbbRK10ColorRGBAffi
dGh:_UnityEvent_1_Invoke_m3604335408_gshared
df:_emscripten_glDeleteObjectARB
p3c:_EventSystem_RaycastComparer_m3685368675
_f:_IMG_Load
AOg:__Z131RuntimeInvoker_Void_t1185182177_RuntimeObject_RuntimeObject_Int64_t3736567304_ObjectU26_t2146539884_SerializationInfoU26_t419328957PFvvEPK10MethodInfoPvPS4_
k9b:__Z53Register_UnityEngine_RenderTexture_Internal_GetHeightv
fQe:_PKCS12_RemoveCertificate_m1421555398
Q0e:_Slider_FindSelectableOnLeft_m1667068522
Voa:__ZN6prcoreL17RemapGenericFloatI17TexFormatRGBAHalf18TexFormatARGBFloatEEvPKNS_9InnerInfoE
gtc:__ZNSt3__27__sort4IRN18Overlap2DQueryBase29ColliderHitsByDepthComparitorEPP10Collider2DEEjT0_S7_S7_S7_T_
qdc:__Z14GetBuiltinSkini
Uge:_MethodDictionary_get_Item_m1201458851
GE:___cxx_global_var_init_13
aF:___cxx_global_var_init_10
bF:___cxx_global_var_init_11
LIf:_Single_System_IConvertible_ToSingle_m1939829239_AdjustorThunk
HX:___cxx_global_var_init_18
nl:_JS_SystemInfo_GetBrowserVersionString
u8a:__ZN2UI13RectTransform23VirtualRedirectTransferER14SafeBinaryRead
VFe:_Enumerator_MoveNext_m3045873697_gshared
g8:__ZNSt3__26vectorIN9ShaderLab20SerializedSubProgramENS_9allocatorIS2_EEE6assignIPS2_EENS_9enable_ifIXaasr21__is_forward_iteratorIT_EE5valuesr16is_constructibleIS2_NS_15iterator_traitsIS9_E9referenceEEE5valueEvE4typeES9_S9_
bkc:__Z18Transfer_BlittableI8JSONReadLb0E8BitFieldEvRK29SerializationCommandArgumentsR31RuntimeSerializationCommandInfo
xxd:_Char_ToString_m3588025615_AdjustorThunk
Y3f:_HashSet_1_CopyTo_m2849056227_gshared
Nnb:__ZL17Transfer_GUIStyleI18StreamedBinaryReadILb1EELb0EEvRK29SerializationCommandArgumentsR31RuntimeSerializationCommandInfo
rLe:_ModulusRing_Multiply_m343333088
uOi:__ZL25UnresolvedVirtualCall_149P12Il2CppObject17Color_t2555686324faaPK10MethodInfo
X5:__ZN9ShaderLab14SerializedPass8TransferI14SafeBinaryReadEEvRT_
iec:__Z71Register_UnityEngine_GUILayoutUtility_INTERNAL_CALL_Internal_MoveWindowv
dD:__ZN12AudioManager16SetListenerPauseEb
Svc:__ZNSt3__26__sortIRN10ClipperLib12LocMinSorterEPNS1_12LocalMinimumEEEvT0_S6_T_
nPf:_SetPropertyUtility_SetStruct_TisSingle_t1397266774_m2805350785_gshared
jmj:__ZN6il2cpp2vm9Exception25RaiseOutOfMemoryExceptionERKNS_5utils10StringViewIDsEE
ea:invoke_viiiiiiiiiii
$Hj:___syscall_ret
Qxi:_DeriveBytes_set_Salt_m1400945044
y5c:_PointerEventData_set_worldNormal_m1888481930
HDi:_AnchorInfo__ctor_m46784903
rif:_CipherSuiteCollection_get_Item_m4188309062
tui:_SslHandshakeHash_HashFinal_m2573455475
Nee:_SynchronizationAttribute_ReleaseLock_m1030353464
gTb:__ZN14qsort_internal30FindAndMovePivotToLastPositionIP8Vector2fi26PointDistanceSortPredicateEEvT_S4_T0_T1_
hXa:__ZN11ChannelInfo8TransferI19StreamedBinaryWriteILb0EEEEvRT_
Xxj:__ZN4utf88internal13validate_nextIPKcEENS0_9utf_errorERT_S5_Rj
vsi:__ZL53ToggleGroup_t123837990_CustomAttributesCacheGeneratorP21CustomAttributesCache
ZCb:__ZN14qsort_internal13Partition3WayIP17RODataReplacementi19ROSorterReplacementEENSt3__24pairIT_S6_EES6_S6_T0_T1_
kTe:_InputField_CreateCursorVerts_m3585916868
W5b:__Z34Register_UnityEngine_Gradient_Initv
$de:_Context_ToString_m1073616138
fWa:__ZN13ScreenManager23SetIsOrientationEnabledE18EnabledOrientationb
pQe:_InputField_EnforceTextHOverflow_m3400115777
sOj:dynCall_viffffii
n1a:__ZN9InputAxis8TransferI19StreamedBinaryWriteILb0EEEEvRT_
FId:__Z33il2cpp_codegen_check_sub_overflowxx
VNj:dynCall_viififiii
iRe:_InputField_get_caretColor_m2973283772
Ovf:_Double_System_IConvertible_ToInt16_m3591921965_AdjustorThunk
Zzh:_Comparison_1_Invoke_m2925518770_gshared
MEa:__ZN10GameObject23VirtualRedirectTransferER18StreamedBinaryReadILb0EE
KJi:_SymmetricTransform__ctor_m2693628991
ZWd:_ObjectDisposedException__ctor_m1034312941
vg:_glFrontFace
aAg:_RectOffset__ctor_m3236153262
KWe:_MaskUtilities_IsDescendantOrSelf_m2247511982
VHb:__ZNSt3__26vectorI16ShadowCasterData13stl_allocatorIS1_L18MemLabelIdentifier2ELi16EEE21__push_back_slow_pathIKS1_EEvRT_
yRc:__Z51Register_UnityEngine_TextGenerator_GetLinesInternalv
rFe:_Enumerator_get_Current_m2250080680_AdjustorThunk
vKi:_AesManaged_set_Key_m767972181
HHd:_Int16_System_IConvertible_ToBoolean_m1656400658_AdjustorThunk
Evd:_Byte_System_IConvertible_ToInt64_m285584218
zha:__ZN13GfxDeviceGLES22SetScissorRectPlatformERK5RectTIiE
koa:__ZN6prcoreL17RemapGenericFloatI17TexFormatRGBFloat18TexFormatRGBAFloatEEvPKNS_9InnerInfoE
gTf:_Array_InternalArray__ICollection_Add_TisDictionaryEntry_t3123975638_m665385049_gshared
WTd:_MissingMemberException__ctor_m2707802176
p$c:__ZN20UnityConnectSettings10InitializeEv
qUi:_Canvas_get_renderMode_m841659411
pUa:__ZN15SerializeTraitsI13dynamic_arrayI28EnlightenRendererInformationLj8EEE19ResizeSTLStyleArrayERS2_i
vAc:__ZN16PhysicsManager2D12BeginContactEP9b2Contact
Ihd:_SerializationInfo_GetValue_m42271953
yu:__ZN9AudioClip11CreateSoundEv
efj:__ZN14dense_hash_mapI10KeyWrapperINSt3__24pairIPK9FieldInfoP11Il2CppClassEEEj17ReflectionMapHashIS8_ENS9_14EqualsComparerINS1_8equal_toIS8_EEEENS1_9allocatorINS2_IKS9_jEEEEEC2EjRKSB_RKSF_
Caj:__ZNK15dense_hashtableINSt3__24pairIK10KeyWrapperINS1_IPK10MethodInfoP11Il2CppClassEEEjEES9_17ReflectionMapHashIS8_EN14dense_hash_mapIS9_jSD_NS9_14EqualsComparerINS0_8equal_toIS8_EEEENS0_9allocatorISB_EEE9SelectKeyESI_SK_E13find_positionERSA_
Gga:__ZN13GfxDeviceGLES20CreateComputeProgramEPKhj
K_c:__ZN11UnityEngine7Connect16PersistentValues13RestoreValuesER8JSONRead
RBf:_Guid_BaseToString_m3600006650
rCa:__ZN20ArchiveStorageReader31TryToReadDirectoryFromBlockDataEyPKvj
jpj:__ZN6il2cpp2vmL11GetIdentityEP14Il2CppIUnknown
CBj:_GC_push_gc_structures
Alf:_TlsServerCertificate_ProcessAsTls1_m819212276
wvh:_ReadOnlyCollection_1_System_Collections_Generic_ICollectionU3CTU3E_Clear_m2102011098_gshared
XMh:_Dictionary_2_Do_ICollectionCopyTo_TisRuntimeObject_m3942192587_gshared
I6i:__ZN6il2cpp6icalls8mscorlib6SystemL8IsPublicEPK9EventInfo
gef:_PrimalityTests_RabinMillerTest_m2544317101
odf:_Kernel_DwordDivMod_m1540317819
Nhh:_Enumerator_System_Collections_IEnumerator_get_Current_m1399273671_gshared
uzi:_X509StoreManager_get_CurrentUser_m719101392
x3d:_TypeBuilder_GetPropertyImpl_m3104345782
BXa:__ZNSt3__213__stable_sortIRNS_4lessI4PPtrI11SpriteAtlasEEENS_11__wrap_iterIPS4_EEEEvT0_SA_T_NS_15iterator_traitsISA_E15difference_typeEPNSD_10value_typeEi
VLd:_Int64_ToString_m2085073918_AdjustorThunk
i4d:_FieldInfo_GetFieldOffset_m1356898082
qSf:_Array_InternalArray__IndexOf_TisTypeTag_t3541821701_m2988972362_gshared
ZY:__ZN8keywords6CreateEPKc
bYi:__ZL7log2_32j
S:Math_imul
Y$a:__ZN14SpriteRenderer15SetupPropertiesEv
Vlf:_TlsServerKeyExchange_Update_m453798279
sVa:__ZN11PlayerPrefs6GetIntERKN4core12basic_stringIcNS0_20StringStorageDefaultIcEEEEi
yif:_CipherSuiteCollection_System_Collections_IList_IndexOf_m1361500977
J1e:_Text_set_fontStyle_m648756124
gRc:__Z45TextGenerator_CUSTOM_INTERNAL_get_rectExtentsP12Il2CppObjectP5RectTIfE
xof:_DateTime__ctor_m2135476686_AdjustorThunk
TAg:_RectTransform_GetLocalCorners_m823861473
TAa:__Z18ReadStringFromFilePN4core17string_with_labelILi1EEERKNS_12basic_stringIcNS_20StringStorageDefaultIcEEEE
wO:__ZN18ScriptingArguments9AddObjectE18ScriptingObjectPtr
_Uc:__Z39CanvasGroup_Get_Custom_PropInteractableP12Il2CppObject
Fxc:__ZN16CircleCollider2D23VirtualRedirectTransferER18StreamedBinaryReadILb0EE
U_c:__ZL38InitializeUnityConnectScriptingClassesv
gMb:__ZN13ProbeRenderer8ConvolveEbijjb
oJi:_GUIUtility_set_systemCopyBuffer_m608712289
Aka:__ZN17GenericDynamicVBOC2ER9GfxDevice13GfxBufferModejj
vtc:__Z28GetPhysics2DScriptingClassesv
rcc:__ZZN10GUIManager14InitGUIManagerEvEN41PreUpdateIMGUISendQueuedEventsRegistrator7ForwardEv
era:__ZN13dynamic_arrayIN18GlslGpuProgramGLES9GLProgramELj4EE6insertEPS1_jRKS1_
yyf:_CCGregorianCalendar_day_from_fixed_m1674702403
bH:__ZN11UnityEngine15CloudWebService17SessionEventQueue10PurgeItemsEj
MMb:__ZN6Camera16StandaloneRenderENS_10RenderFlagEP6ShaderRKN4core12basic_stringIcNS3_20StringStorageDefaultIcEEEE
Y7e:_X509Chain_PrepareForNextCertificate_m3691934993
fnb:__Z18Transfer_BlittableI18StreamedBinaryReadILb1EELb1EtEvRK29SerializationCommandArgumentsR31RuntimeSerializationCommandInfo
Iji:__ZL58EventType_t3528516131_CustomAttributesCacheGenerator_keyUpP21CustomAttributesCache
r$h:__ZL57X509Certificate_t713131622_CustomAttributesCacheGeneratorP21CustomAttributesCache
s_a:__ZN12BoneWeights48TransferI19StreamedBinaryWriteILb0EEEEvRT_
Lea:__ZN9GfxDevice20DeallocRenderSurfaceEP17RenderSurfaceBase
cba:__ZN20GpuProgramParameters36UpdatePrepareValuesMaximumBufferSizeEv
buh:_ReadOnlyCollection_1_System_Collections_IList_RemoveAt_m2129436005_gshared
iJe:_SimpleCollator_GetContraction_m2205549079
Qef:_ARC4Managed_GenerateKey_m1607343060
xUf:_Array_InternalArray__ICollection_CopyTo_TisDecimal_t2948259380_m2749946216_gshared
lGa:__ZN12BaseRenderer23RendererBecameInvisibleEv
VNc:__ZN20TextRenderingPrivate8FontImpl13CharacterInfo8TransferI18StreamedBinaryReadILb0EEEEvRT_
ukb:__Z29Transfer_Blittable_ArrayFieldI24GenerateTypeTreeTransferfEvRT_R9ArrayInfoRK23StaticTransferFieldInfo
D$:__ZNSt3__26__treeINS_12__value_typeIN4core12basic_stringIcNS2_20StringStorageDefaultIcEEEES6_EENS_19__map_value_compareIS6_S7_NS_4lessIS6_EELb1EEE13stl_allocatorIS7_L18MemLabelIdentifier13ELi16EEE7destroyEPNS_11__tree_nodeIS7_PvEE
zsg:_UnityEvent_FindMethod_Impl_m2312362624
bOb:__ZN19CustomRenderTexture9AddParentE4PPtrIS_E
YW:__ZN8Gradient8TransferI14SafeBinaryReadEEvRT_
Yng:_Vector3_GetHashCode_m2879461828
JCi:_Parser_ParseSpecial_m1961501104
TIf:_Single_System_IConvertible_ToUInt64_m3299129161_AdjustorThunk
UPa:__ZNSt3__26vectorIN4core12basic_stringIcNS1_20StringStorageDefaultIcEEEE13stl_allocatorIS5_L18MemLabelIdentifier1ELi16EEE7reserveEj
a5e:_IPv6Address_AsIPv4Int_m844941024
bzc:__Z13RegisterClassI10Effector2DEvv
umf:_RecordProtocol__cctor_m1280873827
Bbg:_StringBuilder__ctor_m3504405255
nae:_Marshal__cctor_m4007734770
wAj:_GC_new_free_list_inner
nPe:_SymmetricTransform_Random_m2004892672
bAj:_GC_err_printf
ugf:_RSAManaged_DecryptValue_m1804388365
Fme:_InternalEnumerator_1_System_Collections_IEnumerator_get_Current_m2980550840_AdjustorThunk
Rkc:__ZN8JSONRead8TransferI10RectOffsetEEvRT_PKc17TransferMetaFlagsb
MG:__ZN9JSONWrite8TransferIN11UnityEngine15CloudWebService14DataErrorEvent15FileErrorDetailEEEvRT_PKc17TransferMetaFlags
GKd:_Int32_Parse_m2087562008
mRf:_Array_compare_TisVector4_t3319028937_m1974066282_gshared
a7d:_MonoProperty_GetAccessors_m412928203
GHh:_TweenRunner_1_Start_m3757154622_gshared
Ex:__ZN12SoundManager20RegisterModifiedClipEP10SampleClip
kbe:_RemotingServices_GetClientChannelSinkChain_m1499550585
RXd:_Assembly_FillName_m1660001542
_Yh:__ZL56_EventBuilder_t2558055199_CustomAttributesCacheGeneratorP21CustomAttributesCache
gEf:_SHA384Managed_processBlock_m1272529332
iA:__ZN11AudioSource4PlayEd
kAi:_X509Store_get_Crls_m1211262034
zxd:_Char_ToString_m278452217_AdjustorThunk
i0i:__ZN15dense_hashtableI10KeyWrapperIPK17Il2CppGenericInstES4_N6il2cpp8metadata21Il2CppGenericInstHashEN14dense_hash_setIS4_S7_NS4_14EqualsComparerINS6_24Il2CppGenericInstCompareEEENSt3__29allocatorIS4_EEE8IdentityESB_SE_E13set_empty_keyERKS4_
hIg:__Z63RuntimeInvoker_Char_t3634460470_Int16_t2552820387_RuntimeObjectPFvvEPK10MethodInfoPvPS4_
sFd:_Convert_ToDouble_m2924063577
tZd:_CustomAttributeNamedArgument_ToString_m1488801416_AdjustorThunk
AGe:_ValueCollection_System_Collections_Generic_ICollectionU3CTValueU3E_Remove_m3673494156_gshared
qSa:__ZN7Cubemap23VirtualRedirectTransferER18StreamedBinaryReadILb0EE
o7b:__ZNSt3__27__sort4IRNS_6__lessI11KeyframeTplIfES3_EEPS3_EEjT0_S7_S7_S7_T_
wKc:_Read_CVT
Yz:__ZN11AudioSource23VirtualRedirectTransferER19StreamedBinaryWriteILb0EE
kJe:_SimpleCollator_GetTailContraction_m2107754083
ijb:__ZL26Transfer_SimpleNativeClassI24GenerateTypeTreeTransfer17AnimationCurveTplIfELb0EEvRK29SerializationCommandArgumentsR31RuntimeSerializationCommandInfo
Rlc:__ZN8JSONRead21TransferSTLStyleArrayI13dynamic_arrayI9BoundsIntLj4EEEEvRT_17TransferMetaFlags
xUa:__ZN24GenerateTypeTreeTransfer8TransferI13dynamic_arrayI33EnlightenTerrainChunksInformationLj4EEEEvRT_PKc17TransferMetaFlags
npf:_DateTimeFormatInfo__ctor_m3106345035
ojf:_TlsServerKeyExchange_verifySignature_m3412856769
q$f:_EqualityComparer_1_System_Collections_IEqualityComparer_GetHashCode_m4137147946_gshared
_0:__ZN16LightmapSettings20DidChangeActiveSceneEP10UnitySceneS1_
pui:__ZL59g_AssemblyU2DCSharp_Assembly_CustomAttributesCacheGeneratorP21CustomAttributesCache
u9b:__Z39Register_UnityEngine_Time_get_timeScalev
j7i:__ZN6il2cpp5utils9PathUtils8BasenameIcEENSt3__212basic_stringIT_NS3_11char_traitsIS5_EENS3_9allocatorIS5_EEEERKSA_
_ie:_RemotingProxy__cctor_m4096951805
Wdc:__Z35Register_UnityEngine_Event_get_typev
umj:__ZN6il2cpp2vm9Exception23GetInvalidCastExceptionERKNS_5utils10StringViewIDsEE
dN:__Z63ThreadAndSerializationSafeCheckGetMonoBehaviourBeingTransferredv
mvf:_StackTrace__ctor_m206492268
i9g:_List_1_set_Item_m4224739467_gshared
Ead:_ColorTween_set_startColor_m2562993758_AdjustorThunk
j_d:_ConstructorBuilder_get_Name_m2426555260
U6b:__Z37Register_UnityEngine_Input_GetAxisRawv
KCi:_Parser_ParseCharacterClass_m4285351396
pGd:_Convert_ToSByte_m2653418303
ECd:_SyncHashtable__ctor_m2449935938
Wz:__ZN11AudioSource5ResetEv
sDf:_RSAPKCS1SignatureFormatter_SetKey_m2935054088
xCb:__ZN12ImageFilters27SetSurfaceUseResolvedBufferEP13RenderTextureb
mCi:_Regex__ctor_m3948448025
QXa:__ZN14Texture2DArray23VirtualRedirectTransferER18StreamedBinaryReadILb0EE
jdg:_UTF7Encoding_GetByteCount_m209415911
l8a:__ZN2UI13RectTransform13AwakeFromLoadE17AwakeFromLoadMode
qFi:_RegularExpression_Compile_m2385682508
Iyf:_CompareInfo__cctor_m1837489679
tHb:__ZN14qsort_internal30FindAndMovePivotToLastPositionIP20ShadowCasterSortDatai26ShadowCasterSortDataSorterEEvT_S4_T0_T1_
Gcb:__Z18Transfer_BlittableI14SafeBinaryReadLb1EiEvRK29SerializationCommandArgumentsR31RuntimeSerializationCommandInfo
c8e:_X509ExtensionEnumerator_get_Current_m256207749
aY:__GLOBAL__sub_I_modules_profiler_public_0_cpp
N6a:__ZN17PersistentManager13GetAllFileIDsERKN4core12basic_stringIcNS0_20StringStorageDefaultIcEEEER13dynamic_arrayIxLj8EE
Qsd:_Array_Sort_m182264525
CUe:_LayoutGroup_set_padding_m282562135
NYd:_Default_IsArrayAssignable_m953489228
Ijg:_UInt16_ToString_m355311020_AdjustorThunk
Kmd:_RC2__ctor_m1146135664
Jk:_glGetStringi
eMf:_DecoderExceptionFallback_CreateFallbackBuffer_m1133375601
frj:__ZNK15dense_hashtableI10KeyWrapperIP18Il2CppGenericClassES3_N6il2cpp8metadata22Il2CppGenericClassHashEN14dense_hash_setIS3_S6_NS3_14EqualsComparerINS5_25Il2CppGenericClassCompareEEENSt3__29allocatorIS3_EEE8IdentityESA_SD_E10test_emptyERK30dense_hashtable_const_iteratorIS3_S3_S6_SF_SA_SD_E
zBe:_Enumerator_get_CurrentKey_m889650866_gshared
UCg:_StackTraceUtility_PostprocessStacktrace_m1043256299
SAe:_Enumerator_VerifyCurrent_m829026141_gshared
o_b:__ZN16PropertyAccessorC2Ev
BVa:__ZNSt3__23mapIN4core12basic_stringIcNS1_20StringStorageDefaultIcEEEE9PrefValueNS_4lessIS5_EENS_9allocatorINS_4pairIKS5_S6_EEEEEixERSB_
gkh:_Collection_1_ConvertItem_m1743542180_gshared
nRc:__Z38Register_UnityEngine_Font_HasCharacterv
qLb:__Z35IntersectSpherePlaneBoundsOptimizedRKN4math7_float4EPS1_i
zCf:_RNGCryptoServiceProvider__cctor_m3587754670
Vtj:__ZN6il2cpp2os5posix15PosixWaitObject13InterruptWaitEv
x0:__Z22CleanupLODGroupManagerPv
Sdc:__Z21Event_CUSTOM_PopEventP12Il2CppObject
tl:_glUniform3fv
rGj:__ZNK6il2cpp8metadata24Il2CppGenericInstCompareclERK10KeyWrapperIPK17Il2CppGenericInstES8_
K3a:__ZNSt3__218__insertion_sort_3IRN15ResourceManager10Dependency6SorterEPS2_EEvT0_S6_T_
x8e:_X509ChainElement_Set_m655180762
iwg:_MonoBehaviour_StopCoroutine_m615723318
eGb:__ZNK16LightmapSettings31GetRealtimeLightmapDecodeValuesEv
Yy:__ZN5audio5mixer12SetSuspendedERNS0_16AudioMixerMemoryEb
F7a:__ZN17PersistentManager21UnloadNonDirtyStreamsEv
kPg:__Z96RuntimeInvoker_Int32_t2950945753_RuntimeObject_Int32_t2950945753_RuntimeObject_Int32_t2950945753PFvvEPK10MethodInfoPvPS4_
SFi:_Uri_get_Parser_m3737125102
zUi:_Canvas_get_overrideSorting_m2740418462
Hfg:_Scheduler__ctor_m3313141270
RYa:__ZN12ImageFilters4BlitER17ShaderPassContextP7TextureP13RenderTextureiPK18SharedMaterialDataPKcP6ShaderiNS_9BlitFlagsE11CubemapFaceRK8Vector2fSH_
FKf:_String_LastIndexOf_m3451222878
HAi:_Mark_get_Index_m3048692661
Hsi:__ZL69CanvasScaler_t2767979955_CustomAttributesCacheGenerator_m_ScaleFactorP21CustomAttributesCache
tce:_ConfigHandler_CheckPath_m3079311646
lH:__ZN11UnityEngine15CloudWebService10RestClientINS0_23WebRequestRestHeaderMapEED2Ev
Pl:_emscripten_glDepthMask
cbe:_RemotingServices_CreateClientProxy_m3886727610
Pla:__ZN4crnd25static_huffman_data_model22prepare_decoder_tablesEv
zmf:_RecordProtocol_GetMessage_m2086135164
Rcc:__Z23GUIStatePopDisplayIndexv
d1:__Znaj
JWj:_emscripten_glEnableClientState__wrapper
LZ:__ZN17MessageIdentifierC2EPKcNS_7OptionsEPKN5Unity4TypeES1_
awg:_Mesh_SetTriangles_m1523451247
IIf:_Single_System_IConvertible_ToSByte_m1208276900
ZJh:_Array_InternalArray__set_Item_TisVector4_t3319028937_m757305038_gshared
DNg:__Z105RuntimeInvoker_Void_t1185182177_RuntimeObject_RuntimeObject_RuntimeObject_RuntimeObject_Int32_t2950945753PFvvEPK10MethodInfoPvPS4_
jGe:_ValueCollection_System_Collections_Generic_ICollectionU3CTValueU3E_Add_m3298059628_gshared
EIg:__Z64RuntimeInvoker_RuntimeObject_Int16_t2552820387_Int16_t2552820387PFvvEPK10MethodInfoPvPS4_
AE:__Z55Register_UnityEngine_AudioSource_get_spatializeInternalv
eza:__ZN14SafeBinaryRead8TransferI14ConstantStringEEvRT_PKc17TransferMetaFlags
KAb:__ZNK6Camera16GetStereoEnabledEv
lSg:__Z72RuntimeInvoker_Int32_t2950945753_TimeSpan_t881159249_TimeSpan_t881159249PFvvEPK10MethodInfoPvPS4_
QWi:_Collision2D_get_transform_m2670923831
_mf:_SendRecordAsyncResult_SetComplete_m153213906
Iba:__ZL24FindBelongingStructParamRPKcRNSt3__26vectorIN9ShaderLab20SerializedSubProgram14ConstantBufferENS2_9allocatorIS6_EEEE
mXb:__ZN12LightManager15InitializeClassEv
Ufg:_WaitHandle__cctor_m4242752477
TOa:__ZN9ShaderLab11shaderprops16GetComputeBufferEPK19ShaderPropertySheetS3_NS_16FastPropertyNameE
tyj:__ZN6il2cpp6icalls8mscorlib6System10Reflection10MethodBase31GetMethodFromHandleInternalTypeEii
MO:__ZN18ScriptingArgumentsC2Ev
tog:_Vector3_op_Equality_m4231250055
eSj:_emscripten_glBlendFuncSeparate__wrapper
RNd:_FileSystemInfo__ctor_m3769019897
COh:_Array_InternalArray__get_Item_TisContentType_t1787303396_m421427711_gshared
Sia:__Z17HasSampledTexture14GraphicsFormat13formatSupport
ZBb:__ZNK25CameraStackRenderingState27GetStereoImageEffectTextureEb
cmd:_HMACSHA384__ctor_m1677515580
vCf:_RIPEMD160Managed_J_m1336489154
Cp:__ZN8Vector3f8TransferI14SafeBinaryReadEEvRT_
s4i:__ZN6il2cpp6icalls6System6System3Net7Sockets6Socket7ReceiveEiP11Il2CppArrayiiNS4_11SocketFlagsEPi
g1b:__ZN13BuildSettings13GetSceneIndexERKN4core12basic_stringIcNS0_20StringStorageDefaultIcEEEE
Eo:FUNCTION_TABLE_ii
bGa:__ZN10TagManager8TransferI18StreamedBinaryReadILb0EEEEvRT_
rhc:__Z18Transfer_BlittableI9JSONWriteLb0E8BitFieldEvRK29SerializationCommandArgumentsR31RuntimeSerializationCommandInfo
ZPd:_MemoryStream_set_Capacity_m1773624579
Zij:__ZNK15dense_hashtableINSt3__24pairIK10KeyWrapperINS1_IP11Il2CppClassjEEES4_EES6_N6il2cpp8metadata14ArrayClassHashEN14dense_hash_mapIS6_S4_SB_NS6_14EqualsComparerINSA_17ArrayClassCompareEEENS0_9allocatorIS8_EEE9SelectKeyESF_SH_E10test_emptyEj
S6:__ZNSt3__26vectorIN9ShaderLab20SerializedSubProgram15StructParameterENS_9allocatorIS3_EEE8__appendEj
vb:invoke_diiii
DQj:b47
FTg:__Z95RuntimeInvoker_Void_t1185182177_RuntimeObject_RuntimeObject_SByte_t1669577662_SByte_t1669577662PFvvEPK10MethodInfoPvPS4_
GAa:__Z24CreateDirectoryRecursiveRKN4core12basic_stringIcNS_20StringStorageDefaultIcEEEE
vQj:b41
m9:__ZN9ShaderLab20SerializedSubProgram8TransferI18StreamedBinaryReadILb0EEEEvRT_
uQj:b40
xQj:b43
lZ:__ZN13RuntimeStaticI21ScalableBufferManagerLb0EE13StaticDestroyEPv
VRc:__ZN2UI13CanvasManager9AddCanvasEPNS_6CanvasE
IYa:__ZN9Texture3D8TransferI19StreamedBinaryWriteILb0EEEEvRT_
CCb:__ZNK6Camera22CalculateRenderingPathEv
$Fd:_Convert_ToInt64_m3758262873
asa:__Z13ConvertMipmap14GraphicsFormatPKvS_Pviiii
Qhb:__ZL12InvokeMethodI17RemapPPtrTransferEvRK29SerializationCommandArgumentsR31RuntimeSerializationCommandInfo
ELf:_StringComparer_Compare_m991165676
dIc:_tt_sbit_decoder_load_image
sHh:_U3CStartU3Ec__Iterator0_Dispose_m261027331_gshared
$sa:__ZN4core8hash_mapIPK17RenderSurfaceBaseP13RenderTexture19PointerHashFunctionIS3_ENSt3__28equal_toIS3_EEE6insertERKNS8_4pairIKS3_S5_EE
Lcc:__ZNSt3__24listIN10GUIManager12SortedScriptE11memory_poolIS2_EE6__sortI13OldSortScriptEENS_15__list_iteratorIS2_PvEESA_SA_jRT_
gnh:_Collection_1_System_Collections_IList_Add_m3364892189_gshared
F9g:_List_1_AddEnumerable_m3500350831_gshared
fgf:_PrivateKeyInfo_get_PrivateKey_m3647771102
Wlj:__ZN6il2cpp6icalls8mscorlib6System9ThreadingL11ThreadStartEPv
X2:__ZN15DirectorManager12OnSampleTimeEv
s2d:_TypeBuilder_check_not_created_m3652863637
U6c:_StandaloneInputModule_UpdateModule_m450861257
iSi:_Font_add_textureRebuilt_m2164317336
xyh:_ReadOnlyCollection_1_System_Collections_IList_Insert_m2928873627_gshared
Opf:_DateTime_get_UtcNow_m1393945741
Z0f:_EqualityComparer_1__cctor_m314889309_gshared
hW:__ZN12CachedReader10Align4ReadEv
zqc:__ZN15b2WorldManifold10InitializeEPK10b2ManifoldRK11b2TransformfS5_f
Cyi:_X501__cctor_m2428304915
yUi:_Canvas_get_renderOrder_m1489855841
bJg:__Z50RuntimeInvoker_Void_t1185182177_Single_t1397266774PFvvEPK10MethodInfoPvPS4_
jHi:_Event_ToString_m1688862299
e2b:__Z15TransformVector23TransformAccessReadOnlyRKN4math7_float3E
fya:__ZNK9Behaviour22GetTypeVirtualInternalEv
xyf:_CCGregorianCalendar_month_from_fixed_m4268992710
dRf:_Array_compare_TisUICharInfo_t75501106_m1310495481_gshared
aMb:__Z21GetScriptingArraySize17ScriptingArrayPtr
rNc:__ZN20TextRenderingPrivate8FontImpl8TransferI14SafeBinaryReadEEvRT_
Mwh:_ReadOnlyCollection_1_System_Collections_IList_Clear_m4022532825_gshared
Lag:_Encoding_get_ASCII_m3595602635
Hfa:__ZN9GfxDevice17ImmediateTexCoordEifff
vwc:__ZN10ClipperLib7Clipper13AppendPolygonEPNS_5TEdgeES2_
h$d:_DerivedType_GetCustomAttributes_m3536779709
j2h:__ZL93Interlocked_t2273387594_CustomAttributesCacheGenerator_Interlocked_CompareExchange_m388540288P21CustomAttributesCache
u3d:_MethodBase_get_IsAbstract_m428833029
rib:__Z35Transfer_Blittable_FixedBufferFieldI24GenerateTypeTreeTransferhEvRK29SerializationCommandArgumentsR31RuntimeSerializationCommandInfo
YPj:_emscripten_glUniform4f__wrapper
n7f:_Enumerator_MoveNext_m2595190390_AdjustorThunk
qM:__ZNK6Camera16GetProjectionFarEv
Yq:__Z24InverseTransformRotationRK23TransformAccessReadOnlyRKN4math7_float4E
Czi:_X509Chain_Build_m2469702749
bA:__ZN11AudioSource6UpdateEv
SVh:__ZL64Path_t1605229823_CustomAttributesCacheGenerator_InvalidPathCharsP21CustomAttributesCache
dSa:__ZN7Texture34CreateFileTextureUploadInstructionE18TextureUploadFlagsj
Lqd:__ZN25GenericVirtActionInvoker06InvokeEPK10MethodInfoP12Il2CppObject
q2d:_TypeBuilder_DefineConstructor_m2989882735
lDa:__ZN25SingleBlockMemoryFileDataC2E10MemLabelIdPvjb
PKb:__ZN27IntermediateRendererManager24GetIntermediateRenderersEi
qrc:__ZNK14b2CapsuleShape5CloneEP16b2BlockAllocator
XC:__ZN16BaseVideoTexture19UpdateVideoTexturesEv
a6d:_MonoField_GetValue_m3124733531
mKa:__Z28BuildSingleStreamChannelInfo17ShaderChannelMaskRK20VertexChannelsLayoutS_S2_P11ChannelInfo
mWa:__ZN6Sprite23VirtualRedirectTransferER19StreamedBinaryWriteILb0EE
y9b:__Z38Transform_CUSTOM_INTERNAL_set_positionP12Il2CppObjectRK8Vector3f
F3c:_EventTrigger_Execute_m2453060771
Gzh:_Comparison_1_Invoke_m517083441_gshared
DPg:__Z253RuntimeInvoker_Int32_t2950945753_RuntimeObject_Int32_t2950945753_Int32_t2950945753_RuntimeObject_Int32_t2950945753_UInt32U26_t3735378166_UInt32U26_t3735378166_RuntimeObject_DecoderFallbackBufferU26_t3866396827_ByteU5BU5DU26_t4057885439_SByte_t1669577662PFvvEPK10MethodInfoPvPS4_
E9i:__ZNK15dense_hashtableINSt3__24pairIK10KeyWrapperINS1_IPK9FieldInfoP11Il2CppClassEEEjEES9_17ReflectionMapHashIS8_EN14dense_hash_mapIS9_jSD_NS9_14EqualsComparerINS0_8equal_toIS8_EEEENS0_9allocatorISB_EEE9SelectKeyESI_SK_E5beginEv
Vba:__ZNK9ShaderLab7Program19HasMatchingVariantsERK13dynamic_arrayI16ShaderKeywordSetLj4EE
Bja:__ZN14DataBufferGLES11CopySubDataEPKS_jjj
ke:_emscripten_glVertexPointer
HTc:__ZN2UI13PrepareOutputERNS_7BatchesEjjNS_30AdditionalCanvasShaderChannelsE
w7i:__ZN6il2cpp2vm7Runtime47RaiseExecutionEngineExceptionIfMethodIsNotFoundEPK10MethodInfo
nBi:_PatternCompiler_GetMachineFactory_m3758869886
YHb:__Z17GetFrustumPortionPK8Vector3fffPS_
_Ti:_playerBehavior_PlayerMove_m3964870918
Goj:__ZN15dense_hashtableINSt3__24pairIK10KeyWrapperIP14Il2CppIUnknownEjEES5_N6il2cpp5utils11PointerHashIS3_EEN14dense_hash_mapIS5_jSB_NS5_14EqualsComparerINS0_8equal_toIS4_EEEENS0_9allocatorIS7_EEE9SelectKeyESG_SI_E14squash_deletedEv
W3c:_EventTrigger_OnCancel_m585099428
vIi:_GUILayoutEntry_ApplyOptions_m1741659338
Hid:_RuntimeTypeHandle_Equals_m2857439487_AdjustorThunk
yda:__ZNK9GfxDevice27GetPlatformAdjustedViewportEv
Tth:_ReadOnlyCollection_1_System_Collections_Generic_IListU3CTU3E_set_Item_m88350439_gshared
mBh:_Func_3_Invoke_m1194147890_gshared
XDi:_Reference_Compile_m4195878675
fwh:_ReadOnlyCollection_1_System_Collections_ICollection_CopyTo_m2672196987_gshared
s_b:__ZN16StreamedResource8TransferI24GenerateTypeTreeTransferEEvRT_
Coc:__ZN11b2GearJoint4DumpEv
sAg:_RectTransform_get_anchorMin_m2928307238
Kxd:_ArrayList__ctor_m3828927650
Jha:__ZThn9568_N13GfxDeviceGLES26EnableScissorRectsPlatformEv
Lua:__ZN10Matrix3x3f15InvertTransposeEv
HIi:_GUILayoutGroup_SetHorizontal_m996475327
yIi:_GUILayoutEntry__cctor_m663865902
eAb:__Z11IsBatchmodev
S5f:_Enumerator_System_Collections_IEnumerator_get_Current_m713684915_gshared
qgb:__Z29Transfer_Blittable_ArrayFieldI14SafeBinaryRead8Vector3fEvRT_R9ArrayInfoRK23StaticTransferFieldInfo
gOc:__ZN20TextRenderingPrivate8FontImpl18ResetCachedTextureEv
L5i:__ZN6il2cpp6icalls8mscorlib6SystemL16GetFieldFromTypeINS_5utils10functional6FilterINSt3__212basic_stringIcNS7_11char_traitsIcEENS7_9allocatorIcEEEENS4_13VmStringUtils21CaseSensitiveComparerEEEEEP21Il2CppReflectionFieldP11Il2CppClassSK_iRKT_
Cac:__Z27Screen_Get_Custom_PropWidthv
eBj:_GC_print_finalization_stats
qoc:__ZNK12b2WheelJoint10GetAnchorBEv
mJi:_GUITargetAttribute_GetGUITargetAttrValue_m2954410352
l4b:__Z53Register_UnityEngine_Behaviour_get_isActiveAndEnabledv
Ysd:_SimpleEnumerator_get_Current_m72361444
rq:__ZNSt3__26vectorIN4core12basic_stringIcNS1_20StringStorageDefaultIcEEEENS_9allocatorIS5_EEE8__appendEj
kD:__ZN13ProduceHelperI10SampleClipLb0EE7ProduceE10MemLabelId18ObjectCreationMode
Z2a:__ZN26PlayerSettingsSplashScreen8TransferI17RemapPPtrTransferEEvRT_
qMe:_ASN1_set_Value_m2803403806
S5i:__ZN6il2cpp6icalls8mscorlib6SystemL17CollectTypeFieldsINS_5utils10functional10TrueFilterEEEvP11Il2CppClassPKS7_iRNSt3__26vectorIP9FieldInfoNSB_9allocatorISE_EEEERKT_
MSb:__Z13GetTagManagerv
wqd:_Hashtable__ctor_m1815022027
Gdg:_UTF8Encoding_GetChars_m1433288684
UXi:__ZL10roundUp128PyS_
uF:__ZN11UnityEngine15CloudWebService17CloudJobSchedulerD0Ev
Ole:_ArrayReadOnlyList_1_Contains_m381552673_gshared
n$b:__Z18CalculateWorldAABBR10GameObject
ZIg:__Z96RuntimeInvoker_Boolean_t97287965_RuntimeObject_RuntimeObject_Int32_t2950945753_Int32_t2950945753PFvvEPK10MethodInfoPvPS4_
FRf:_Array_IndexOf_TisUICharInfo_t75501106_m3198896198_gshared
Qkf:_Context_get_Current_m2853615040
twc:__ZN10ClipperLib7Clipper14IntersectEdgesEPNS_5TEdgeES2_RNS_8IntPointE
ddc:__Z21CleanupGlobalGUIStatev
qig:_Type_IsContextfulImpl_m3693603908
K6f:_Enumerator_VerifyState_m2873941769_gshared
Fpb:__Z18Transfer_BlittableI18StreamedBinaryReadILb0EELb1EN4math12int3_storageEEvRK29SerializationCommandArgumentsR31RuntimeSerializationCommandInfo
iwa:__ZN22VertexDeclarationCache5ClearEv
nkd:_CspParameters__ctor_m3852972821
cPb:__ZN17PersistentManager12SetPathRemapERKN4core12basic_stringIcNS0_20StringStorageDefaultIcEEEES6_
zJb:__ZN6Camera24PrepareCullingParametersERK23CameraCullingParameters13RenderingPathR11CullResults
V0b:__Z12SetIUISystemP9IUISystem
q5a:__ZN19RuntimeSceneManager22EndIntegrateMainThreadEP10UnitySceneNS_11LoadingModeE
CLh:_Array_Sort_TisUICharInfo_t75501106_m3474449559_gshared
MTi:_objectRotate_rotate_m4294547002
Shb:__Z26Transfer_UnityEngineObjectI17RemapPPtrTransferLb0EEvRK29SerializationCommandArgumentsR31RuntimeSerializationCommandInfo
kCi:_QuickSearch_GetShiftDistance_m2542665852
aOh:_Array_InternalArray__get_Item_TisCustomAttributeTypedArgument_t2723150157_m2639399822_gshared
BKe:_BigInteger_GenerateRandom_m3141592944
lkb:__Z29Transfer_Blittable_ArrayFieldI24GenerateTypeTreeTransfer4AABBEvRT_R9ArrayInfoRK23StaticTransferFieldInfo
lcf:_Interval_Contains_m1454846757
fed:_Graphic_CacheCanvas_m1120385152
Poc:__ZN13b2PulleyJoint24SolveVelocityConstraintsERK12b2SolverData
XHj:_emscripten_GetProcAddress
Da:invoke_fiiifii
LMa:__ZN20SphericalHarmonicsL219AddDirectionalLightERKN4math7_float3ERKNS0_7_float4E
O2:__Z26ScheduleJobForEachInternalR8JobFencePFvPvjES1_iPFvS1_E11JobPriority
Rzb:__ZZ23InitPlayerLoopCallbacksvEN41PostLateUpdateProfilerEndFrameRegistrator7ForwardEv
t1b:__ZN9Scripting18RaiseMonoExceptionEPKcz
TRc:__ZN2UI13UIInstruction19ClearSharedMeshDataER8JobFence
HZb:__ZN10GameObject17WillHandleMessageERK17MessageIdentifier
CGf:_StrongNamePublicKeyBlob_Equals_m3655422942
zHf:_SecurityContext__ctor_m1730177197
JVi:_RectTransformUtility_GetTransposed_m3952754222
LXb:__ZN9ShaderLab16FastPropertyName15InitBy28BitHashEj
KAc:__ZN14PhysicsQuery2D8LinecastERK8Vector2fS2_RKN10Collider2D13ContactFilterEPKS3_bP12RaycastHit2Di
D8g:_List_1_System_Collections_IList_set_Item_m4182383657_gshared
fMg:__Z96RuntimeInvoker_Void_t1185182177_Int32_t2950945753_Single_t1397266774_RuntimeObject_RuntimeObjectPFvvEPK10MethodInfoPvPS4_
aAe:_Enumerator_System_Collections_IDictionaryEnumerator_get_Key_m195047678_AdjustorThunk
xUi:_Canvas_get_pixelPerfect_m333060872
HZa:__ZN17PackedFloatVector12UnpackFloatsEPfiiii
Hga:__ZN13GfxDeviceGLES21DestroyComputeProgramER12ObjectHandleI18ComputeProgram_TagPvE
JBi:_PatternCompiler_EmitIfDefined_m2075050865
$sf:_Decimal_System_IConvertible_ToInt64_m1446427516_AdjustorThunk
B0:__ZN17UniqueIDGenerator16DestroyPureIndexEj
_Vd:_NotImplementedException__ctor_m3095902440
ZP:__ZL21AppendNestedClassName17ScriptingClassPtrRN4core17string_with_labelILi1EEE
z6:__ZN14SafeBinaryRead21TransferSTLStyleArrayINSt3__26vectorIN9ShaderLab20SerializedSubProgram12UAVParameterENS1_9allocatorIS5_EEEEEEvRT_17TransferMetaFlags
lSi:_FontTextureRebuildCallback_Invoke_m3604797831
EG:__ZN24TextDOMTransferWriteBaseI9JSONWriteE12PushMetaFlagEi
kZh:__ZL59_PropertyBuilder_t1366136710_CustomAttributesCacheGeneratorP21CustomAttributesCache
mpa:__ZN6prcoreL26RemapGenericIntegerToFloatI17TexFormatARGB888815TexFormatRFloatEEvPKNS_9InnerInfoE
k5i:__ZN6il2cpp2vm10ThreadPool10InitializeEv
bch:_List_1__ctor_m808270210_gshared
Zfj:__ZN6il2cpp2vm17TypeNameParseInfoD2Ev
L3f:_PrimeHelper_ToPrime_m3704362632_gshared
cx:__ZN4FMOD7Channel7setModeEj
Jsf:_Decimal_System_IConvertible_ToType_m2919262279
xFg:_Vector2_get_right_m1027081661
zL:__ZNK8Renderer8GetLayerEv
WQd:_Stream_Close_m771352034
aye:__ZN21InterfaceFuncInvoker1Ii19TimeSpan_t881159249E6InvokeEjP11Il2CppClassP12Il2CppObjectS0_
Qwc:__ZN16PhysicsManager2D23FlagContactsForRecreateEP10Collider2D
jEb:__ZNK6Camera20GetReplacementShaderEv
bfh:_List_1_System_Collections_IList_Remove_m4226673807_gshared
tFj:__ZNSt3__26__treeINS_12__value_typeINS_12basic_stringIcNS_11char_traitsIcEENS_9allocatorIcEEEEPFvvEEENS_19__map_value_compareIS7_SA_NS_4lessIS7_EELb1EEENS5_ISA_EEE4findIS7_EENS_15__tree_iteratorISA_PNS_11__tree_nodeISA_PvEEiEERKT_
Bma:__ZL23stbir__calculate_memoryP11stbir__info
vbf:_Interpreter_Close_m126356671
xbg:_Latin1Encoding_GetMaxCharCount_m1720752733
xXa:__ZN13sorted_vectorIN4core12basic_stringIcNS0_20StringStorageDefaultIcEEEENSt3__24lessIS4_EE13stl_allocatorIS4_L18MemLabelIdentifier81ELi16EEE4findIS4_EENS5_11__wrap_iterIPS4_EERKT_
BCi:_Parser_HandleExplicitNumericGroups_m1412234891
AOh:_Array_InternalArray__get_Item_TisRaycastHit2D_t2279581989_m2440275162_gshared
mZd:_CustomAttributeNamedArgument_Equals_m1414002036
kkc:__ZL26Transfer_SimpleNativeClassI8JSONRead10RectOffsetLb1EEvRK29SerializationCommandArgumentsR31RuntimeSerializationCommandInfo
Hug:_Material_SetInt_m475299667
gVc:__Z44CanvasRenderer_CUSTOM_INTERNAL_CALL_SetColorP12Il2CppObjectRK10ColorRGBAf
WFe:_Enumerator_MoveNext_m3045873697_AdjustorThunk
f5f:_Enumerator_System_Collections_IEnumerator_Reset_m959124362_AdjustorThunk
Pvc:__ZN10ClipperLib11ClipperBaseD0Ev
kxf:_Enum_ToObject_m121831801
ugd:_Image_get_hasBorder_m3423344180
$gc:__Z18Transfer_BlittableI9JSONWriteLb1EsEvRK29SerializationCommandArgumentsR31RuntimeSerializationCommandInfo
lwc:__ZN10ClipperLib8JoinHorzEPNS_5OutPtES1_S1_S1_NS_8IntPointEb
_1b:__ZN9Transform16SetLocalRotationERK11Quaternionf
LTi:_objectRotate_Update_m1859965617
Bdd:_FontData_set_richText_m993590067
AAb:__ZN13RenderManager37RenderCamerasWithScriptableRenderLoopEi
egg:_TimeSpan__ctor_m3689759052
fxh:_ReadOnlyCollection_1_System_Collections_Generic_IListU3CTU3E_Insert_m447088589_gshared
E6g:__Z37RuntimeInvoker_Enumerator_t3123848928PFvvEPK10MethodInfoPvPS4_
Nrj:__ZN6il2cpp2os19ReleaseSocketHandleEj
iC:__ZN11AudioModule16GetDSPSampleRateEv
qxb:__ZN15InstancingProps11NewConstantERKN9ShaderLab16FastPropertyNameEj15ShaderParamTypehhjjP6Object
YQe:_InputField_get_characterValidation_m4196664041
whg:_Type_get_Attributes_m58528356
dod:_Array_GetUpperBound_m4018715963
jAi:_X509Store__ctor_m2736551756
Otj:__ZN6il2cpp2os5posix15PosixWaitObjectC2ENS2_4TypeE
wCb:__ZN6Camera21PostMultiCustomRenderENS_10RenderFlagEb
PVf:_Array_InternalArray__Insert_TisMonoResource_t4103430009_m1997865927_gshared
yEf:_SHA512Managed_HashFinal_m2173184560
uta:__ZN12_GLOBAL__N_112UploadImagesEP7ApiGLESjji14GraphicsFormatPKhjS2_iiii16TextureUsageModePh
exb:__ZN23ShaderVariantCollection13WarmupShadersEv
wVb:__ZN13ProduceHelperI9TransformLb0EE7ProduceE10MemLabelId18ObjectCreationMode
HP:__Z25GetCommonScriptingClassesv
P5a:__Z27scripting_gc_collect_unsafei
Hff:_MD5SHA1_HashFinal_m4115488658
nC:__ZN11AudioModule20SuspendVideoTexturesEv
iTf:_Array_InternalArray__ICollection_Add_TisKeyValuePair_2_t71524366_m3468275433_gshared
VRi:_AudioSettings_InvokeOnAudioManagerUpdate_m4044425648
qE:__Z59Register_UnityEngine_AudioExtensionManager_GetAudioListenerv
Ejb:__Z26Transfer_UnityEngineObjectI24GenerateTypeTreeTransferLb0EEvRK29SerializationCommandArgumentsR31RuntimeSerializationCommandInfo
qFd:_Convert_ToDouble_m278900635
UEc:_UNITY_FT_GlyphLoader_CheckPoints
TOd:_Stream_BeginRead_m2233539237
DBe:_Enumerator_System_Collections_IDictionaryEnumerator_get_Value_m684446183_AdjustorThunk
GIa:__ZN15SharedLightData7PrecalcEv
QR:__ZN10Matrix4x4fmLERKS_
ezg:_Vector2__ctor_m3970636864
anb:__Z35Transfer_Blittable_FixedBufferFieldI18StreamedBinaryReadILb1EEsEvRK29SerializationCommandArgumentsR31RuntimeSerializationCommandInfo
Hxf:_Environment_InternalGetFolderPath_m468390978
dCa:__ZN15ArchiveReadFileD0Ev
zYc:__ZN11UnityEngine15PlatformWrapper18GetOperatingSystemEv
hIf:_SecurityFrame_ToString_m339310712
Ldd:_FontUpdateTracker_RebuildForFont_m3134452007
D8b:__Z40SpriteRenderer_CUSTOM_GetSprite_INTERNALP12Il2CppObject
v7c:_TouchInputModule_ProcessTouchPress_m3504077560
xEc:_FT_MSB
jUj:_emscripten_glReadPixels__wrapper
JFj:__ZN6il2cpp6icalls8mscorlib4Mono8Security12Cryptography18KeyPairPersistence10_CanSecureEP12Il2CppString
oNf:_Array_InternalArray__ICollection_Contains_TisParameterModifier_t1461694466_m1000453323_gshared
SXf:_Dictionary_2_System_Collections_ICollection_CopyTo_m4047192178_gshared
c8i:__ZN6il2cpp2os4File11GetFileStatERKNSt3__212basic_stringIcNS2_11char_traitsIcEENS2_9allocatorIcEEEEPNS0_8FileStatEPi
$Bf:_RIPEMD160Managed_Initialize_m2173168986
yXb:__ZN9TransformC2E10MemLabelId18ObjectCreationMode
Tca:__ZN13GfxDeviceGLES14SetRasterStateEPK17DeviceRasterState
WXd:_Assembly_ToString_m2053237013
kvg:_Vector4_Equals_m1779210055
OGc:_otv_Coverage_get_count
T7d:_ParameterModifier_t1461694466_marshal_pinvoke_back
HS:__ZN14SafeBinaryRead11EndTransferEv
i2f:_EqualityComparer_1__cctor_m2741186979_gshared
qeb:__ZN14SafeBinaryRead8TransferI8MonoPPtrEEvRT_PKc17TransferMetaFlags
axf:_Enum_System_IConvertible_ToUInt16_m4216751959
sua:__ZN21UniformBufferTFMethod13MapBoneBufferEj
GVf:_Array_InternalArray__Insert_TisInt32_t2950945753_m4073217122_gshared
CFe:_Enumerator_get_Current_m2897627569_AdjustorThunk
sDd:_SortedList_Remove_m2784369438
zla:__ZN4crnd12crn_unpacker10unpack_dxnEPPhjjj
pQ:__ZN14SerializedFileD2Ev
Mdc:__Z30Event_Get_Custom_PropModifiersP12Il2CppObject
hXi:_Physics2D_Raycast_m2858866636
yXe:_RawImage_get_mainTexture_m2396337033
z8i:__ZN6il2cpp2vm10Reflection17GetAssemblyObjectEPK14Il2CppAssembly
Qrb:__ZNSt3__218__stable_sort_moveIRN10vector_mapI17ScriptingClassPtrPKN5Unity4TypeENS_4lessIS2_EENS_9allocatorINS_4pairIS2_S6_EEEEE13value_compareENS_11__wrap_iterIPSB_EEEEvT0_SJ_T_NS_15iterator_traitsISJ_E15difference_typeEPNSM_10value_typeE
b5:__ZN6Shader21AwakeFromLoadThreadedEv
ooa:__ZN6prcoreL17RemapGenericFloatI17TexFormatRGBFloat17TexFormatRGBAHalfEEvPKNS_9InnerInfoE
wKe:_BigInteger__ctor_m3991350270
jFg:_Vector2_GetHashCode_m3916089713_AdjustorThunk
VGj:__ZN6il2cpp2os9SemaphoreC2Eii
seb:__ZNSt3__26vectorI8MonoPPtr13stl_allocatorIS1_L18MemLabelIdentifier1ELi16EEE8__appendEj
$Cb:__ZN14qsort_internal30FindAndMovePivotToLastPositionIP17RODataReplacementi19ROSorterReplacementEEvT_S4_T0_T1_
Dua:__ZN15UniformTFMethod20IsBoneCountSupportedEi
Jlg:_UnauthorizedAccessException__ctor_m246605039
TWb:__Z12BuildTextureIA4_tPFvP9Texture2DPS0_iiiiEES2_PKcii13TextureFormatRKT0_17TextureColorSpaceb
INj:dynCall_viidi
YO:__ZN24ScriptingMethodFiltering17FilterOnSignatureENS_18MethodSearchFilterE
COb:__ZN18ScreenManagerWebGL13SetLockCursorE14CursorLockMode
dif:_CipherSuite_DecryptRecord_m1495386860
_yi:_X509Certificate_VerifySignature_m3538124832
_Qd:_StreamAsyncResult_SetComplete_m1102187093
GEi:_CharacterClass_GetIntervalCost_m4036989868
SUb:__ZN13MonoBehaviour19HandleNotificationsEPviR11MessageData
bAg:_RectOffset_Init_m2028508611
wHj:__ZN6il2cpp2os9EventImpl5ResetEv
Sgf:_Alert__ctor_m3135936936
fLd:_Int64_System_IConvertible_ToInt32_m772105781
Vvi:_TlsClientSettings__ctor_m3220697265
Acj:__ZNK15dense_hashtableINSt3__24pairIK10KeyWrapperINS1_IPK9EventInfoP11Il2CppClassEEEjEES9_17ReflectionMapHashIS8_EN14dense_hash_mapIS9_jSD_NS9_14EqualsComparerINS0_8equal_toIS8_EEEENS0_9allocatorISB_EEE9SelectKeyESI_SK_E23find_position_with_hashERSA_j
eRj:b58
iXf:_Dictionary_2_make_pair_m2250450206_gshared
nbg:_ForwardingDecoder_GetChars_m4228908854
Qbf:_InterpreterFactory_get_GroupCount_m2226373271
PQj:b53
MQj:b50
NQj:b51
cRj:b56
dRj:b57
QQj:b54
$Qj:b55
qJe:_SimpleCollator_IsSafe_m310268646
rod:_X509Certificate_get_RawData_m2387471414
MSj:_glDetachShader__wrapper
dtd:_ArrayTypeMismatchException__ctor_m3375008173
ZCe:_Transform_1_BeginInvoke_m1757796657_gshared
i1g:__Z88RuntimeInvoker_Int32_t2950945753_UIVertex_t4057497605_UIVertex_t4057497605_RuntimeObjectPFvvEPK10MethodInfoPvPS4_
aZb:__ZN10GameObject12CleanupClassEv
Hda:__ZN9GfxDevice25SetShaderPropertiesSharedERK19ShaderPropertySheet
h8c:_BaseMeshEffect_get_graphic_m1852367505
DAd:_CaseInsensitiveHashCodeProvider_GetHashCode_m2168170016
Zka:__ZN18AsyncUploadManager19AsyncResourceUploadER9GfxDeviceii9TextureID
uYb:__ZL25InitializeDefaultMaterialv
HVc:__Z53Register_UnityEngine_CanvasRenderer_get_materialCountv
Z2d:_PropertyBuilder_GetCustomAttributes_m3798356764
X7d:_PropertyInfo_get_MemberType_m2794839864
Yye:_Comparer_1_System_Collections_IComparer_Compare_m4179495191_gshared
qAa:__ZN17PersistentManager12UnloadStreamERKN4core12basic_stringIcNS0_20StringStorageDefaultIcEEEEb
cDa:__ZN10MemoryFile4ReadEyyPvPy
NIh:_Array_InternalArray__Insert_TisUICharInfo_t75501106_m2924156520_gshared
_Sf:_MonoProperty_GetterAdapterFrame_TisRuntimeObject_TisRuntimeObject_m458718082_gshared
GVa:__ZN13ScreenManager17RequestResolutionEiibi
bij:_il2cpp_unity_liveness_calculation_from_statics
twe:_InternalEnumerator_1_System_Collections_IEnumerator_get_Current_m2649471526_gshared
aW:__ZN8Renderer8TransferI17RemapPPtrTransferEEvRT_
fda:__ZN13GfxDeviceGLES26UpdateViewProjectionMatrixEv
Yze:_Enumerator_System_Collections_IDictionaryEnumerator_get_Entry_m522483686_gshared
EOe:_PrivateKeyInfo_RemoveLeadingZero_m3921889925
Oeg:_Thread_get_CurrentContext_m1695017876
Dpc:__ZN16PhysicsManager2D19AddRigidbodyUpdatesEP11Rigidbody2D
zMb:__Z24LookRotationToQuaternionRK8Vector3fS1_P11Quaternionf
xMb:__ZN16ReflectionProbes9GetCameraEv
Vaa:__ZL18IsGpuProgramUsable20ShaderGpuProgramTypePK6Shader
nUc:__ZN2UI6Canvas17SetSortingLayerIDEi
Ltj:__ZN6il2cpp2vm11MethodStack23CleanupForCurrentThreadEv
lHd:_Convert_ToUInt64_m388601487
CJa:__ZN20TierGraphicsSettings8TransferI24GenerateTypeTreeTransferEEvRT_
L1i:__ZN15dense_hashtableINSt3__24pairIK10KeyWrapperIN6il2cpp5utils13dynamic_arrayIPK10Il2CppTypeLj4EEEEPFvvEEESA_NS3_8metadata19Il2CppSignatureHashEN14dense_hash_mapISA_SD_SG_NSA_14EqualsComparerINSF_22Il2CppSignatureCompareEEENS0_9allocatorISE_EEE9SelectKeyESK_SM_E16reset_thresholdsEv
Hvg:_Mesh_get_vertices_m3585684815
fgb:__ZN14SafeBinaryRead21TransferSTLStyleArrayI13dynamic_arrayI4AABBLj4EEEEvRT_17TransferMetaFlags
yDg:_TouchScreenKeyboard_get_text_m1797464608
INb:__ZN26CustomRenderTextureManager25UpdateCustomRenderTextureEP19CustomRenderTexturei
S3:__ZNSt3__26__treeINS_12__value_typeIiN11TypeManager18TypeCallbackStructEEENS_19__map_value_compareIiS4_NS_4lessIiEELb1EEENS_9allocatorIS4_EEE7destroyEPNS_11__tree_nodeIS4_PvEE
Otb:__ZN13MonoBehaviour18TransferEngineDataI24GenerateTypeTreeTransferEE4PPtrI10MonoScriptERT_
Vwc:__ZN16PhysicsManager2D42RegisterTransformChangeInterestForColliderEP10Collider2D
uXc:__ZN11UnityEngine7Connect17XRDeviceInfoEventD0Ev
p_h:__ZL60SoapTypeAttribute_t1750930817_CustomAttributesCacheGeneratorP21CustomAttributesCache
CYd:_Binder_ConvertArgs_m2124461494
TJ:__ZN21UnityDefaultAllocatorI17LowLevelAllocatorE10DeallocateEPv
FUj:b86
Qr:__ZN15PackedIntVector8TransferI14SafeBinaryReadEEvRT_
zFg:_Vector3__ctor_m3353183577_AdjustorThunk
Zoe:_InternalEnumerator_1_System_Collections_IEnumerator_get_Current_m1514266661_gshared
Gff:_MD5SHA1_Initialize_m675470944
WTf:_Array_InternalArray__ICollection_Add_TisKeyframe_t4206410242_m442111799_gshared
Ech:_List_1_CheckMatch_m3263549496_gshared
Gv:__ZN13AudioListener8DoUpdateEv
SKd:_Int32_GetTypeCode_m1648562395_AdjustorThunk
AEd:__Z13bankers_roundd
O2a:__ZN14SafeBinaryRead8TransferI5RectTIfEEEvRT_PKc17TransferMetaFlags
wi:_emscripten_glGenFramebuffers
M3:__ZN17BaseObjectManager16StaticInitializeEPv
_7g:_List_1_CheckCollection_m2602703205_gshared
Hhc:__Z18Transfer_BlittableI9JSONWriteLb0EyEvRK29SerializationCommandArgumentsR31RuntimeSerializationCommandInfo
kOa:__ZN13RenderTexture15ThreadedCleanupEv
h7e:_X509BasicConstraintsExtension__ctor_m3721156175
qRa:__ZN12CubemapArray23VirtualRedirectTransferER14SafeBinaryRead
rNd:_Path_GetFileName_m1354558116
KMe:_BitConverterLE_ToDouble_m1601000678
KRj:_emscripten_glUniform3i__wrapper
Lzg:_Rect_Contains_m1232228501_AdjustorThunk
K7b:__Z43RectTransform_CUSTOM_INTERNAL_set_sizeDeltaP12Il2CppObjectRK13Vector2fIcall
oLd:_Int64_System_IConvertible_ToType_m3223988955_AdjustorThunk
Bpj:__ZN15dense_hashtableINSt3__24pairIK10KeyWrapperINS1_IPKcS4_EEEiEES6_24NamespaceAndNamePairHashN14dense_hash_mapIS6_iS9_NS6_14EqualsComparerI26NamespaceAndNamePairEqualsEENS0_9allocatorIS8_EEE9SelectKeyESD_SF_E6insertERKS8_
ZV:__ZN24GenerateTypeTreeTransfer18BeginArrayTransferEPKcS1_Ri17TransferMetaFlags
yOh:_Array_InternalArray__get_Item_TisPlayableBinding_t354260709_m3837494573_gshared
tm:___syscall51
nLf:_String_CreateString_m4016935005
YAi:_MatchCollection_get_FullList_m1829231879
xm:___syscall54
Urd:_Array_GetValue_m2528415604
VAg:_Transform_INTERNAL_CALL_TransformPoint_m4261269221
PBf:_Guid_AppendShort_m791023083
_ch:_List_1__ctor_m4212503576_gshared
cca:__ZN9ShaderLab9SubShader19CreateFromSubShaderERKS0_
VEc:_cff_builder_add_point1
Kqj:__ZN6il2cpp2vm5Image21GetCachedResourceDataEPK11Il2CppImageRKNSt3__212basic_stringIcNS5_11char_traitsIcEENS5_9allocatorIcEEEE
$cb:__Z18Transfer_BlittableI14SafeBinaryReadLb0E10ColorRGBAfEvRK29SerializationCommandArgumentsR31RuntimeSerializationCommandInfo
Aa:invoke_iiiiiiiiii
TD:__ZN11AudioSource25GetNumExtensionPropertiesEv
hVf:_Array_InternalArray__ICollection_CopyTo_TisUILineInfo_t4195266810_m104406798_gshared
sxd:_Char_ToLowerInvariant_m1926695830
Qqg:_Debug_LogErrorFormat_m3558239521
bed:_Graphic_get_canvas_m3320066409
qSe:_InputField_ActivateInputFieldInternal_m3360893886
lu:__ZN4FMOD7SystemI11createSoundEPKcjP22FMOD_CREATESOUNDEXINFOPPNS_5SoundE
KQb:__ZN10FileSystem19SetCurrentDirectoryERKN4core12basic_stringIcNS0_20StringStorageDefaultIcEEEE
Qpg:_Component_get_gameObject_m442555142
GTd:_Math_Log_m2526073084
CVb:__ZN23TransformChangeDispatch24RemovePermanentInterestsE15TransformAccessPKN5Unity4TypeE
d4b:__Z47Register_UnityEngine_Coroutine_ReleaseCoroutinev
rw:__ZN15AudioReverbZone13SetFMODValuesEv
KN:__ZN14SafeBinaryRead4InitERK16TypeTreeIteratorxx24TransferInstructionFlags10MemLabelId
X4:__ZL19StaticDestroyShaderPv
fe:_glRenderbufferStorageMultisample
UCd:_SyncHashtable_Clone_m3726939774
$9i:__ZNK15dense_hashtableINSt3__24pairIK10KeyWrapperIPK10Il2CppTypeEjEES6_N6il2cpp8metadata14Il2CppTypeHashEN14dense_hash_mapIS6_jSB_NS6_14EqualsComparerINSA_26Il2CppTypeEqualityComparerEEENS0_9allocatorIS8_EEE9SelectKeyESF_SH_E10test_emptyEj
cjc:__ZN9JSONWrite8TransferI13dynamic_arrayIN4math12int3_storageELj4EEEEvRT_PKc17TransferMetaFlags
pFb:__ZN22MotionVectorRenderLoopD2Ev
Sqg:_Debug_LogException_m2207318968
cTf:_Array_InternalArray__ICollection_Add_TisClientCertificateType_t1004704908_m2622721177_gshared
Yr:__ZN17PackedFloatVector8TransferI18StreamedBinaryReadILb0EEEEvRT_
rSa:__ZN7Cubemap23VirtualRedirectTransferER17RemapPPtrTransfer
Fac:__Z37Register_UnityEngine_Screen_get_widthv
lGi:_Uri_get_Authority_m3816772302
h$b:__ZN22BlockMemoryCacheWriter11GetPathNameEv
WOe:_RSAManaged_ToXmlString_m645792083
pDg:_Touch_get_position_m3109777936
d7d:_ParameterInfo__ctor_m3269320476
iaf:_X509SubjectKeyIdentifierExtension_FromHexChars_m3244835916
UIf:_Single_CompareTo_m2785801815
Jxi:_PKCS12_MAC_m3355614022
ip:stackAlloc
x4b:__Z44Camera_CUSTOM_INTERNAL_CALL_ScreenPointToRayP12Il2CppObjectRK8Vector3fR3Ray
oDa:__ZN25SingleBlockMemoryFileData4LockEPPv
pVj:_glProgramParameteri__wrapper
FN:__ZN17PersistentManager23PostReadActivationQueueEiPK8TypeTreeb
g6b:__Z32RectOffset_Get_Custom_PropBottomP12Il2CppObject
Nqg:_Debug_LogError_m2850623458
eNi:__ZL24UnresolvedVirtualCall_79P12Il2CppObjectPK10MethodInfo
gph:_Collection_1_CheckWritable_m3225530705_gshared
BJj:_stat
sU:__ZN9ShaderLab10SubProgram7CompileEv
sxb:__ZN15InstancingProps14CombineBuiltinEN10Instancing11BuiltinPropES1_S1_
S2d:_PropertyBuilder_get_CanRead_m3783190070
sQ:__ZN14SerializedFile14SerializedTypeD2Ev
jTf:_Array_InternalArray__ICollection_Add_TisKeyValuePair_2_t3699644050_m4052349323_gshared
qif:_CipherSuiteCollection_System_Collections_IList_get_Item_m2175128671
ypc:__ZN15b2DistanceJoint23InitVelocityConstraintsERK12b2SolverData
nGa:__ZN6CameraD2Ev
ma:invoke_iiiiiiiiiiii
vpf:_DateTime_System_IConvertible_ToType_m1242864300_AdjustorThunk
Dve:_InternalEnumerator_1_get_Current_m2446410893_AdjustorThunk
lKa:__Z29CalculateDefaultChannelsToAdd17ShaderChannelMaskS_
SFa:__ZN10TagManager13RegisterLayerEjRKN4core12basic_stringIcNS0_20StringStorageDefaultIcEEEE
pwa:__ZNSt3__26__treeI20DeviceBlendStateGLES14MemoryCompLessI16DeviceBlendStateENS_9allocatorIS1_EEE7destroyEPNS_11__tree_nodeIS1_PvEE
hVi:_CanvasRenderer_SetMaterial_m633746949
nz:__ZN10AudioMixer12RebindOutputEv
vjj:__ZNK15dense_hashtableINSt3__24pairIK10KeyWrapperIP11Il2CppClassES4_EES5_N6il2cpp8metadata16SZArrayClassHashEN14dense_hash_mapIS5_S4_SA_NS5_14EqualsComparerINS9_19SZArrayClassCompareEEENS0_9allocatorIS7_EEE9SelectKeyESE_SG_E5beginEv
uVe:_LayoutRebuilder_PerformLayoutControl_m4241054021
nZi:__ZN6il2cpp2vm17SetupFieldsLockedEP11Il2CppClassRKNS_2os12FastAutoLockE
fwb:__ZNK9GfxDevice20IsViewportFullscreenEv
Sz:__ZN11AudioSourceD0Ev
bra:__ZN18GlslGpuProgramGLES13SwitchProgramEj
bEa:__ZN20ArchiveStorageReaderC2E10MemLabelId
xIg:__Z132RuntimeInvoker_Int32_t2950945753_RuntimeObject_Int32_t2950945753_Int32_t2950945753_RuntimeObject_Int32_t2950945753_Int32_t2950945753PFvvEPK10MethodInfoPvPS4_
sbb:__ZN16MemoryFileSystem4NameEv
f6c:_ButtonState__ctor_m1506593332
Aac:__Z13SetCopyBufferRKN4core12basic_stringIcNS_20StringStorageDefaultIcEEEE
lwi:_TlsException__ctor_m818940807
Fod:_X509CertificateEnumerator_System_Collections_IEnumerator_get_Current_m418791713
sPc:_UNITY_FT_New_Size
Q2b:__Z42ScriptingGetComponentsOfTypeFromGameObjectRK26ScriptingGetComponentsArgs
ufi:__ZL73ArgumentCache_t2187958399_CustomAttributesCacheGenerator_m_ObjectArgumentP21CustomAttributesCache
dMh:_Array_swap_TisRaycastResult_t3360306849_TisRaycastResult_t3360306849_m3400922624_gshared
BRi:_AudioListener_ReadExtensionName_m929423100
EPc:_raccess_guess_vfat
DQa:__ZNSt3__27__sort4IRPFbRKNS_4pairIN9ShaderLab16FastPropertyNameEN18UnityPropertySheet11UnityTexEnvEEES8_EPS6_EEjT0_SD_SD_SD_T_
TDc:_cf2_hintmap_build
_Cg:_Texture_get_width_m888163864
aNc:_Line_Up
Pob:__Z29Transfer_Blittable_ArrayFieldI18StreamedBinaryReadILb1EExEvRT_R9ArrayInfoRK23StaticTransferFieldInfo
me:_emscripten_glBufferSubData
QKf:_String_ReplaceUnchecked_m1381393810
fye:_DefaultComparer_Compare_m3278268937_gshared
$p:__Z17CalculateGlobalRS23TransformAccessReadOnly
gEj:__ZNSt3__210__list_impIPN6il2cpp5utils10MemoryPool6RegionENS_9allocatorIS5_EEE5clearEv
Wue:_InternalEnumerator_1_get_Current_m1523142935_gshared
bgb:__ZN14SafeBinaryRead21TransferSTLStyleArrayI13dynamic_arrayI9BoundsIntLj4EEEEvRT_17TransferMetaFlags
J7a:__ZN22MemoryCacherReadBlocks14LockCacheBlockEjPPhS1_
Ifj:__ZN6il2cpp2vm14TypeNameParser17ParseAssemblyNameEv
YYa:__ZNK9GfxDevice26GetSinglePassStereoEyeMaskEv
$qg:_DebugLogHandler_Internal_Log_m4175774469
ayj:__ZN4utf88internal15increase_safelyIPKcEENS0_9utf_errorERT_S5_
HOc:__ZN20TextRenderingPrivate8FontImpl16CacheFontForTextEPtiifjPK13dynamic_arrayINS_16TextFormatChangeELj4EE
Dxd:_CharEnumerator_get_Current_m525608209
Y2c:__Z21ArrayElementTypeCheckP11Il2CppArrayPv
tUj:_emscripten_glTexSubImage2D__wrapper
byc:__ZN17PhysicsMaterial2D16CheckConsistencyEv
nvf:_StackTrace_init_frames_m641783388
W6e:_PublicKey_DecodeRSA_m1824703659
uLj:__ZNSt3__212basic_stringIcNS_11char_traitsIcEENS_9allocatorIcEEE6appendEjc
jAc:__ZN16PhysicsManager2D20WorldContactFilter2D13ShouldCollideEP9b2FixtureS2_
NWc:__Z42Register_UnityEngine_Canvas_get_rootCanvasv
zyd:_ArrayListWrapper_set_Item_m3849584877
Ve:_TTF_RenderText_Solid
K8f:_List_1__ctor_m3947764094_gshared
cFi:_Parser_IsIgnorePatternWhitespace_m2107132682
g4e:_HttpRequestCreator_Create_m400548686
j$c:__ZN11UnityEngine7Connect16PersistentValuesC2Ev
Vxh:_ReadOnlyCollection_1_System_Collections_IList_Insert_m134149130_gshared
lhc:__Z18Transfer_BlittableI9JSONWriteLb0E5RectTIiEEvRK29SerializationCommandArgumentsR31RuntimeSerializationCommandInfo
AKe:_BigInteger_get_Rng_m4216817480
aDc:_cf2_getStdVW
fOf:_Array_InternalArray__ICollection_Remove_TisDateTime_t3738529785_m2250893026_gshared
tra:__Z15IsIEEE754Format14GraphicsFormat
Xhb:__Z19TransferField_ArrayI17RemapPPtrTransfer27Converter_UnityEngineObjectEvRK23StaticTransferFieldInfoR31RuntimeSerializationCommandInfoRT0_
$a:invoke_iifiii
qBd:_KeyNotFoundException__ctor_m541499307
CPf:_SetPropertyUtility_SetStruct_TisSpriteState_t1362986479_m665096788_gshared
TIg:__Z61RuntimeInvoker_Single_t1397266774_RuntimeObject_RuntimeObjectPFvvEPK10MethodInfoPvPS4_
lOf:_Array_InternalArray__ICollection_Remove_TisIntPtr_t_m3807208150_gshared
MVg:__Z71RuntimeInvoker_Void_t1185182177_Vector3_t3722313464_Vector3_t3722313464PFvvEPK10MethodInfoPvPS4_
bse:_InternalEnumerator_1_get_Current_m2316281569_AdjustorThunk
yof:_DateTime__ctor_m1095105629
afa:__ZN13GfxDeviceGLES15UploadTexture2DE9TextureID16TextureDimensionPKhiii14GraphicsFormati18TextureUploadFlags16TextureUsageMode
SGi:_Event_Cleanup_m2477919477
jy:__ZN4FMOD6System9createDSPEP20FMOD_DSP_DESCRIPTIONPPNS_3DSPE
A2h:__ZL87Thread_t2300836069_CustomAttributesCacheGenerator_Thread_GetCompressedStack_m2923422412P21CustomAttributesCache
Bnf:_SslClientStream_get_ClientCertificates_m998716871
sf:_JS_SystemInfo_HasCursorLock
ju:__ZN4FMOD8ChannelI11EndCallbackEv
pdc:__ZN8GUIStyle14SetDefaultFontEPN13TextRendering4FontE
_Ua:__ZN15QualitySettings23VirtualRedirectTransferER24GenerateTypeTreeTransfer
Dke:_ObjectReader_ReadValue_m3145979203
Z8c:_CanvasScaler_OnDisable_m3424669401
mri:__ZL68Scrollbar_t1494447233_CustomAttributesCacheGenerator_m_NumberOfStepsP21CustomAttributesCache
_$i:__ZN30dense_hashtable_const_iteratorINSt3__24pairIK10KeyWrapperIPK19Il2CppGenericMethodEPK26Il2CppGenericMethodIndicesEES6_N6il2cpp8metadata23Il2CppGenericMethodHashEN14dense_hash_mapIS6_SA_SE_NS6_14EqualsComparerINSD_26Il2CppGenericMethodCompareEEENS0_9allocatorISB_EEE9SelectKeyESI_SK_EppEv
GCc:_UNITY_FT_Request_Metrics
woj:__ZN6il2cpp6icalls8mscorlib6System10Reflection10MonoMethod29get_IsGenericMethodDefinitionEP22Il2CppReflectionMethod
Rkj:__ZN6il2cpp2vm6Thread21AllocThreadStaticDataEi
HYd:_Default_SelectMethod_m469311730
Jtg:_Input_get_mousePosition_m1616496925
hxj:__ZN30dense_hashtable_const_iteratorINSt3__24pairIK10KeyWrapperIPK19Il2CppGenericMethodEP10MethodInfoEES6_N6il2cpp8metadata23Il2CppGenericMethodHashEN14dense_hash_mapIS6_S9_SD_NS6_14EqualsComparerINSC_26Il2CppGenericMethodCompareEEENS0_9allocatorISA_EEE9SelectKeyESH_SJ_EppEv
Gkg:_UInt32_ToString_m2066897296_AdjustorThunk
fD:__Z13RegisterClassI13AudioListenerEvv
HBd:_Enumerator_Reset_m4274366540
Kgc:__Z18Transfer_BlittableI9JSONWriteLb0E8Vector3fEvRK29SerializationCommandArgumentsR31RuntimeSerializationCommandInfo
Uf:_emscripten_glUniform4i
QGc:_otv_FeatureList_validate
ef:_emscripten_glUniform4f
OWb:__Z13GrayscaleRampP9Texture2DPhiiii
YFc:_otv_validate
ePb:__ZN13sorted_vectorINSt3__24pairIN4core12basic_stringIcNS2_20StringStorageDefaultIcEEEES6_EEN10vector_mapIS6_S6_27compare_tstring_insensitiveIS6_E13stl_allocatorIS7_L18MemLabelIdentifier38ELi16EEE13value_compareESD_E9erase_oneIS6_EEjRKT_
TFf:_X509Certificate_Equals_m3784196370
Ogh:_List_1__ctor_m3376067838_gshared
FA:__ZN20SoundChannelInstance19setReverbPropertiesEP29FMOD_REVERB_CHANNELPROPERTIES
Q6f:_Enumerator_MoveNext_m1446151600_gshared
HDf:_SHA1Internal_ProcessFinalBlock_m1403775421
hac:__Z40Register_UnityEngine_Transform_IsChildOfv
Nie:_RemotingServices_GetOrCreateClientIdentity_m648299611
Fxe:_InternalEnumerator_1_get_Current_m2356858238_AdjustorThunk
n5b:__Z45Register_UnityEngine_Display_GetSystemExtImplv
UOe:_RSAManaged_ImportParameters_m1844641996
dAe:_Enumerator_System_Collections_IDictionaryEnumerator_get_Value_m3325938730_AdjustorThunk
UGe:_ValueCollection_System_Collections_ICollection_get_SyncRoot_m1114275063_gshared
_Xi:__ZL17log2withScale_128yyi
FBf:_Guid_Equals_m1866984197
YSc:__ZNSt3__218__insertion_sort_3IRNS_6__lessIN2UI14DepthSortEntryES3_EEPS3_EEvT0_S7_T_
sXd:_PlatformNotSupportedException__ctor_m1787918017
K1:__ZN13RuntimeStaticI15DirectorManagerLb0EE16StaticInitializeEPv
$uh:_ReadOnlyCollection_1_System_Collections_ICollection_CopyTo_m2643246984_gshared
A1a:__ZN11TimeManager6UpdateEv
G7f:_Enumerator_System_Collections_IEnumerator_get_Current_m209407522_gshared
S8c:_CanvasScaler_get_fallbackScreenDPI_m2811935689
opf:_DateTimeFormatInfo_ReadOnly_m890935083
nzj:__ZN6il2cpp2vm3CCW9CreateCCWEP12Il2CppObject
uvj:__ZN6il2cpp2vm6Method17IsGenericInstanceEPK10MethodInfo
IJj:_fflush
JT:__ZN17LightProbeContext4InitERK16LightmapSettingsRK14RenderSettings
wIb:__ZN18DeferredRenderLoop14RenderLightingER21ActiveLightingContextP13RenderTexture9TextureIDPS3_iRK8Vector4fRK14LightingLayersR10MinMaxAABBb12ObjectHandleI17RenderSurface_TagP17RenderSurfaceBaseE
PBg:_SceneManager_Internal_ActiveSceneChanged_m3676176255
QHj:__GLOBAL__sub_I_Error_cpp
Nvf:_Double_System_IConvertible_ToInt16_m3591921965
hYa:__ZN9Texture3DD2Ev
Oph:_Collection_1_set_Item_m4280581817_gshared
SEd:_Convert_ToChar_m2796006345
MIh:_Array_InternalArray__Insert_TisContentType_t1787303396_m3566390691_gshared
Uyd:_ArrayListWrapper_GetEnumerator_m2336495952
OKb:__Z34ProcessIndexListIsNodeVisibleStep2RK22SceneCullingParametersPK9SceneNodePK4AABBR9IndexList
Ytb:__ZN10MonoScriptD2Ev
qva:__ZN19ConstantBuffersGLES8UpdateCBE5CbKeyPKvj
fRi:_AudioSource_get_spatializeInternal_m2117549793
F6b:__Z39Input_CUSTOM_INTERNAL_get_mousePositionP8Vector3f
$gd:_SerializationCallbacks_GetMethodsByAttribute_m2095490433
DIc:_tt_cmap13_char_next
umi:__ZL117EventSystem_t1003666588_CustomAttributesCacheGenerator_EventSystem_t1003666588____lastSelectedGameObject_PropertyInfoP21CustomAttributesCache
$ba:__ZN9ShaderLab4Pass16SetupPassOptionsEv
ih:_JS_Sound_ReleaseInstance
Zda:__ZN13GfxDeviceGLES19DrawBuffersIndirectEP9GfxBufferPK18VertexStreamSourceiP17VertexDeclaration17ShaderChannelMask16GfxPrimitiveType15ComputeBufferIDj
rBf:_Guid_CheckArray_m921056615
Cce:_ConfigHandler_ReadLifetine_m208994800
Vig:_UInt16_System_IConvertible_ToByte_m3185614807_AdjustorThunk
pzg:_Rect_get_max_m350137314_AdjustorThunk
Im:FUNCTION_TABLE_diddi
clj:__ZN6il2cpp6icalls8mscorlib6System5Array8FastCopyEP11Il2CppArrayiS5_ii
f8b:__Z26Material_CUSTOM_SetIntImplP12Il2CppObjectii
t6b:__Z42Register_UnityEngine_RectOffset_get_bottomv
lJj:_newlocale
cgb:__ZN9BoundsInt8TransferI14SafeBinaryReadEEvRT_
ySj:_emscripten_glUniform1f__wrapper
qNj:dynCall_di
Mrg:_BaseInvokableCall_AllowInvoke_m878393606
rgc:__Z28RegisterModule_JSONSerializev
z8a:__ZN2UI13RectTransform8TransferI14SafeBinaryReadEEvRT_
Dhc:__Z35Transfer_Blittable_FixedBufferFieldI9JSONWriteaEvRK29SerializationCommandArgumentsR31RuntimeSerializationCommandInfo
Rng:_Behaviour_get_enabled_m753527255
N0b:__Z20IsHumanControllingUsv
eGe:_Enumerator_MoveNext_m181298207_gshared
IK:__ZNK20DynamicHeapAllocatorI17LowLevelAllocatorE10GetPtrSizeEPKv
qVh:__ZL51TextInfo_t3810425522_CustomAttributesCacheGeneratorP21CustomAttributesCache
FAa:__ZN10systeminfo21GetPersistentDataPathEv
Mda:__ZN13GfxDeviceGLES17DestroyGpuProgramEPK10GpuProgram
MJh:_Array_InternalArray__set_Item_TisRaycastResult_t3360306849_m730888808_gshared
ycb:__Z44InitializeTransferFunctionScriptingTraitsForI18StreamedBinaryReadILb0EEEvR31TransferFunctionScriptingTraits
HFe:_Enumerator_System_Collections_IEnumerator_Reset_m53411943_gshared
SGb:__ZNSt3__218__insertion_sort_3IR23CompareReflectionProbesP31RuntimeReflectionProbeBlendInfoEEvT0_S5_T_
fib:__ZN12NativeBufferI27Converter_SimpleNativeClassI8GradientEE15SetupForWritingER9ArrayInfo
gLe:_Kernel_RightShift_m2207393597
s4:__ZNSt3__213__stable_sortIRNS_4lessIN4core12basic_stringIcNS2_20StringStorageDefaultIcEEEEEENS_11__wrap_iterIPS6_EEEEvT0_SC_T_NS_15iterator_traitsISC_E15difference_typeEPNSF_10value_typeEi
kui:__ZL48Shadow_t773074319_CustomAttributesCacheGeneratorP21CustomAttributesCache
kY:__ZN12_GLOBAL__N_113StaticDestroyEPv
jXj:_glUnmapBuffer__wrapper
jlc:__ZN8JSONRead21TransferSTLStyleArrayINSt3__26vectorI8Gradient13stl_allocatorIS3_L18MemLabelIdentifier1ELi16EEEEEEvRT_17TransferMetaFlags
X1a:__ZNSt3__218__insertion_sort_3IRNS_6__lessINS_4pairIPKN5Unity4TypeE7Hash128EES8_EEPS8_EEvT0_SC_T_
uRe:_InputField_set_onValueChanged_m3658917578
Pjb:__ZN10RectOffset8TransferI24GenerateTypeTreeTransferEEvRT_
DMd:_BinaryReader__ctor_m2266204403
QMe:__ZN21InterfaceFuncInvoker5IiP22ByteU5BU5D_t4116647657iiS1_iE6InvokeEjP11Il2CppClassP12Il2CppObjectS1_iiS1_i
fzc:__ZNK10Collider2D15GetAttachedBodyEv
x5f:_Enumerator_VerifyState_m3047769867_AdjustorThunk
$ib:__Z18Transfer_BlittableI24GenerateTypeTreeTransferLb1E5RectTIiEEvRK29SerializationCommandArgumentsR31RuntimeSerializationCommandInfo
edc:__ZN16GUIKeyboardStateD2Ev
ISc:__ZN2UI13CanvasManager19RemoveDirtyRendererEPNS_6CanvasEPNS_14CanvasRendererE
nIj:_isspace
kje:_BinaryFormatter__ctor_m2620705134
lYc:__ZN11UnityEngine15PlatformWrapper25GetGraphicsRendererStringEv
$cg:_UTF7Encoding_InternalGetBytes_m797138468
pJ:__ZN11UnityEngine15CloudWebService17WebFileDownloaderINS0_20WebRequestRestClientENS0_23WebRequestRestHeaderMapEED2Ev
Tb:invoke_vi
hpd:_SmallXmlParser_HandleWhitespaces_m549588711
Sic:__ZN9JSONWrite8TransferI13dynamic_arrayI9BoundsIntLj4EEEEvRT_PKc17TransferMetaFlags
Rb:invoke_vd
rb:invoke_vf
UAi:_Regex_get_RightToLeft_m2317867572
sT:__ZNK10GameObject8IsActiveEv
U4b:__Z34Component_Get_Custom_PropTransformP12Il2CppObject
$ki:__ZL67g_UnityEngine_PhysicsModule_Assembly_CustomAttributesCacheGeneratorP21CustomAttributesCache
Sqa:__ZN18GfxFramebufferGLES23SetupDefaultFramebufferEPP17RenderSurfaceBaseS2_N2gl6HandleILNS3_10ObjectTypeE9EEE
Jbd:_DefaultControls_CreateDropdown_m3286664171
cWa:__ZN13ScreenManager18RequestOrientationE17ScreenOrientation
MZi:__ZN6il2cpp2vm5Class12SetupMethodsEP11Il2CppClass
p2b:__Z39DeleteLastPathNameComponentWithAnySlashRKN4core12basic_stringIcNS_20StringStorageDefaultIcEEEE
pcc:__ZN10GUIManager14InitGUIManagerEv
vjg:_UInt16_Equals_m642257745
urd:_Array_System_Collections_IList_IndexOf_m3301661616
eYd:_AssemblyFileVersionAttribute__ctor_m3720707642
t9d:_RuntimeResourceSet_CloneDisposableObjectIfPossible_m2725520898
yec:__Z37Register_UnityEngine_GUIStyle_Cleanupv
Oa:invoke_iiifii
d0e:_SliderEvent__ctor_m3149452941
v9b:__Z39Register_UnityEngine_Time_set_timeScalev
red:_Graphic_OnDisable_m1097930217
C6i:__ZN6il2cpp6icalls8mscorlib6System8MonoType13IsPointerImplEP20Il2CppReflectionType
Vi:_emscripten_glFramebufferRenderbuffer
BJb:__ZN19CullingGroupManager17CullAndSendEventsERK22SceneCullingParametersiRK13CullingOutputRK8JobFence
oFa:__ZN9Transform30EnsureTransformHierarchyExistsEv
thg:_Type_FilterName_impl_m2651733559
isd:_Array_GetValue_m116098292
P3b:__Z46Register_UnityEngine_Application_get_isPlayingv
UOb:__ZNSt3__26vectorINS_4pairIN4core12basic_stringIcNS2_20StringStorageDefaultIcEEEEPK17MessageIdentifierEENS_9allocatorISA_EEE12__move_rangeEPSA_SE_SE_
aDb:__ZN14qsort_internal17MedianOfThreeSwapIP17RODataReplacement19ROSorterReplacementEEvT_S4_S4_T0_
TJf:_String_Split_m3646115398
pAg:_RectOffset_ToString_m2007443979
CYi:__ZNK15dense_hashtableINSt3__24pairIK10KeyWrapperIPK22Il2CppGenericParameterEP11Il2CppClassEES6_N6il2cpp5utils11PointerHashIS4_EEN14dense_hash_mapIS6_S9_SE_NS6_14EqualsComparerINS0_8equal_toIS5_EEEENS0_9allocatorISA_EEE9SelectKeyESJ_SL_E3endEv
l2b:__ZN17TransformInternal36OnScaleChangedCalculateTransformTypeE15TransformAccess
rBa:__ZN17ArchiveFileSystem10ToAbsoluteEPKc
IIi:_GUILayoutGroup_CalcHeight_m1669391299
_Yc:__ZN19UnityConnectService15GetPlayerUserIdEv
rSf:_Array_InternalArray__IndexOf_TisSByte_t1669577662_m4156538463_gshared
G$b:__ZL12SetPrefValueRKN4core12basic_stringIcNS_20StringStorageDefaultIcEEEERK9PrefValue
LYa:__ZN19ShaderPropertySheet20ReservePropertyCountEj
Ixj:__ZN6il2cpp5utils11StringUtils6PrintfEPKcz
Ljj:__ZNSt3__26vectorIN6il2cpp8metadata18GenericArrayMethodENS_9allocatorIS3_EEE7reserveEj
Faa:__ZN15NameToObjectMapI6ShaderNSt3__23mapI4PPtrIS0_EN4core12basic_stringIcNS5_20StringStorageDefaultIcEEEENS1_4lessIS4_EENS1_9allocatorINS1_4pairIKS4_S9_EEEEEENS1_8multimapIS9_S4_NSA_IS9_EENSC_INSD_IKS9_S4_EEEEEEE4FindERSK_
QRa:__ZN24GenerateTypeTreeTransfer21TransferResourceImageE19ActiveResourceImagePKcR13StreamingInfoPvjiPKN5Unity4TypeE
PLh:_Array_Sort_TisVector3_t3722313464_m1030213405_gshared
ltj:__ZN6il2cpp2vm6Object5CloneEP12Il2CppObject
HFj:__ZN6il2cpp6icalls8mscorlib6System9Threading5Mutex20CreateMutex_internalEbP12Il2CppStringPb
FWj:_emscripten_glLinkProgram__wrapper
cqg:_Coroutine_Finalize_m1957108547
IJi:_KeyBuilder_Key_m2503211157
RLa:__ZNSt3__212__deque_baseI18ReflectionProbeJobNS_9allocatorIS1_EEED2Ev
o6:__ZN15dense_hashtableINSt3__24pairIKiN4core17string_with_labelILi1EEEEEi18SInt32HashFunctionN14dense_hash_mapIiS5_S7_NS0_8equal_toIiEE13stl_allocatorIS6_L18MemLabelIdentifier1ELi16EEE9SelectKeyESA_SD_E13set_empty_keyERKS6_
Tpg:_Component_GetComponentInChildren_m388868270
l3f:_GenericEqualityComparer_1_Equals_m1705889345_gshared
hlc:__Z13TransferFieldI8JSONReadLb0E27Converter_SimpleNativeClassI10RectOffsetEEvRK23StaticTransferFieldInfoR31RuntimeSerializationCommandInfoRT1_
Y3e:_FtpWebRequest__cctor_m699542155
Nqj:__GLOBAL__sub_I_GenericMetadata_cpp
X2e:_NameObjectCollectionBase_GetEnumerator_m3677320185
pKb:__Z24CalculateSpotLightBoundsffRK10Matrix4x4fR15SpotLightBounds
CWf:_Dictionary_2_TryGetValue_m3495031886_gshared
tNa:__ZNK13RenderTexture21GetShadowSamplingModeEv
CF:__ZN23CloudWebServicesManager23VirtualRedirectTransferER14SafeBinaryRead
jQe:_PKCS12_AddCertificate_m3857004455
Etb:__Z19ShouldTransferFieldR32SerializationCommandQueueBuilder17ScriptingClassPtriR18TransferField_InfoRK20CoreScriptingClasses
jHf:_SecurityElement_IsValidText_m1346599242
Qva:__ZN26SinglePassStereoSupportExt21SetStereoMatrixCommonE21MonoOrStereoscopicEye24BuiltinShaderMatrixParamRK10Matrix4x4f
Uef:_ARC4Managed_TransformBlock_m1687647868
TBc:__ZL21InitializeCachedStripPv
UWf:_Dictionary_2_System_Collections_Generic_ICollectionU3CSystem_Collections_Generic_KeyValuePairU3CTKeyU2CTValueU3EU3E_Add_m3652125112_gshared
Zlj:__ZN6il2cpp6icalls8mscorlib6System9Threading6Thread23GetCachedCurrentCultureEP12Il2CppThread
kM:__ZNK6Camera22GetWorldToCameraMatrixEv
BMj:runPostSets
Btj:__ZN6il2cpp2vm12GenericClass11IsValueTypeEP18Il2CppGenericClass
zsb:__ZN13MonoBehaviour7SetNameEPKc
Tge:_MethodDictionary_IsOverridenKey_m946843558
SOd:_FileStream_BeginRead_m2419864669
vHh:_U3CStartU3Ec__Iterator0_MoveNext_m4270440387_gshared
u1i:__ZN10KeyWrapperIN6il2cpp5utils13dynamic_arrayIPK10Il2CppTypeLj4EEEEC2ERKS7_
txb:__ZN17InstancingBatcher22FindCBUpperBoundKonstsEv
YX:__GLOBAL__sub_I_runtime_shaders_shaderimpl_0_cpp
t5a:__ZN18AwakeFromLoadQueue5ClearEv
oPd:_FileStream_SetLength_m99749826
SIb:__ZNSt3__27__sort5IR15ReflProbeSorterPP15ReflectionProbeEEjT0_S6_S6_S6_S6_T_
x2:__ZN8Playable10DisconnectEPS_i
zk:_glGenTransformFeedbacks
gAa:__ZN13LoadOperationD2Ev
aId:_Int16_System_IConvertible_ToType_m3672347013
kig:_Type_GetProperty_m4206634422
Qpd:_AttrListImpl_GetValue_m3657391095
pwb:__Z21PlayerStartFirstSceneb
uhh:_List_1_CheckIndex_m3933537097_gshared
EQa:__ZNSt3__27__sort5IRPFbRKNS_4pairIN9ShaderLab16FastPropertyNameEN18UnityPropertySheet11UnityTexEnvEEES8_EPS6_EEjT0_SD_SD_SD_SD_T_
dja:__ZNK7ApiGLES18GetExtensionStringEv
Vgh:_List_1_System_Collections_IList_IndexOf_m2444653486_gshared
zSj:_emscripten_glVertexAttrib1f__wrapper
B9a:__ZNK12HandlerChain4SizeERK13FileEntryData
gp:FUNCTION_TABLE_iiiiiiiii
yvh:_ReadOnlyCollection_1_System_Collections_Generic_ICollectionU3CTU3E_Remove_m4177779688_gshared
onc:__Z22GetPhysicsGroundBody2Dv
ixd:_Char_IsLetter_m3996985877
kih:_Queue_1_Peek_m2302800625_gshared
dRh:__ZL51Delegate_t1188392813_CustomAttributesCacheGeneratorP21CustomAttributesCache
FAj:_GC_allochblk
E5a:__Z15UnloadGameScenev
aVf:_Array_InternalArray__ICollection_CopyTo_TisKeyframe_t4206410242_m2132255743_gshared
eXj:_glCheckFramebufferStatus__wrapper
Zfd:_Image__ctor_m2551076292
NHe:_Dictionary_2_System_Collections_ICollection_CopyTo_m3143696177_gshared
SKg:__Z103RuntimeInvoker_Void_t1185182177_Int32_t2950945753_Int32_t2950945753_Int32_t2950945753_SByte_t1669577662PFvvEPK10MethodInfoPvPS4_
Kac:__Z36Renderer_Get_Custom_PropSortingOrderP12Il2CppObject
W9i:__ZNK15dense_hashtableINSt3__24pairIK10KeyWrapperIPK10Il2CppTypeEjEES6_N6il2cpp8metadata14Il2CppTypeHashEN14dense_hash_mapIS6_jSB_NS6_14EqualsComparerINSA_26Il2CppTypeEqualityComparerEEENS0_9allocatorIS8_EEE9SelectKeyESF_SH_E13find_positionERS7_
jNa:__ZN7Texture5ResetEv
nrc:__ZNK14b2CapsuleShape7RayCastEP15b2RayCastOutputRK14b2RayCastInputRK11b2Transformi
Ude:_Context_get_HasDynamicSinks_m3952434387
pbg:_Latin1Encoding_GetByteCount_m1145650505
qib:__Z18Transfer_BlittableI24GenerateTypeTreeTransferLb1EhEvRK29SerializationCommandArgumentsR31RuntimeSerializationCommandInfo
Qcc:__ZN8GUIState18CycleKeyboardFocusERNSt3__26vectorIP6IDListNS0_9allocatorIS3_EEEEb
kpb:__Z13TransferFieldI18StreamedBinaryReadILb1EELb0E16Converter_StringEvRK23StaticTransferFieldInfoR31RuntimeSerializationCommandInfoRT1_
MNj:dynCall_iiifii
t1:__ZnwjRKSt9nothrow_t
Pqd:_ApplicationException__ctor_m2557611022
xPa:__ZN14SafeBinaryRead19TransferSTLStyleMapINSt3__23mapI39DeprecatedFastPropertyNameSerializationN18UnityPropertySheet11UnityTexEnvENS1_4lessIS3_EENS1_9allocatorINS1_4pairIKS3_S5_EEEEEEEEvRT_17TransferMetaFlags
yeh:_List_1_CheckMatch_m579516778_gshared
gvd:_Buffer_ByteLengthInternal_m1388208719
BUf:_Array_InternalArray__ICollection_CopyTo_TisInt64_t3736567304_m2845057751_gshared
D3b:__Z35UnregisterSerializationCacheBuilderPFv17ScriptingClassPtrR23CachedSerializationDataRbE
sLd:_Int64_System_IConvertible_ToUInt32_m109903525_AdjustorThunk
aU:__Z30GetBuiltinVectorParamArraySize24BuiltinShaderVectorParam
gVf:_Array_InternalArray__ICollection_CopyTo_TisUICharInfo_t75501106_m4268526610_gshared
cNa:__ZN13RenderTextureC2E10MemLabelId18ObjectCreationMode
qId:_Int32_GetFormatException_m519586683
H1h:__ZL46StringBuilder_t_CustomAttributesCacheGeneratorP21CustomAttributesCache
$4f:_Enumerator_MoveNext_m1131351993_gshared
vXd:_RankException__ctor_m2226473861
HOh:_Array_InternalArray__get_Item_TisVector2_t2156229523_m2502961026_gshared
zW:__ZN21RendererUpdateManager11AddRendererER8Renderer
dUb:__Z13RegisterClassI15ResourceManagerEvv
URi:_AudioConfigurationChangeHandler_Invoke_m1233557945
hdb:__Z35Transfer_Blittable_FixedBufferFieldI14SafeBinaryReadsEvRK29SerializationCommandArgumentsR31RuntimeSerializationCommandInfo
NZa:__ZN14SafeBinaryRead21TransferSTLStyleArrayI13dynamic_arrayIfLj4EEEEvRT_17TransferMetaFlags
WEd:_Convert_ToDateTime_m3802186295
Jxj:__ZN6il2cpp5utils11StringUtils11Utf16ToUtf8EPKDs
c4a:__ZN18StreamedBinaryReadILb0EE21TransferSTLStyleArrayINSt3__26vectorIN15ResourceManager10DependencyE13stl_allocatorIS5_L18MemLabelIdentifier52ELi16EEEEEEvRT_17TransferMetaFlags
olg:_UInt64_CompareTo_m1614517204_AdjustorThunk
CYc:__ZN11UnityEngine15PlatformWrapper20IsRootedOrJailbrokenEv
Zzb:__ZZ23InitPlayerLoopCallbacksvEN52PreLateUpdateScriptRunBehaviourLateUpdateRegistrator7ForwardEv
kKb:__Z33IntersectAABBPlaneBoundsOptimizedRK4AABBPKN4math7_float4Ei
bea:__ZN9GfxDevice19EndGeometryJobFrameEv
EHi:_GUILayoutUtility_Layout_m1159951704
xQe:_InputField_get_shouldActivateOnSelect_m3055465770
kib:__ZN27Converter_SimpleNativeClassI17AnimationCurveTplIfEE17ScriptingToNativeER18ScriptingObjectPtrPS1_
shg:_Type__cctor_m2371893800
sGj:__ZN6il2cpp8metadata24Il2CppGenericInstCompare7CompareERK10KeyWrapperIPK17Il2CppGenericInstES8_
X$i:__ZNK15dense_hashtableINSt3__24pairIK10KeyWrapperIPK19Il2CppGenericMethodEPK26Il2CppGenericMethodIndicesEES6_N6il2cpp8metadata23Il2CppGenericMethodHashEN14dense_hash_mapIS6_SA_SE_NS6_14EqualsComparerINSD_26Il2CppGenericMethodCompareEEENS0_9allocatorISB_EEE9SelectKeyESI_SK_E5beginEv
$3c:_ExecuteEvents_Execute_m3049310229
MRb:__ZNK17AnimationCurveTplIfE8EvaluateEfPNS0_5CacheE
bzb:__Z31ManagerContextInitializeClassesv
Hvh:_ReadOnlyCollection_1_System_Collections_IList_Contains_m2650112051_gshared
JMf:_Array_get_swapper_TisVector3_t3722313464_m1221246401_gshared
fKc:_UNITY_FT_List_Finalize
dEb:__Z20LightAttenuateApproxRKfS0_
pX:__ZN9Scripting30SetCachedPtrOnScriptingWrapperE18ScriptingObjectPtrP6Object
Dbf:_RepeatContext_get_IsMinimum_m3640286252
dpc:__ZN16b2PrismaticJoint4DumpEv
ele:_ObjectRecord_ChainFixup_m1889316362
UIa:__ZN18BlockRangeInternal16PopLastNodeIndexEP10BlockRangeji
pzj:__ZN6il2cpp2vm13CachedCCWBaseINS0_13ManagedObjectEE6AddRefEv
o7c:_TouchInputModule_UpdateModule_m2582897964
hZa:__ZN4MeshD0Ev
D1c:__ZL42RequestRecreateEyeTexturesBeforeNextUpdatev
pVc:__Z36CanvasRenderer_CUSTOM_SetPopMaterialP12Il2CppObjectS0_i
Khc:__Z18Transfer_BlittableI9JSONWriteLb0EdEvRK29SerializationCommandArgumentsR31RuntimeSerializationCommandInfo
HGc:_otv_u_O_O_u_O_O
Aoc:__ZNK11b2GearJoint16GetReactionForceEf
dsf:_DBNull_System_IConvertible_ToSByte_m3533624679
IIj:_wctomb
_wd:_Char_CompareTo_m42489266
e3g:__Z67RuntimeInvoker_Void_t1185182177_Int32_t2950945753_Double_t594665363PFvvEPK10MethodInfoPvPS4_
A4b:__Z27Camera_CUSTOM_GetAllCamerasP11Il2CppArray
$c:___cxa_rethrow
O7d:_ParameterInfo_GetCustomAttributes_m2376494592
njc:__Z18Transfer_BlittableI8JSONReadLb1EhEvRK29SerializationCommandArgumentsR31RuntimeSerializationCommandInfo
jed:_Graphic_get_canvasRenderer_m315509948
wmh:_Collection_1_System_Collections_IList_Contains_m3397768605_gshared
zWg:__Z90RuntimeInvoker_Void_t1185182177_Int64_t3736567304_Int32_t2950945753_RuntimeObject_IntPtr_tPFvvEPK10MethodInfoPvPS4_
ntc:__ZN18Overlap2DQueryBase13ReportFixtureEP9b2Fixture
OMh:_Dictionary_2_Do_CopyTo_TisInt32_t2950945753_TisInt32_t2950945753_m3384108308_gshared
Xzf:_CultureInfo_construct_internal_locale_from_name_m3254739477
enf:_RSASslSignatureDeformatter_VerifySignature_m1061897602
KOe:_RSAManaged_remove_KeyGenerated_m2046909903
Imd:_RandomNumberGenerator_Create_m4162970280
NVf:_Array_InternalArray__Insert_TisLabelFixup_t858502054_m171542753_gshared
Zwe:_InternalEnumerator_1_System_Collections_IEnumerator_get_Current_m3539708496_AdjustorThunk
pab:__ZN20LocalFileSystemPosix4ReadER13FileEntryDatayyPvPy
BHb:__ZNSt3__211__sift_downIRN23ForwardShaderRenderLoop18RenderObjectSorterILb0EEEP21ForwardRenderPassDataEEvT0_S7_T_NS_15iterator_traitsIS7_E15difference_typeES7_
WFf:_SecurityPermission__ctor_m1462427327
$Oj:dynCall_iiiiiiffiiiiiiiiiffffiiii
Psb:__ZN13MonoBehaviour5DoGUIENS_13GUILayoutTypeEii
Ibe:_ChannelData_get_ClientProviders_m594662942
jCi:_QuickSearch_GetChar_m1297698557
Wya:__ZNK12TLSAllocatorI14StackAllocatorE8ContainsEPKv
C1a:__ZN11TimeManager8TransferI18StreamedBinaryReadILb0EEEEvRT_
iHg:__Z68RuntimeInvoker_Boolean_t97287965_Int16_t2552820387_SByte_t1669577662PFvvEPK10MethodInfoPvPS4_
Cqf:_DateTime__ParseEnum_m253019513
_Gd:_Convert_ToUInt32_m2194577773
uZa:__ZN14BlendShapeData8TransferI14SafeBinaryReadEEvRT_
OW:__ZN15dense_hashtableINSt3__24pairIKyP17VertexDeclarationEEy14GfxGenericHashIyEN14GfxDoubleCacheIyS4_S7_NS0_8equal_toIyEEN31GfxDoubleCacheConcurrencyPolicy11LocklessGetE42GfxDoubleCacheDefaultEmptyDeletedGeneratorIyEE9SelectKeyESA_13stl_allocatorIS5_L18MemLabelIdentifier24ELi16EEE12resize_deltaEjj
$Bd:_Hashtable_Remove_m4032631466
skc:__Z18Transfer_BlittableI8JSONReadLb1EyEvRK29SerializationCommandArgumentsR31RuntimeSerializationCommandInfo
CRa:__ZN7Texture25ReloadFromStorageIfNeededEPvb
NRf:_Array_InternalArray__IndexOf_TisBoolean_t97287965_m1161209222_gshared
jFj:__ZN6il2cpp2os12Cryptography24OpenCryptographyProviderEv
Gzd:_SynchronizedArrayListWrapper_Clear_m2191301493
hLc:_Update_Max
llj:__ZN6il2cpp6icalls8mscorlib6SystemL15ThrowNoWideningEv
XRb:__ZNK23TransformChangeDispatch24GetChangeMaskForInterestENS_12InterestTypeE
L9b:__Z45Transform_CUSTOM_INTERNAL_CALL_TransformPointP12Il2CppObjectRK8Vector3fRS1_
V0d:_GenericTypeParameterBuilder_InvokeMember_m1647304778
Wfd:_HorizontalOrVerticalLayoutGroup_set_childControlWidth_m3261460516
OPa:__ZNSt3__26__treeINS_12__value_typeI39DeprecatedFastPropertyNameSerializationfEENS_19__map_value_compareIS2_S3_NS_4lessIS2_EELb1EEENS_9allocatorIS3_EEE7destroyEPNS_11__tree_nodeIS3_PvEE
bJc:_tt_cmap4_char_index
Lhh:_Enumerator_System_Collections_IEnumerator_Reset_m1487823313_gshared
L9a:__ZNK12HandlerChain8IsHiddenERK13FileEntryData
Ahb:__ZL26Transfer_SimpleNativeClassI17RemapPPtrTransfer10RectOffsetLb0EEvRK29SerializationCommandArgumentsR31RuntimeSerializationCommandInfo
bQc:__Z14ValidateFormatR13dynamic_arrayIN20TextRenderingPrivate16TextFormatChangeELj4EE
RKd:_Int32_ToString_m2507389746_AdjustorThunk
muf:_Decimal_op_Explicit_m438967917
pWi:_AnimatorControllerPlayable_SetHandle_m2260644454_AdjustorThunk
iwc:__ZN10ClipperLib14PointInPolygonERKNS_8IntPointEPNS_5OutPtE
oRe:_InputField_set_selectionColor_m2084640295
YT:__ZNK9ShaderLab20ShaderBlendStateDesc15ToGfxBlendStateEPK19ShaderPropertySheetS3_R13GfxBlendState
OKc:_Compute_Point_Displacement
hca:__ZN9ShaderLab9IntShaderC2Ev
J6i:__ZN6il2cpp6icalls8mscorlib6SystemL9IsPrivateEPK9EventInfo
aFj:__ZN6il2cpp6icalls8mscorlib6System10Reflection4Emit11TypeBuilder20setup_internal_classEP27Il2CppReflectionTypeBuilderS7_
m0b:__Z18TransformPoints3x4RK10Matrix4x4fPK8Vector3fjPS2_ji
kSf:_Array_InternalArray__IndexOf_TisILTokenInfo_t2325775114_m2602704009_gshared
ecg:_StringBuilder_AppendFormat_m3255666490
oXd:_OverflowException__ctor_m4029085969
K3d:_TypeBuilder_GetGenericArguments_m2872156836
mYi:__ZN13Il2CppHashMapIPK22Il2CppGenericParameterP11Il2CppClassN6il2cpp5utils11PointerHashIS1_EENSt3__28equal_toIS2_EENS9_9allocatorINS9_4pairIK10KeyWrapperIS2_ES4_EEEEEC2EjRKS8_RKSB_
ZNe:_KeyPairPersistence_Remove_m1876145547
HAa:__Z15CreateDirectoryRKN4core12basic_stringIcNS_20StringStorageDefaultIcEEEE
GMa:__Z21CalculateGlobalMatrix23TransformAccessReadOnly
L3d:_TypeBuilder_GetGenericTypeDefinition_m1632720438
YMf:_Array_InternalArray__ICollection_Contains_TisLink_t544317964_m163190451_gshared
trf:_DateTimeOffset_System_IComparable_CompareTo_m176229495_AdjustorThunk
rug:_ManagedStreamHelpers_ValidateLoadFromStream_m580138133
H1a:__ZNK13BuildSettings22GetTypeVirtualInternalEv
A:tempBigIntD
Afh:_List_1_CheckIndex_m2250397830_gshared
bUb:__Z13RegisterClassI14RenderSettingsEvv
z:tempBigIntI
acf:_Interval_get_Empty_m3617514670
SXd:_Assembly_GetName_m981771927
ztj:__ZN6il2cpp2vm12GenericClass8GetClassEP18Il2CppGenericClass
Cea:__ZNK9GfxDevice27GetActiveRenderSurfaceWidthEv
ioi:__ZL114StandaloneInputModule_t2760469101_CustomAttributesCacheGenerator_StandaloneInputModule_ForceAutoSelect_m2837047882P21CustomAttributesCache
nYc:__ZN11UnityEngine15PlatformWrapper28GetCleanGraphicsFixedVersionEv
PWe:_MaskableGraphic_RecalculateClipping_m1772937317
lTd:_UnmanagedMemoryStream_SetLength_m3752964620
Uui:_SslStreamBase_RaiseLocalPrivateKeySelection_m4112368540
ygj:__ZN6il2cpp2vm4Type7GetTypeEPK10Il2CppType
fyc:__ZN17PhysicsMaterial2D23VirtualRedirectTransferER18StreamedBinaryReadILb0EE
ASb:__ZN16SpriteRenderData28PrepareRenderingDataIfNeededEv
mPc:_open_face_PS_from_sfnt_stream
Qcg:_UTF32Encoding_GetByteCount_m3610769032
voa:__ZN6prcoreL17RemapGenericFloatI18TexFormatRGBAFloat17TexFormatRGBAHalfEEvPKNS_9InnerInfoE
BAb:__Z16FindCameraStacksRKNSt3__24listI4PPtrI6CameraENS_9allocatorIS3_EEEERNS_6vectorI11CameraStackNS4_ISA_EEEE
bBi:_MatchCollection_CopyTo_m3807326147
$Ta:__ZN10GISettings8TransferI14SafeBinaryReadEEvRT_
Bn:FUNCTION_TABLE_vifff
rsi:__ZL54Text_t1901882714_CustomAttributesCacheGenerator_m_TextP21CustomAttributesCache
xmd:_MD5CryptoServiceProvider__ctor_m3271163125
ZNb:__ZN19CustomRenderTexture12ClearGPUDataEv
sNa:__ZN13RenderTexture13ApplySettingsEv
nke:_ObjectReader_RegisterObject_m1853376334
w2d:_ModuleBuilderTokenGenerator_GetToken_m2588853565
sud:_Boolean_System_IConvertible_ToDecimal_m3176932461_AdjustorThunk
Ze:_JS_Sound_SetListenerPosition
tn:FUNCTION_TABLE_fiffi
N_e:_ScrollRect_OnInitializePotentialDrag_m3139711961
Bvh:_ReadOnlyCollection_1_System_Collections_Generic_IListU3CTU3E_set_Item_m711370667_gshared
SYd:_Default_check_arguments_with_score_m3467814020
hUj:_glGetActiveUniform__wrapper
A7a:__ZNK8Material16MarkDependenciesER27GarbageCollectorThreadState
k0e:_Slider_set_handleRect_m1101657556
Hrf:_DateTimeOffset_ToString_m3985341516_AdjustorThunk
Nhc:__ZL17Transfer_GUIStyleI9JSONWriteLb0EEvRK29SerializationCommandArgumentsR31RuntimeSerializationCommandInfo
XEb:__Z28GetHaloVertexPositionsStereoP8Vector3fRKS_S2_f
kpa:__ZN6prcoreL27StretchGenericFloatBilinearI15TexFormatRGHalfEEvPKNS_9InnerInfoE
UX:__GLOBAL__sub_I_runtime_misc_0_cpp
W8a:__ZN2UI13RectTransform31UpdateTransformHierarchyIfDirtyEb
Rpb:__Z18Transfer_BlittableI18StreamedBinaryReadILb0EELb1E9BoundsIntEvRK29SerializationCommandArgumentsR31RuntimeSerializationCommandInfo
nsi:__ZL71SpriteState_t1362986479_CustomAttributesCacheGenerator_m_DisabledSpriteP21CustomAttributesCache
X6e:_PublicKey_DecodeDSA_m3490622362
Z7b:__Z49Register_UnityEngine_Resources_GetBuiltinResourcev
hig:_Type_GetMethod_m1479779718
QIc:_tt_cmap10_char_index
svi:_TlsException__ctor_m3242533711
Aef:_BitConverterLE_GetUIntBytes_m795219058
ZCd:_SortedList__ctor_m3676552745
QYi:__ZN15dense_hashtableINSt3__24pairIK10KeyWrapperIPK22Il2CppGenericParameterEP11Il2CppClassEES6_N6il2cpp5utils11PointerHashIS4_EEN14dense_hash_mapIS6_S9_SE_NS6_14EqualsComparerINS0_8equal_toIS5_EEEENS0_9allocatorISA_EEE9SelectKeyESJ_SL_E3endEv
Yeb:__Z35Transfer_Blittable_SingleValueFieldI14SafeBinaryReadjEvRT_R17GeneralMonoObjectRK23StaticTransferFieldInfo
XD:__ZN11AudioSource24ClearExtensionPropertiesE12PropertyName
KJh:_Array_InternalArray__set_Item_TisColor32_t2600501292_m1891325855_gshared
O9:__ZN9ShaderLab22SerializedBindChannels8TransferI19StreamedBinaryWriteILb0EEEEvRT_
fUi:_playerHealth_Fall_m1352706177
Mfb:__ZN15SerializeTraitsI5RectTIiEE8TransferI14SafeBinaryReadEEvRS1_RT_
sdc:__ZN5IMGUI20MoveWindowFromLayoutER8GUIStateiRK5RectTIfE
mXi:_Physics2D_Internal_RaycastNonAlloc_m3815006984
uFc:_UNITY_FT_Stream_ReadUShort
T5:__ZNSt3__26__treeINS_12__value_typeIN4core12basic_stringIcNS2_20StringStorageDefaultIcEEEES6_EENS_19__map_value_compareIS6_S7_NS_4lessIS6_EELb1EEE13stl_allocatorIS7_L18MemLabelIdentifier1ELi16EEE7destroyEPNS_11__tree_nodeIS7_PvEE
kka:__Z13IsDepthFormat14GraphicsFormat
nqf:_DateTime_Parse_m3729096069
dVd:_MonoType_GetFields_m4176012508
tVg:__Z73RuntimeInvoker_Single_t1397266774_Vector3_t3722313464_Vector3_t3722313464PFvvEPK10MethodInfoPvPS4_
rBc:__Z12FormatBufferPciPKcz
iof:_CurrentSystemTimeZone_GetTimeZoneData_m2641861607
w0f:_EqualityComparer_1_System_Collections_IEqualityComparer_GetHashCode_m3423304513_gshared
bZi:__ZN6il2cpp2vm5Class13GetArrayClassEP11Il2CppClassj
I6c:_StandaloneInputModule_set_inputActionsPerSecond_m4057208843
Awb:__ZN19RuntimeSceneManager18LoadSceneAsyncIntoER10UnitySceneRKN4core12basic_stringIcNS2_20StringStorageDefaultIcEEEENS_11LoadingModeEb
ghc:__Z35Transfer_Blittable_FixedBufferFieldI9JSONWritetEvRK29SerializationCommandArgumentsR31RuntimeSerializationCommandInfo
zdc:__ZN11IMGUIModule12AddGUIScriptER8ListNodeI13MonoBehaviourE
pb:invoke_difi
BHi:_GUILayoutUtility_BeginWindow_m2240221150
dTj:_glDeleteSamplers__wrapper
k2e:_HybridDictionary_set_Item_m2997363718
Sm:FUNCTION_TABLE_iiffi
vxe:_InternalEnumerator_1_get_Current_m1477715453_AdjustorThunk
glg:_UInt64_System_IConvertible_ToUInt32_m2784653358
Rja:__ZN21GLESGpuProgramApplier11ApplyVectorERKN20GpuProgramParameters14ValueParameterEPK8Vector4ft
GJb:__Z17PrepareSceneNodesP11CullResults
Rid:_SByte_System_IConvertible_ToDecimal_m2548745278
uCc:_cff_size_done
fKb:__ZN29ExtractProjectionPlanesHelperILb1EE5ApplyERK10Matrix4x4fP5Plane
dZb:__ZN13ProduceHelperI7CubemapLb0EE7ProduceE10MemLabelId18ObjectCreationMode
pOb:__ZN6Camera34UpdatePreviousViewProjectionMatrixEv
Iaa:__ZN9ShaderLab11ShaderState25RemoveUnsupportedProgramsEPK6Shader
$Qc:__Z28Font_Get_Custom_PropMaterialP12Il2CppObject
Mug:_Mathf_Abs_m3281243566
oSd:_SynchronizedWriter_WriteLine_m1552352268
A1b:__Z26scripting_class_has_parent17ScriptingClassPtrS_
V$:__ZN13RuntimeStaticI21AssetReferenceStorageLb0EE16StaticInitializeEPv
PZc:__ZNSt3__26__treeINS_12__value_typeIN4core12basic_stringIcNS2_20StringStorageDefaultIcEEEEN11UnityEngine7Connect19RemoteSettingsValueEEENS_19__map_value_compareIS6_SA_NS_4lessIS6_EELb1EEE13stl_allocatorISA_L18MemLabelIdentifier6ELi16EEE16__construct_nodeERKNS_4pairIKS6_S9_EE
XJd:_Int32_System_IConvertible_ToByte_m3832391412_AdjustorThunk
FE:__Z71Register_UnityEngine_AudioSource_INTERNAL_CALL_ClearExtensionPropertiesv
vte:_InternalEnumerator_1_System_Collections_IEnumerator_get_Current_m4088805473_gshared
Hm:FUNCTION_TABLE_viiifiii
eec:__Z36Register_UnityEngine_GUI_set_changedv
aee:_Context_GetServerContextSinkChain_m3154465897
tIi:_GUIStyle_get_fixedHeight_m2868324709
bGd:_Convert_ToInt64_m2075293963
BFj:__GLOBAL__sub_I_Il2CppCodeRegistration_cpp
lcd:_Dropdown_set_value_m1048320169
JJa:__ZN20TierGraphicsSettings8TransferI18StreamedBinaryReadILb0EEEEvRT_
uKd:_Int32_System_IConvertible_ToUInt64_m2502338186_AdjustorThunk
C3:__Z33CleanupCubemapGPUUtilityMaterialsPv
EPa:__ZN14SafeBinaryRead8TransferINSt3__24pairIN9ShaderLab16FastPropertyNameE10ColorRGBAfEEEEvRT_PKc17TransferMetaFlags
QXi:__ZL9rshift128PyS_
r6f:_Enumerator_VerifyState_m169680537_AdjustorThunk
Zej:__ZN14dense_hash_mapI10KeyWrapperINSt3__24pairIPK12PropertyInfoP11Il2CppClassEEEj17ReflectionMapHashIS8_ENS9_14EqualsComparerINS1_8equal_toIS8_EEEENS1_9allocatorINS2_IKS9_jEEEEE13set_empty_keyERSH_
Sg:_glRenderbufferStorage
Epj:__ZNK15dense_hashtableINSt3__24pairIK10KeyWrapperINS1_IPKcS4_EEEiEES6_24NamespaceAndNamePairHashN14dense_hash_mapIS6_iS9_NS6_14EqualsComparerI26NamespaceAndNamePairEqualsEENS0_9allocatorIS8_EEE9SelectKeyESD_SF_E13find_positionERS7_
d7b:__Z45Register_UnityEngine_Input_get_touchSupportedv
rYc:__ZN11UnityEngine15PlatformWrapper28GetTextureFormatSupportFlagsEv
vHc:_sfnt_is_postscript
hPb:__ZNSt3__26vectorINS_4pairIN4core12basic_stringIcNS2_20StringStorageDefaultIcEEEES6_EE13stl_allocatorIS7_L18MemLabelIdentifier38ELi16EEE26__swap_out_circular_bufferERNS_14__split_bufferIS7_RSA_EEPS7_
DFi:_Uri_EscapeString_m3864445955
hDc:_cf2_setError
yZa:__ZN14SafeBinaryRead21TransferSTLStyleArrayI13dynamic_arrayI12BoneWeights4Lj16EEEEvRT_17TransferMetaFlags
HAe:_Enumerator_MoveNext_m465222849_AdjustorThunk
yzb:__ZZ23InitPlayerLoopCallbacksvEN35PreUpdateSendMouseEventsRegistrator7ForwardEv
Lsa:__ZNK6Camera25GetNormalizedViewportRectEP13RenderTextureb
mcd:_Dropdown_Awake_m3140021404
dh:_glDisable
PNa:__ZN13RenderTexture8TransferI24GenerateTypeTreeTransferEEvRT_
nFg:_Vector2_get_sqrMagnitude_m837837635
N8h:__ZL59WritableAttribute_t812406054_CustomAttributesCacheGeneratorP21CustomAttributesCache
cyj:__ZN6il2cpp5utils11StringUtils15StringDuplicateEPKDsj
rDi:_Regex_Match_m4145799399
LKf:_String_IsNullOrEmpty_m2969720369
oFe:_Enumerator_MoveNext_m2602845255_gshared
cTi:_TextGenerator_GetPreferredHeight_m3514897836
LKe:_BigInteger_LowestSetBit_m3082714978
PXj:b118
QXj:b119
wAb:__ZNK8Material12GetPassCountEv
_Cf:_RSAParameters_t1728406613_marshal_pinvoke
jcf:_Interval_IsDisjoint_m1532171337_AdjustorThunk
JXj:b112
FMj:_bitshift64Ashr
LXj:b114
MXj:b115
NXj:b116
OXj:b117
bOj:dynCall_diii
PVe:_LayoutUtility_GetFlexibleWidth_m22831835
Zje:_BinaryFormatter__ctor_m971003555
zme:_ArrayReadOnlyList_1_ReadOnlyError_m865416608_gshared
PAd:_CollectionBase_System_Collections_IList_get_Item_m3743372945
SGf:_Evidence_GetEnumerator_m302914965
Kla:__ZN4crnd12crn_unpacker22decode_alpha_endpointsEv
dih:_Queue_1__ctor_m2068090025_gshared
MKb:__Z23CullDynamicObjectsUmbraPK4AABBPKN5Umbra15OcclusionBufferER9IndexList
Tui:_SslStreamBase_RaiseRemoteCertificateValidation2_m2908038766
cJc:_tt_cmap4_char_next
jDg:_Time_get_timeScale_m701790074
cO:__ZN4core8hash_mapIi17ThreadedAwakeDataNS_4hashIiEENSt3__28equal_toIiEEE4growEi
VHg:__Z50RuntimeInvoker_Boolean_t97287965_Int16_t2552820387PFvvEPK10MethodInfoPvPS4_
kFd:_Convert_ToDecimal_m1233667008
xYg:__Z44RuntimeInvoker_RuntimeObject_Ray_t3785851493PFvvEPK10MethodInfoPvPS4_
bO:__ZN4core8hash_mapIi17ThreadedAwakeDataNS_4hashIiEENSt3__28equal_toIiEEE4growEv
yX:__GLOBAL__sub_I_runtime_assetbundles_1_cpp
Qw:__ZN4FMOD7Channel11setPositionEjj
Xh:_glBindSampler
gif:_ClientContext_get_ClientHelloProtocol_m1654639078
$h:_glGetVertexAttribiv
FFe:_Enumerator_System_Collections_IEnumerator_get_Current_m1975949486_gshared
KBi:_PatternCompiler_EmitSub_m193323684
VKd:_Int64_System_IConvertible_ToByte_m375085029
Skc:__ZN8JSONRead8TransferIbEEvRT_PKc17TransferMetaFlagsb
_gg:_TimeSpan_ToString_m1128692466
rKi:_AesManaged_CreateEncryptor_m2294080233
hHi:_Event_GetHashCode_m3559153592
vaa:__ZN9ShaderLab9SubShaderD2Ev
nAj:_GC_promote_black_lists
VEd:_Convert_ToChar_m3757390865
Glc:__Z29Transfer_Blittable_ArrayFieldI8JSONRead8Vector4fEvRT_R9ArrayInfoRK23StaticTransferFieldInfo
Zn:FUNCTION_TABLE_vf
EYd:_Binder_GetDerivedLevel_m3216810447
yo:FUNCTION_TABLE_vd
BAc:__ZN16b2StackAllocatorC2Ev
SY:__ZN13RuntimeStaticI37UnityShaderCompilerExtPluginConfigureLb0EE16StaticInitializeEPv
fcg:_StringBuilder_AppendFormat_m2403596038
jld:_DSASignatureDeformatter_SetHashAlgorithm_m3186995552
kth:_ReadOnlyCollection_1_System_Collections_Generic_ICollectionU3CTU3E_Clear_m2772202961_gshared
Vic:__ZN9JSONWrite8TransferI13dynamic_arrayI4AABBLj4EEEEvRT_PKc17TransferMetaFlags
Ys:__ZNK8Animator17HasBoundPlayablesEv
Yxc:__ZN17Physics2DSettings8TransferI24GenerateTypeTreeTransferEEvRT_
o9d:_ResourceSet_ReadResources_m3663669011
Ieg:_SynchronizationContext_SetSynchronizationContext_m1249070039
nfh:_List_1_AddEnumerable_m1267044261_gshared
CIc:_tt_cmap13_char_index
o7i:__ZN6il2cpp2vm7Runtime9SetConfigEPKc
Hfc:__ZN5Unity9rapidjson12PrettyWriterI16TempBufferWriterNS0_4UTF8IcEES4_13JSONAllocatorE10StartArrayEv
ua:invoke_iiifiii
JAg:_RectTransform_INTERNAL_get_pivot_m2970933031
REh:_UnityAction_1_Invoke_m927447181_gshared
pmj:__ZN6il2cpp2vm9Exception11FromNameMsgEPK11Il2CppImagePKcS6_S6_
jn:FUNCTION_TABLE_fiiifii
W2:__Z14GetTimeManagerv
Lpg:_Color32_op_Implicit_m213813866
jAg:_RectOffset_set_top_m713260669
iTb:__ZneRK20SpriteTilingPropertyS1_
O$c:__ZN19TransportJavaScript7CleanupEv
PDa:__Z12GUIDToStringRK9UnityGUIDPc
T$:__ZN15FileSystemEntry4LockE12FileLockModeP12FileAccessor
RVj:_emscripten_glDrawArrays__wrapper
DKd:_Int32_Equals_m2976157357
WUg:__Z110RuntimeInvoker_Int32_t2950945753_Int32_t2950945753_Int32_t2950945753_Int32U26_t1369213839_Int32U26_t1369213839PFvvEPK10MethodInfoPvPS4_
nA:__ZN11AudioSource22UnmuteActiveVideoSinksEv
kwi:_TlsException__ctor_m3717683709
$xj:__ZN4utf88internal20is_overlong_sequenceIiEEbjT_
V0i:__ZN6il2cpp2vm13MetadataCache8RegisterEPK22Il2CppCodeRegistrationPK26Il2CppMetadataRegistrationPK20Il2CppCodeGenOptions
uFa:__Z9SetLocalR15TransformAccessRKN4math7_float4Ey
JGb:__Z30SetupBakedOcclusionForGeometrybRK26SharedLightmapSettingsDataRK15LightmapIndicesR17ShaderPassContext
d5b:__Z41Register_UnityEngine_Cursor_get_lockStatev
fGb:__Z14SetupLightmapsRK8Vector4fS1_R17ShaderPassContext
xdj:__ZN14dense_hash_mapI10KeyWrapperIPK14Il2CppAssemblyEPK22Il2CppMonoAssemblyNameN6il2cpp5utils11PointerHashIS2_EENS4_14EqualsComparerINSt3__28equal_toIS3_EEEENSD_9allocatorINSD_4pairIKS4_S7_EEEEE13set_empty_keyERSJ_
BOa:__ZL20InitializeGUIShadersv
CBf:_Guid_CompareTo_m243656946
fSb:__Z20DestroyObjectDelayedP6Objectf
CK:__ZN20DynamicHeapAllocatorI17LowLevelAllocatorED0Ev
Rvc:__ZN10ClipperLib11ClipperBase5ResetEv
QVb:__ZN11TimeManagerC2E10MemLabelId18ObjectCreationMode
DDb:__ZN9DepthPassD2Ev
Iv:__ZN11AudioFilter6GetDSPEv
ZCf:_RSACryptoServiceProvider_OnKeyGenerated_m863837376
fZe:_Scrollbar_OnDrag_m4289602768
G_:__ZN19RuntimeSceneManager14CanUnloadSceneEP10UnityScene
FDb:__Z22ExtractRenderNodeQueueRK11CullResults15ExtractionFlagsR15RenderNodeQueue
Nu:__ZN24AudioScriptBufferManagerC2Ev
NOc:__ZNSt3__26vectorIh13stl_allocatorIhL18MemLabelIdentifier1ELi16EEE8__appendEj
zve:_InternalEnumerator_1_System_Collections_IEnumerator_get_Current_m3854084659_AdjustorThunk
Vec:__ZN8JSONRead32GetValueForKeyWithNameConversionEPKN5Unity9rapidjson12GenericValueINS1_4UTF8IcEE13JSONAllocatorEEPKc
Cle:_U3CGetEnumeratorU3Ec__Iterator0_System_Collections_IEnumerator_get_Current_m283764921_gshared
POc:__ZN20TextRenderingPrivate8FontImpl16ResetPackingDataEv
Fyf:_CultureInfo_get_IcuName_m2258611679
Fgc:__Z18Transfer_BlittableI9JSONWriteLb0EfEvRK29SerializationCommandArgumentsR31RuntimeSerializationCommandInfo
Xka:__Z21GetAsyncUploadManagerv
Oj:_emscripten_glDetachShader
_Ag:_Vector2_op_Subtraction_m73004381
Lka:__ZN17GenericDynamicVBO20ReleaseChunkInternalERK21DynamicVBOChunkHandlejj
_Qc:__ZL27CleanupModule_TextRenderingv
hJj:_fmodl
hPe:_SymmetricTransform_OFB_m3842617151
Xmb:__Z18Transfer_BlittableI18StreamedBinaryReadILb1EELb1E4AABBEvRK29SerializationCommandArgumentsR31RuntimeSerializationCommandInfo
Fwb:__ZN19RuntimeSceneManager11CreateSceneEv
mpg:_Color__ctor_m286683560
rBi:_PatternCompiler_Emit_m1540115729
mHc:_ps_get_standard_strings
IGb:__Z27SetupBakedOcclusionForLightbRK15SharedLightDataR17ShaderPassContext
TFj:__ZN6il2cpp2os5Mutex6UnlockEv
T9f:_EncoderFallbackException__ctor_m1051987327
TKe:_BigInteger_ToString_m3278248272
Lsf:_Decimal_System_IConvertible_ToBoolean_m1123794670
f1g:__Z98RuntimeInvoker_Int32_t2950945753_RaycastResult_t3360306849_RaycastResult_t3360306849_RuntimeObjectPFvvEPK10MethodInfoPvPS4_
X_:__Z17CommitBatchDeleteR11BatchDelete
_Ve:_Mask__ctor_m1269055150
I2h:__ZL99WaitHandle_t1743403487_CustomAttributesCacheGenerator_WaitHandle_t1743403487____Handle_PropertyInfoP21CustomAttributesCache
W5e:_WebRequest_AddPrefix_m3187775913
$Ab:__Z18RenderImageFiltersR10RenderLoopb
lVc:__Z43CanvasRenderer_Get_Custom_PropMaterialCountP12Il2CppObject
TGb:__ZNSt3__227__insertion_sort_incompleteIR23CompareReflectionProbesP31RuntimeReflectionProbeBlendInfoEEbT0_S5_T_
Pbh:_List_1_Remove_m1457733883_gshared
$lc:__ZN8JSONRead21TransferSTLStyleArrayI13dynamic_arrayI11QuaternionfLj4EEEEvRT_17TransferMetaFlags
L1b:__ZN19RuntimeSceneManager32LoadSceneAsyncByNameOrBuildIndexERKN4core12basic_stringIcNS0_20StringStorageDefaultIcEEEEiNS_11LoadingModeEb
wff:_MD4Managed_Encode_m386285215
k0:__ZN10InputEventD2Ev
V0c:__ZN22UnityWebRequestManagerD2Ev
XGi:_Event_get_character_m1666742088
OIj:_isalpha
REd:_Convert_ToChar_m1442101407
Unf:_SslClientStream_OnLocalPrivateKeySelection_m1934775249
xnc:__ZNK12b2MotorJoint17GetReactionTorqueEf
Jrf:_DateTimeOffset_get_Offset_m2040541042_AdjustorThunk
X4i:__ZN6il2cpp2vmL17IsSocketAsyncCallEP14Il2CppDelegate
kzc:__Z13RegisterClassI11Rigidbody2DEvv
CCd:_Slot_t3975888750_marshal_pinvoke_back
kyj:__ZN6il2cpp2vm6String6NewLenEPKcj
aV:__Z25GetBuiltinTexEnvParamNamei
Aub:__ZN17PersistentManager9AddStreamEv
dl:_time
tad:_ContentSizeFitter_set_verticalFit_m1831566876
vFf:_TripleDESCryptoServiceProvider_CreateDecryptor_m740960117
wZg:__Z122RuntimeInvoker_Void_t1185182177_Color_t2555686324_Single_t1397266774_SByte_t1669577662_SByte_t1669577662_SByte_t1669577662PFvvEPK10MethodInfoPvPS4_
Eug:_Material_EnableKeyword_m329692301
WDc:_cf2_stack_free
rEf:_SHA512Managed_HashCore_m2377807474
DLd:_Int64_Parse_m3309897583
kzf:_CompareInfo_IndexOf_m667936183
v8g:_List_1_System_Collections_IList_Insert_m1011775503_gshared
Xva:__ZN26SinglePassStereoSupportExt18AfterSetViewMatrixEv
Wng:_Bounds__ctor_m1937678907_AdjustorThunk
mCg:_SetupCoroutine_InvokeMember_m2661944898
N3f:_HashSet_1__ctor_m620629637_gshared
x6e:_X509EnhancedKeyUsageExtension_ToString_m350388564
j9i:__ZN15dense_hashtableINSt3__24pairIK10KeyWrapperINS1_IPK9FieldInfoP11Il2CppClassEEEjEES9_17ReflectionMapHashIS8_EN14dense_hash_mapIS9_jSD_NS9_14EqualsComparerINS0_8equal_toIS8_EEEENS0_9allocatorISB_EEE9SelectKeyESI_SK_E4findERSA_
tzd:_SimpleEnumerator_MoveNext_m3113120129
Ewb:__ZN13LoadOperationC2E10MemLabelId
CQe:_InputField_SendOnValueChanged_m2560301445
nMb:__ZN13RenderTexture19SetAutoGenerateMipsEb
rma:__Z20GetTextureFormatInfo13TextureFormat
C3e:_TypeConverterAttribute_Equals_m1580461255
Agf:_RSAManaged_ToXmlString_m2369501989
icf:_Interval_get_Size_m4163671410_AdjustorThunk
vSc:__ZN2UI14CanvasRenderer13AwakeFromLoadE17AwakeFromLoadMode
hQh:__ZL64String_t_CustomAttributesCacheGenerator_String_Split_m3580120853P21CustomAttributesCache
jEj:__ZN6il2cpp5utils10MemoryPool6MallocEj
fu:__ZN11SoundHandle8InstanceD2Ev
_8d:_ResourceEnumerator_Reset_m3754276504
y3:__ZN31CanvasBatchIntermediateRenderer13StaticDestroyEPv
mP:__ZNSt3__23mapIiP15MonoScriptCacheNS_4lessIiEE13stl_allocatorINS_4pairIKiS2_EEL18MemLabelIdentifier78ELi16EEEixERS7_
jHa:__Z26scripting_method_get_class18ScriptingMethodPtr
CTj:_emscripten_glBindProgramARB__wrapper
a5b:__Z41Register_UnityEngine_CullingGroup_Disposev
OBi:_PatternCompiler_EmitRepeat_m697083858
pSa:__ZN7Cubemap23VirtualRedirectTransferER19StreamedBinaryWriteILb0EE
z7i:__ZN6il2cpp2vm7Runtime47RaiseExecutionEngineExceptionIfMethodIsNotFoundEPK10MethodInfoPK19Il2CppGenericMethod
zCa:__ZN25MultiBlocksMemoryFileData5WriteEyyPKv
Joc:__ZNK13b2PulleyJoint16GetReactionForceEf
D8d:_ResourceReader_Read7BitEncodedInt_m3568166465
PMe:_BlockProcessor_Core_m2138791525
TUi:_CanvasGroup_set_alpha_m4032573
Erd:_Array_get_LongLength_m978104875
$pa:__ZL17ProgramUniform2fvPK7ApiGLESjiihPKv
nUj:b83
JOc:__ZN20TextRenderingPrivate8FontImpl21HasCharacterInTextureEjijfPj
zEg:_Transform_SetAsFirstSibling_m253439912
xpf:_DateTime_System_IConvertible_ToUInt16_m4182197229_AdjustorThunk
bcf:_Interval_get_IsDiscontiguous_m3016063288
Vui:_SslStreamBase_get_CheckCertRevocationStatus_m2739906607
gKj:_htonl
$ha:__Z20GetBufferManagerGLESv
mUj:b82
BEf:_SHA512Managed_Sigma1_m922902398
Nqb:__ZN18StreamedBinaryReadILb0EE21TransferSTLStyleArrayI31ArrayOfManagedObjectsTransfererEEvRT_17TransferMetaFlags
Dia:__ZNSt3__26__treeI22DeviceStencilStateGLES14MemoryCompLessI18DeviceStencilStateENS_9allocatorIS1_EEE12__find_equalIS1_EERPNS_16__tree_node_baseIPvEESD_RKT_
Qjc:__Z18Transfer_BlittableI8JSONReadLb0EtEvRK29SerializationCommandArgumentsR31RuntimeSerializationCommandInfo
HN:__Z16GenerateTypeTreeRK6ObjectR8TypeTree24TransferInstructionFlags
aAf:_CultureInfo_CreateCulture_m1493441763
nFf:_TripleDES_IsWeakKey_m2147489852
qw:__ZN12AudioManager21FixMasterGroupRoutingEv
ZYa:__ZNK19ShaderPropertySheet11HasPropertyERKN9ShaderLab16FastPropertyNameE
Kyc:__ZN6b2Body9SetActiveEb
d0g:__Z81RuntimeInvoker_Boolean_t97287965_NavigationU26_t1807167253_Navigation_t3049316579PFvvEPK10MethodInfoPvPS4_
IVj:_emscripten_glUniform1fv__wrapper
Dfd:_GridLayoutGroup_SetLayoutHorizontal_m2838109254
Lbd:_Dropdown_RefreshShownValue_m2806045241
cdb:__Z18Transfer_BlittableI14SafeBinaryReadLb1E4AABBEvRK29SerializationCommandArgumentsR31RuntimeSerializationCommandInfo
Ytj:__ZN6il2cpp6icalls8mscorlib6System4Enum12get_hashcodeEP12Il2CppObject
lDj:_GC_set_no_dls
O9c:_ColorBlock_set_normalColor_m254595671_AdjustorThunk
JHj:__ZN6il2cpp8metadata26Il2CppGenericMethodCompare6EqualsEPK19Il2CppGenericMethodS4_
sue:_InternalEnumerator_1_get_Current_m1007906068_gshared
Q_i:__ZN15dense_hashtableINSt3__24pairIK10KeyWrapperIPK11Il2CppClassEPKcEES6_N6il2cpp5utils11PointerHashIS3_EEN14dense_hash_mapIS6_S9_SE_NS6_14EqualsComparerINS0_8equal_toIS5_EEEENS0_9allocatorISA_EEE9SelectKeyESJ_SL_E15set_deleted_keyERKSA_
vzd:_SimpleEnumerator_Reset_m1520014659
Vu:__ZN9AudioClip7WWWOpenEPKciPjPPvS4_
Vcb:__Z18Transfer_BlittableI14SafeBinaryReadLb0E8Vector2fEvRK29SerializationCommandArgumentsR31RuntimeSerializationCommandInfo
hkf:_Context_set_ProtocolNegotiated_m2904861662
Cpj:__ZN15dense_hashtableINSt3__24pairIK10KeyWrapperINS1_IPKcS4_EEEiEES6_24NamespaceAndNamePairHashN14dense_hash_mapIS6_iS9_NS6_14EqualsComparerI26NamespaceAndNamePairEqualsEENS0_9allocatorIS8_EEE9SelectKeyESD_SF_E12resize_deltaEjj
tTi:_cameraSystem_LateUpdate_m2925675220
Jie:_RemotingServices_GetRemoteObject_m2117098022
iVi:_CanvasRenderer_SetTexture_m1600559835
b$c:__ZN13dynamic_arrayIiLj4EE6insertEPiPKiS3_
qph:_Collection_1_System_Collections_IList_IndexOf_m4256072926_gshared
fLg:__Z132RuntimeInvoker_Boolean_t97287965_RuntimeObject_Int32_t2950945753_Int32_t2950945753_RuntimeObject_Int32_t2950945753_Int32_t2950945753PFvvEPK10MethodInfoPvPS4_
_6b:__Z53Register_UnityEngine_Input_INTERNAL_get_mousePositionv
Uha:__ZN7ApiGLES12DrawElementsE16GfxPrimitiveTypePKvjjjj
yOe:_EncryptedPrivateKeyInfo_get_Salt_m3453455261
Eqf:_DateTime__ParseNumber_m1240316250
Iqe:_InternalEnumerator_1_get_Current_m3839250771_gshared
eac:__Z66Register_UnityEngine_Transform_INTERNAL_CALL_InverseTransformPointv
Ezf:_CultureInfo_get_TextInfo_m2342840448
kd:_SDL_GetTicks
fbj:__ZN15dense_hashtableINSt3__24pairIK10KeyWrapperINS1_IPK11Il2CppImageP11Il2CppClassEEEjEES9_17ReflectionMapHashIS8_EN14dense_hash_mapIS9_jSD_NS9_14EqualsComparerINS0_8equal_toIS8_EEEENS0_9allocatorISB_EEE9SelectKeyESI_SK_E6insertERKSB_
rKb:__Z21CreateShadowCullerJobP30CreateUmbraShadowCullerJobData
Ewh:_ReadOnlyCollection_1_System_Collections_Generic_ICollectionU3CTU3E_Remove_m4072504734_gshared
Tpa:__ZL18ProgramUniform2uivPK7ApiGLESjiihPKv
w8c:_U3COnFinishSubmitU3Ec__Iterator0_MoveNext_m2729496168
iVj:_glUniform4iv__wrapper
rHb:__Z33GenerateShadowCasterPartsSortDataRK16ShadowCasterDatajRK15RenderNodeQueueRKNSt3__26vectorI20ShadowCasterPartData13stl_allocatorIS7_L18MemLabelIdentifier2ELi16EEEERK10Matrix4x4fRjP20ShadowCasterSortData
Nzb:__ZZ23InitPlayerLoopCallbacksvEN51PostLateUpdateTriggerEndOfFrameCallbacksRegistrator7ForwardEv
Dgg:_TimeSpan_Compare_m753151303
agb:__Z29Transfer_Blittable_ArrayFieldI14SafeBinaryRead9BoundsIntEvRT_R9ArrayInfoRK23StaticTransferFieldInfo
bDc:_cf2_computeDarkening
WVi:_AnimationLayerMixerPlayable__ctor_m860721801_AdjustorThunk
U6d:_MonoPropertyInfo_get_property_info_m1599555644
Ikd:_DESTransform_CipherFunct_m3527261721
JAj:_GC_expand_hp_inner
kc:invoke_viiiififfi
Eac:__Z25Screen_Get_Custom_PropDpiv
Dsg:_UnityEventBase_RebuildPersistentCallsIfNeeded_m216788690
Qxj:__ZN4utf812find_invalidIPKcEET_S3_S3_
CSe:_InputField_OnEndDrag_m4127187089
bzh:_ReadOnlyCollection_1_System_Collections_IList_RemoveAt_m2555465054_gshared
uTh:__ZL72RuntimeCompatibilityAttribute_t1169614002_CustomAttributesCacheGeneratorP21CustomAttributesCache
bvf:_StackFrame__ctor_m343464319
AH:__ZN11UnityEngine15CloudWebService20WebRequestRestClient7PrepareEv
c6d:_MonoField_CheckGeneric_m453069507
wOc:__ZN20TextRenderingPrivate19NativeTextGenerator23FixLineHorizontalOffsetEiii
Bzd:_SynchronizedArrayListWrapper_get_IsFixedSize_m3396437476
Bke:_ObjectReader_ReadArrayOfString_m3550800559
dUd:_MonoCustomAttrs_GetCustomAttributesInternal_m648304078
gQj:_emscripten_glDepthRange__wrapper
lQ:__ZN14SerializedFile7ReleaseEv
dbb:__ZN16MemoryFileSystem4OpenER13FileEntryData14FilePermission16FileAutoBehavior
fzf:_CompareInfo_GetSortKey_m1915852346
NLc:_ft_var_load_avar
n3:__ZN13RuntimeStaticI13RendererSceneLb0EE13StaticDestroyEPv
Qxe:_DefaultComparer_Compare_m1297750557_gshared
EK:__ZN20DynamicHeapAllocatorI17LowLevelAllocatorE10ReallocateEPvji
hjb:__Z18Transfer_BlittableI24GenerateTypeTreeTransferLb1E12PropertyNameEvRK29SerializationCommandArgumentsR31RuntimeSerializationCommandInfo
UKi:_Toggle_OnEnable_m1421694809
P1a:__ZN14SafeBinaryRead21TransferSTLStyleArrayI10vector_mapIPKN5Unity4TypeE7Hash128NSt3__24lessIS5_EENS7_9allocatorINS7_4pairIS5_S6_EEEEEEEvRT_17TransferMetaFlags
Uu:__ZN9AudioClip18GetQueuedAudioDataEPPvj
NQc:__ZN20TextRenderingPrivate21TextMeshGeneratorImpl14GarbageCollectEv
O$b:__ZNK9Texture2D17CheckHasPixelDataEv
buc:__ZN15b2ContactSolver13StoreImpulsesEv
Wkb:__Z18Transfer_BlittableI19StreamedBinaryWriteILb0EELb0E9BoundsIntEvRK29SerializationCommandArgumentsR31RuntimeSerializationCommandInfo
mDb:__Z18SetShadowsKeywordsR17ShaderPassContext9LightType10ShadowType16ShadowProjectionbb
Hed:_Graphic_GetPixelAdjustedRect_m3729397999
Yej:__ZN14dense_hash_mapI10KeyWrapperINSt3__24pairIPK12PropertyInfoP11Il2CppClassEEEj17ReflectionMapHashIS8_ENS9_14EqualsComparerINS1_8equal_toIS8_EEEENS1_9allocatorINS2_IKS9_jEEEEEC2EjRKSB_RKSF_
qYb:__ZN17CollisionMeshDataC2Ev
jIe:_Dictionary_2_ToTValue_m692436965_gshared
pae:_Marshal_Copy_m1222846562
STa:__ZN16LightmapSettings23VirtualRedirectTransferER19StreamedBinaryWriteILb0EE
Qzb:__ZZ23InitPlayerLoopCallbacksvEN47PostLateUpdateMemoryFrameMaintenanceRegistrator7ForwardEv
Wha:__ZN7ApiGLES20SetVertexArrayAttribEjj12VertexFormathjPKv
Do:FUNCTION_TABLE_viiififii
uBj:_GC_push_next_marked
y6a:__ZN18IDCollectorFunctor18GenerateInstanceIDEi17TransferMetaFlags
auc:__ZN15b2ContactSolver9WarmStartEv
ASi:_TextGenerationSettings_Equals_m3618607189_AdjustorThunk
$2e:_NameObjectCollectionBase_BaseAdd_m3437748750
Whg:_Type_internal_from_handle_m3156085815
Tuh:_ReadOnlyCollection_1_System_Collections_Generic_ICollectionU3CTU3E_Add_m69722965_gshared
BSf:_Array_InternalArray__IndexOf_TisColor32_t2600501292_m3783551884_gshared
IR:__ZNSt3__27__sort4IRNS_6__lessI14ObjectLoadDataS2_EEPS2_EEjT0_S6_S6_S6_T_
VBb:__ZNK25CameraStackRenderingState16GetCurrentCameraEv
a_e:_ScrollRect_get_rectTransform_m2442061719
g_b:__Z22PlayableValidityChecksRK9HPlayableb
t3a:__ZN15ResourceManagerD2Ev
R4b:__Z41Register_UnityEngine_Camera_GetAllCamerasv
Trg:_InvokableCall__ctor_m2158562079
LAc:__ZN14PhysicsQuery2D7RaycastERK8Vector2fS2_fRKN10Collider2D13ContactFilterEPKS3_bP12RaycastHit2Di
bDi:_Assertion__ctor_m2128950829
k_c:__ZN28PerformanceReportingSettings8TransferI14SafeBinaryReadEEvRT_
R7a:__ZN15CacheWriterBase18GetAddressOfMemoryEv
Gnd:_Buffer_BlockCopy_m2884209081
Yjc:__Z18Transfer_BlittableI8JSONReadLb1E5RectTIiEEvRK29SerializationCommandArgumentsR31RuntimeSerializationCommandInfo
Nlj:__ZN6il2cpp2vm22EmbeddedResourceRecordC2ERKS1_
jxb:__ZL20DrawVBOChunkWithPassP6ShaderPN9ShaderLab4PassER17ShaderPassContextR10DynamicVBORK21DynamicVBOChunkHandle
Glh:_Collection_1__ctor_m825528237_gshared
kSa:__ZN9Texture2D13AwakeFromLoadE17AwakeFromLoadMode
qPf:_SetPropertyUtility_SetStruct_TisColorBlock_t2139031574_m1748367426_gshared
vwg:_PlayerConnection_get_instance_m1750121257
qtj:__ZN6il2cpp2vm3RCW14QueryInterfaceILb0EEEP14Il2CppIUnknownP15Il2CppComObjectRK10Il2CppGuid
U$a:__ZThn328_N14SpriteRendererD0Ev
Zna:__ZN6prcoreL17RemapGenericFloatI15TexFormatRFloat18TexFormatARGBFloatEEvPKNS_9InnerInfoE
JOg:__Z85RuntimeInvoker_Void_t1185182177_Int64_t3736567304_Int32_t2950945753_Int64_t3736567304PFvvEPK10MethodInfoPvPS4_
Chf:_CipherSuite__ctor_m2440635082
cDf:_RSAPKCS1KeyExchangeFormatter_SetRSAKey_m1477802943
XGf:_EvidenceEnumerator_get_Current_m1264365535
h$c:__ZN11UnityEngine15PlatformWrapper20GetPlayerPrefsUInt64ERKN4core12basic_stringIcNS1_20StringStorageDefaultIcEEEEy
oae:_Marshal_copy_from_unmanaged_m2834266824
FOj:dynCall_iiiifii
XGb:__ZN20ReflectionProbeCacheC2ER13BatchRendererR15RenderLoopStats
Fzg:_Rect_set_xMax_m1720695099_AdjustorThunk
vRg:__Z59RuntimeInvoker_Int32_t2950945753_DateTimeOffset_t3229287507PFvvEPK10MethodInfoPvPS4_
bab:__ZNK12HandlerChain6ExistsERK13FileEntryData
kyf:_Calendar__ctor_m106290643
HHb:__Z30FindDirectAttenuationFromProbeP18ForwardLightsBlockbiRK10RenderNodeRK23FindForwardLightsParamsf
f0b:__ZNSt3__26vectorIj13stl_allocatorIjL18MemLabelIdentifier1ELi16EEE6assignIPKjEENS_9enable_ifIXaasr21__is_forward_iteratorIT_EE5valuesr16is_constructibleIjNS_15iterator_traitsIS9_E9referenceEEE5valueEvE4typeES9_S9_
$0a:__ZN12InputManager23VirtualRedirectTransferER24GenerateTypeTreeTransfer
g9a:__ZN9Transform23VirtualRedirectTransferER24GenerateTypeTreeTransfer
mcc:__ZN12GUIClipState10BeginOnGUIER10InputEvent
Eba:__ZNSt3__26vectorIN9ShaderLab20SerializedSubProgram12UAVParameterENS_9allocatorIS3_EEE21__push_back_slow_pathIKS3_EEvRT_
rUg:__Z87RuntimeInvoker_RuntimeObject_Byte_t1134296376_RuntimeObject_RuntimeObject_RuntimeObjectPFvvEPK10MethodInfoPvPS4_
kjf:_HandshakeMessage_Process_m810828609
gKc:_UNITY_tt_size_ready_bytecode
gNc:__ZN13TextRendering4FontD2Ev
kyg:_Quaternion_Inverse_m1311579081
PPc:_UNITY_FT_Stream_Open
JCh:__ZN28GenericInterfaceFuncInvoker1Ib20UIVertex_t4057497605E6InvokeEPK10MethodInfoP12Il2CppObjectS0_
jkb:__Z29Transfer_Blittable_ArrayFieldI24GenerateTypeTreeTransfer9BoundsIntEvRT_R9ArrayInfoRK23StaticTransferFieldInfo
nfd:_GraphicRegistry__cctor_m1805310505
aog:_Bounds_Equals_m3920299735
kLa:__ZN8keywords18KeywordSetToStringERK16ShaderKeywordSetRN4core12basic_stringIcNS3_20StringStorageDefaultIcEEEE
j1d:_GenericTypeParameterBuilder_GetGenericArguments_m2988765390
eGc:_otv_MATH_validate
TNg:__Z77RuntimeInvoker_Void_t1185182177_Int64_t3736567304_ResourceInfoU26_t1611441338PFvvEPK10MethodInfoPvPS4_
ut:__ZN4FMOD3DSP12setParameterEif
Xub:__ZN13MemoryManager16StaticInitializeEv
Gzf:_CultureInfo_Equals_m1360976324
qf:___cxa_free_exception
Jfi:__ZL69PersistentCall_t3407714124_CustomAttributesCacheGenerator_m_CallStateP21CustomAttributesCache
yx:__ZN4FMOD22FakeModChannelCallbackEPv
d2c:_BaseInput_get_compositionString_m1887614380
wf:_emscripten_glValidateProgram
YJa:__ZN4Mesh10CreateMeshEv
fnd:_RijndaelManagedTransform__ctor_m1033522223
bqf:_DateTime_CompareTo_m3889078633
EDc:_cf2_stack_clear
_3e:_RemoteCertificateValidationCallback_Invoke_m727898444
TId:_NumberFormatter_set_CurrentCulture_m1358228087
Qvc:__ZN10ClipperLib11ClipperBase5ClearEv
oMb:__ZN7Texture13SetAnisoLevelEi
OF:__ZNSt3__26__treeINS_12__value_typeIN4core12basic_stringIcNS2_20StringStorageDefaultIcEEEEjEENS_19__map_value_compareIS6_S7_NS_4lessIS6_EELb1EEE13stl_allocatorIS7_L18MemLabelIdentifier88ELi16EEE7destroyEPNS_11__tree_nodeIS7_PvEE
MW:__ZN19EndOfFrameCallbacks7EnqueueEP18EndOfFrameCallbackb
Xtg:_Input_set_compositionCursorPos_m1909373301
mkd:_CspParameters__ctor_m2741097571
IPg:__Z78RuntimeInvoker_IntPtr_t_SByte_t1669577662_RuntimeObject_BooleanU26_t4125257963PFvvEPK10MethodInfoPvPS4_
tWc:__Z44Canvas_CUSTOM_GetETC1SupportedCanvasMaterialv
Wtf:_Decimal_decimalSetExponent_m3707787243
oZ:__ZN33InstancedMeshIntermediateRenderer13StaticDestroyEPv
Coj:__ZN14dense_hash_mapI10KeyWrapperIP14Il2CppIUnknownEjN6il2cpp5utils11PointerHashIS1_EENS3_14EqualsComparerINSt3__28equal_toIS2_EEEENS9_9allocatorINS9_4pairIKS3_jEEEEE13set_empty_keyERSF_
Lja:__ZN15dense_hashtableINSt3__24pairIK9TextureIDiEES2_14GfxGenericHashIS2_EN14GfxDoubleCacheIS2_iS6_NS0_8equal_toIS2_EEN31GfxDoubleCacheConcurrencyPolicy11LocklessGetE42GfxDoubleCacheDefaultEmptyDeletedGeneratorIS2_EE9SelectKeyES9_13stl_allocatorIS4_L18MemLabelIdentifier24ELi16EEE12resize_deltaEjj
YHa:__Z21DestroyShadowMapCacheP14ShadowMapCache
cOh:_Array_InternalArray__get_Item_TisLabelFixup_t858502054_m3276643490_gshared
wej:__ZN15dense_hashtableINSt3__24pairIK10KeyWrapperIPK10Il2CppTypeEjEES6_N6il2cpp8metadata14Il2CppTypeHashEN14dense_hash_mapIS6_jSB_NS6_14EqualsComparerINSA_26Il2CppTypeEqualityComparerEEENS0_9allocatorIS8_EEE9SelectKeyESF_SH_E14squash_deletedEv
vnj:__ZN6il2cpp2vm13LivenessState5ResetEv
ggc:__ZN9JSONWrite8TransferI11KeyframeTplIfEEEvRT_PKc17TransferMetaFlags
iDd:_SortedList_GetImpl_m3689246167
vuh:_ReadOnlyCollection_1_System_Collections_Generic_IListU3CTU3E_set_Item_m3209059215_gshared
Wka:__ZN24BuiltinShaderParamValuesC2Ev
Ixi:_PKCS12_Decode_m163534693
vgc:__ZL41CreateJSONTransferFunctionScriptingTraitsv
j5:__ZN6Shader23VirtualRedirectTransferER14SafeBinaryRead
xCc:_cff_glyph_load
rGg:_WaitForSecondsRealtime_get_keepWaiting_m846832224
Zsb:__Z23GetLateBehaviourManagerv
GMg:__Z33RuntimeInvoker_Single_t1397266774PFvvEPK10MethodInfoPvPS4_
ifb:__ZN14SafeBinaryRead21TransferSTLStyleArrayINSt3__26vectorI8Gradient13stl_allocatorIS3_L18MemLabelIdentifier1ELi16EEEEEEvRT_17TransferMetaFlags
XL:__ZN10MemoryPool10DeallocateEPv
Acc:__ZN8GUIState8SetEventERK10InputEvent
yXg:__Z80RuntimeInvoker_Void_t1185182177_ScriptableRenderContext_t274343796_RuntimeObjectPFvvEPK10MethodInfoPvPS4_
kOj:dynCall_vif
lOj:dynCall_vid
sGd:_Convert_ToSByte_m4075629912
mOj:dynCall_vii
WNe:_KeyPairPersistence_FromXml_m746585742
ZLf:_Decoder__ctor_m4046021500
Cqb:__Z18Transfer_BlittableI18StreamedBinaryReadILb0EELb0EdEvRK29SerializationCommandArgumentsR31RuntimeSerializationCommandInfo
x8c:_ColorBlock_get_fadeDuration_m121071467
Q5i:__ZN6il2cpp6icalls8mscorlib6System8MonoType18GetFields_internalEP20Il2CppReflectionTypeiS5_
tS:__ZN5Unity9Component16CheckConsistencyEv
L6d:_MonoMethod_get_ContainsGenericParameters_m3860345224
TU:__ZN19ShaderPropertySheet37CreateTextureAuxPropertyUninitializedEN9ShaderLab16FastPropertyNameES1_PKc
ylb:__ZL26Transfer_SimpleNativeClassI19StreamedBinaryWriteILb0EE10RectOffsetLb1EEvRK29SerializationCommandArgumentsR31RuntimeSerializationCommandInfo
ZXj:b128
R9i:__ZN15dense_hashtableINSt3__24pairIK10KeyWrapperIPK10Il2CppTypeEjEES6_N6il2cpp8metadata14Il2CppTypeHashEN14dense_hash_mapIS6_jSB_NS6_14EqualsComparerINSA_26Il2CppTypeEqualityComparerEEENS0_9allocatorIS8_EEE9SelectKeyESF_SH_E3endEv
jga:__ZN13GfxDeviceGLES17SetGpuProgramNameEP10GpuProgramPKc
NH:__ZNK11UnityEngine15CloudWebService25WebRequestDownloadHandler11GetProgressEv
PKa:__Z43IsVertexFormatCompatibleWithDynamicBatchingRK14VertexDataInfo
DTf:_Array_InternalArray__ICollection_Add_TisMonoResource_t4103430009_m2699164149_gshared
c4i:__ZN6il2cpp2vm13MetadataCache28GetMethodDefinitionFromIndexEi
Dwj:__ZN6il2cpp2os20FileErrnoToErrorCodeEi
zPa:__ZN14SafeBinaryRead19TransferSTLStyleMapINSt3__23mapI39DeprecatedFastPropertyNameSerialization10ColorRGBAfNS1_4lessIS3_EENS1_9allocatorINS1_4pairIKS3_S4_EEEEEEEEvRT_17TransferMetaFlags
ysf:_Decimal_ThrowAtPos_m1170269346
Lai:__ZL98GameObject_t1113636619_CustomAttributesCacheGenerator_GameObject_SendMessage_m3720186693____value1P21CustomAttributesCache
fh:_atexit
M$e:_Selectable_set_image_m3625164794
Mue:_InternalEnumerator_1_get_Current_m1232221964_gshared
lyh:_ReadOnlyCollection_1_System_Collections_Generic_IListU3CTU3E_Insert_m1818924748_gshared
Zcj:__ZN6il2cpp2vmL31GetObjectForMissingDefaultValueEj
I9f:_DecoderReplacementFallbackBuffer_GetNextChar_m2858228391
S7c:_AspectRatioFitter__ctor_m2468506840
AXc:__ZN11UnityEngine15PlatformWrapper30GetVRPlayAreaBoundaryDimensionEv
Hyi:_X509Certificate_get_Hash_m410033711
$7:__ZN9ShaderLab14SerializedPassC2ERKS0_
Egc:__Z35Transfer_Blittable_FixedBufferFieldI9JSONWritehEvRK29SerializationCommandArgumentsR31RuntimeSerializationCommandInfo
l:STACKTOP
KFc:_cff_get_name_index
hUa:__ZN21EnlightenSceneMapping16BuildRemapTablesEv
P_b:__ZN17TransformInternal27UpdateDeepChildCountUpwardsER18TransformHierarchyii
rIf:_Single_System_IConvertible_ToBoolean_m1716619219_AdjustorThunk
c4c:_ExecuteEvents_Execute_m3613826831
Abd:_Image_set_type_m2038193736
oAc:__ZN22WorldContactListener2D10EndContactEP9b2Contact
MLb:__ZNK25CameraStackRenderingState25CalculateCameraTargetTypeEv
c3d:_PropertyBuilder_GetSetMethod_m128670376
y:tempBigIntR
x:tempBigIntS
w:tempBigIntP
yn:FUNCTION_TABLE_viffi
iQd:_MemoryStream_SetLength_m974389318
MR:__ZN6Object18RegisterInstanceIDEPS_
Oib:__Z18Transfer_BlittableI24GenerateTypeTreeTransferLb1EsEvRK29SerializationCommandArgumentsR31RuntimeSerializationCommandInfo
Osj:__ZN15dense_hashtableINSt3__24pairIK10KeyWrapperIP12Il2CppObjectEN6il2cpp2gc9CachedCCWEEES5_NS7_5utils11PointerHashIS3_EEN14dense_hash_mapIS5_S9_SD_NS5_14EqualsComparerINS0_8equal_toIS4_EEEENS0_9allocatorISA_EEE9SelectKeyESI_SK_E11set_deletedER30dense_hashtable_const_iteratorISA_S5_SD_SM_SI_SK_E
pda:__ZNK9GfxDevice18GetWorldViewMatrixEv
D_g:__Z70RuntimeInvoker_Single_t1397266774_Single_t1397266774_Int32_t2950945753PFvvEPK10MethodInfoPvPS4_
NFf:_X509Certificate_GetPublicKey_m4184729161
PGd:_Convert_ToUInt16_m3902921832
LXd:_Assembly_GetTypes_m1724781913
FWh:__ZL54TypeBuilder_t1073948154_CustomAttributesCacheGeneratorP21CustomAttributesCache
$yj:__ZN6il2cpp6icalls8mscorlib6System7Convert17Base64ToByteArrayEPDsib
mpd:_SmallXmlParser_ReadComment_m1578426707
h8f:_List_1_AddEnumerable_m376418521_gshared
wUg:__Z79RuntimeInvoker_Void_t1185182177_Byte_t1134296376_Byte_t1134296376_RuntimeObjectPFvvEPK10MethodInfoPvPS4_
i1i:__ZNSt3__218__insertion_sort_3IRN6il2cpp5utils11collections13ArrayValueMapIPK10Il2CppType17Il2CppInteropData26InteropDataToTypeConverterNS1_8metadata14Il2CppTypeLessENSA_26Il2CppTypeEqualityComparerEE12SortComparerEPS8_EEvT0_SH_T_
uyc:__ZN11Rigidbody2D23VirtualRedirectTransferER14SafeBinaryRead
tda:__ZNK9GfxDevice25GetDeviceProjectionMatrixEv
na:invoke_iidiii
Uib:__Z18Transfer_BlittableI24GenerateTypeTreeTransferLb1EtEvRK29SerializationCommandArgumentsR31RuntimeSerializationCommandInfo
PD:__ZN12AudioManager33GetCurrentAmbisonicDefinitionNameE31UnityAudioEffectDefinitionFlags
x2b:__ZN11UTF16StringC2EPKc10MemLabelId
D1b:__ZN10systeminfo24GetRuntimePlatformStringEv
YNd:_MonoIO_DeleteFile_m3839141322
oya:__ZN10SpookyHash5ShortEPKvjPyS2_
muj:__ZN6il2cpp6icalls8mscorlib6System6String22RedirectToCreateStringEv
sWh:__ZL99ILGenerator_t1388622344_CustomAttributesCacheGenerator_ILGenerator_Mono_GetCurrentOffset_m993338688P21CustomAttributesCache
nVe:_LayoutRebuilder_ReapplyDrivenProperties_m2581469389
fyg:_PropertyName_op_Implicit_m1633828199
hV:__ZN9ShaderLab6TexEnvC2ERKNS_25SerializedTexturePropertyE
bTe:_InputField_Append_m687033660
eTb:__Z28IntersectLineSegmentWithLineRK8Vector2fS1_S1_S1_RS_
rFa:__ZN9Transform32SetLocalScaleWithoutNotificationERKN4math7_float3Ey
LOa:__ZN19ShaderPropertySheet38CopyTextureWithAuxiliaryPropertiesFromERKN9ShaderLab16FastPropertyNameERKS_
uOc:__ZN20TextRenderingPrivate19NativeTextGeneratorD2Ev
H4i:__ZN6il2cpp2vm19SocketPollingThread14DequeueRequestEv
kwj:__ZL10RevealLinkPv
vof:_DateTime__ctor_m12900168_AdjustorThunk
Vjf:_ClientSessionCache_FromContext_m343076119
Li:___cxa_end_catch
hFf:_ToBase64Transform_TransformBlock_m2497349397
q3e:_NameValueCollection_Add_m2418530856
Ohe:_ReturnMessage_get_MethodSignature_m399735125
BWc:__Z43Register_UnityEngine_Canvas_set_scaleFactorv
zJe:_SortKeyBuffer_AppendLevel5_m3963841125
jFi:_PositionAssertion_Compile_m2500980346
_yd:_ArrayListWrapper_ToArray_m3192696690
FPc:_raccess_guess_linux_cap
hE:__Z36AudioSource_Get_Custom_PropIsPlayingP12Il2CppObject
Oqb:__Z19TransferField_ArrayI18StreamedBinaryReadILb0EE27Converter_UnityEngineObjectEvRK23StaticTransferFieldInfoR31RuntimeSerializationCommandInfoRT0_
ytd:_Attribute_GetCustomAttribute_m4034845276
zfc:__ZNK5Unity9rapidjson12GenericValueINS0_4UTF8IcEE13JSONAllocatorE6AcceptINS0_12PrettyWriterI16TempBufferWriterS3_S3_S4_EEEEbRT_
b_:__Z33InitializeBuiltinShaderParamNamesv
sig:_Type_GetConstructor_m2219014380
v9c:_CanvasUpdateRegistry_SortLayoutList_m471948466
TS:__ZNK16TypeTreeIterator4TypeEv
Qyb:__ZN10FileSystem25MountDataFolderFileSystemERKN4core12basic_stringIcNS0_20StringStorageDefaultIcEEEES6_
Ind:_ArgumentOutOfRangeException__ctor_m282481429
JHi:_GUILayoutUtility_Internal_MoveWindow_m3463958180
uj:_glGetUniformLocation
Mea:__ZN13GfxDeviceGLES32CreateColorRenderSurfacePlatformEP17RenderSurfaceBase19RenderTextureFormat
Bu:__ZN12AudioManager24CreateFMODSoundFromMovieEP9AudioClip
a3i:__ZN6il2cpp2vm13MetadataCache24GetGenericInstanceMethodEPK10MethodInfoPK20Il2CppGenericContext
TAj:_GC_hblk_fl_from_blocks
T5d:_MonoField_GetParentType_m2478933781
usf:_Decimal_Parse_m942471224
$Q:__Z24ConvertSeparatorsToUnityPc
pcj:__ZN6il2cpp2gc19AppendOnlyGCHashMapINSt3__24pairIPK9EventInfoP11Il2CppClassEEP21Il2CppReflectionEvent17ReflectionMapHashIS9_ENS2_8equal_toIS9_EEE3AddERKS9_SB_
Djh:_Collection_1_System_Collections_ICollection_CopyTo_m46221116_gshared
ykj:__ZN6il2cpp2vm6Thread20FreeThreadStaticDataEP12Il2CppThread
MRf:_Array_InternalArray__IndexOf_TisClientCertificateType_t1004704908_m3457772631_gshared
FGg:__Z28RuntimeInvoker_RuntimeObjectPFvvEPK10MethodInfoPvPS4_
UDc:_cf2_glyphpath_finalize
I0h:__ZL56SecurityAction_t569814076_CustomAttributesCacheGeneratorP21CustomAttributesCache
kCb:__Z20LookRotationToMatrixRK8Vector3fS1_P10Matrix3x3f
Cyd:_ArrayListWrapper_set_Capacity_m2373297383
wSe:_Text_get_cachedTextGenerator_m2506989875
JOj:dynCall_viififi
W4f:_Enumerator_System_Collections_IEnumerator_Reset_m502339360_AdjustorThunk
oUh:__ZL58DictionaryEntry_t3123975638_CustomAttributesCacheGeneratorP21CustomAttributesCache
NSi:_TextGenerator_GetVerticesInternal_m3222977969
Ldh:_List_1_RemoveAt_m4279084788_gshared
uJc:_UNITY_FT_Stream_Free
lkj:__ZN15dense_hashtableINSt3__24pairIK10KeyWrapperINS1_IP11Il2CppClassjEEES4_EES6_N6il2cpp8metadata14ArrayClassHashEN14dense_hash_mapIS6_S4_SB_NS6_14EqualsComparerINSA_17ArrayClassCompareEEENS0_9allocatorIS8_EEE9SelectKeyESF_SH_E12maybe_shrinkEv
dkd:_CryptoConfig_EncodeLongNumber_m4127306320
yZg:__Z87RuntimeInvoker_Void_t1185182177_Single_t1397266774_Single_t1397266774_SByte_t1669577662PFvvEPK10MethodInfoPvPS4_
$hf:_CipherSuite_createEncryptionCipher_m2533565116
WF:__ZN11UnityEngine15CloudWebService14DataDispatcher25OnDataBlockConsumedStaticEPv
Jch:_List_1_CheckIndex_m3044940639_gshared
vGg:_GenericStack__ctor_m933681517
_ob:__Z29Transfer_Blittable_ArrayFieldI18StreamedBinaryReadILb1EE11QuaternionfEvRT_R9ArrayInfoRK23StaticTransferFieldInfo
ATd:_Math_Max_m482125436
Yae:_ActivatedServiceTypeEntry_ToString_m1591455874
dHf:_SecurityElement_ToXml_m3664345083
RVf:_Array_InternalArray__Insert_TisParameterModifier_t1461694466_m3664994573_gshared
H:Math_pow
Jvg:_Mesh_get_tangents_m3279676290
C6:__Z14resize_trimmedINSt3__26vectorIN9ShaderLab20SerializedSubProgram16SamplerParameterENS0_9allocatorIS4_EEEEEvRT_j
Jxg:_PlayableHandle_GetPlayableType_Injected_m686992718
Y$e:_Shadow_set_effectColor_m3910676693
zLj:__ZNSt3__212basic_stringIcNS_11char_traitsIcEENS_9allocatorIcEEE6insertEjPKcj
xgc:__Z44InitializeTransferFunctionScriptingTraitsForI8JSONReadEvR31TransferFunctionScriptingTraits
Exb:__ZNSt3__27__sort4IRNS_4lessIN22BuiltinResourceManager8ResourceEEEPS3_EEjT0_S7_S7_S7_T_
H2e:_ListDictionary_Add_m3918308031
Dsj:__ZNK15dense_hashtableINSt3__24pairIK10KeyWrapperIP12Il2CppObjectEN6il2cpp2gc9CachedCCWEEES5_NS7_5utils11PointerHashIS3_EEN14dense_hash_mapIS5_S9_SD_NS5_14EqualsComparerINS0_8equal_toIS4_EEEENS0_9allocatorISA_EEE9SelectKeyESI_SK_E23find_position_with_hashERS6_j
dSe:_Selectable_OnDisable_m3225138518
bLc:_UNITY_tt_face_get_location
zKi:_AesManaged_CreateEncryptor_m1611897367
vhc:__ZL26Transfer_SimpleNativeClassI9JSONWrite17AnimationCurveTplIfELb0EEvRK29SerializationCommandArgumentsR31RuntimeSerializationCommandInfo
dNb:__ZN10GameObject34AddFirstTransformComponentInternalEP9Transform
c5b:__Z31Cursor_Get_Custom_PropLockStatev
wY:__ZNSt3__26__treeINS_12__value_typeINS_4pairIPcS3_EENS_3setIS3_15compare_tstringIPKcENS_9allocatorIS3_EEEEEENS_19__map_value_compareIS4_SD_20smaller_tstring_pairIS8_ELb1EEENSA_ISD_EEE7destroyEPNS_11__tree_nodeISD_PvEE
bB:__ZN12AudioManager29GetCurrentAmbisonicDefinitionE31UnityAudioEffectDefinitionFlags
H5b:__Z52Register_UnityEngine_GameObject_GetComponentInParentv
_1a:__ZN15SerializeTraitsINSt3__24pairIPKN5Unity4TypeE7Hash128EEE8TransferI14SafeBinaryReadEEvRS7_RT_
oAj:_GC_number_stack_black_listed
_tf:_Decimal_ToString_m4018746482_AdjustorThunk
qKb:__Z37GenerateCombinedDynamicVisibleListJobP11CullResults
EWf:_Dictionary_2_ToTKey_m2055624458_gshared
WVa:__ZNK13ScreenManager21GetCursorInsideWindowEv
dZd:_CustomAttributeData_GetCustomAttributes_m1033457578
Bae:_SafeHandle_DangerousAddRef_m614714386
qHb:__Z20IntersectAABBFrustumRK4AABBPK5Planej
Q_e:_ScrollRect_OnDrag_m688583138
WYb:__ZN13RenderManager15InitializeClassEv
Bfb:__ZN15SerializeTraitsI12PropertyNameE8TransferI14SafeBinaryReadEEvRS0_RT_
qsh:_ReadOnlyCollection_1_System_Collections_IList_IndexOf_m3120991897_gshared
bge:_Header__ctor_m1921907550
S0e:_Slider_FindSelectableOnUp_m4062600878
Nwd:_Convert_ToSByte_m1350241137
Bug:_Material_SetIntImpl_m724477324
zX:__GLOBAL__sub_I_runtime_baseclasses_2_cpp
Eic:__ZN9JSONWrite8TransferI11ColorRGBA32EEvRT_PKc17TransferMetaFlags
klc:__Z22TransferField_NonArrayI8JSONRead27Converter_SimpleNativeClassI8GradientEEvRK23StaticTransferFieldInfoR31RuntimeSerializationCommandInfoRT0_
$tb:__ZN10MonoScript13AwakeFromLoadE17AwakeFromLoadMode
_bf:_Interval__ctor_m4022869013
Lud:_Boolean_System_IConvertible_ToUInt16_m3465173538
ZDa:__ZN10MemoryFile21CreateFileSystemEntryE10MemLabelId14FilePermissionPvjb
Hta:__ZNK18GfxFramebufferGLES15DiscardContentsER12ObjectHandleI17RenderSurface_TagP17RenderSurfaceBaseE
Y3i:__ZN6il2cpp2vm13MetadataCache27GetEventDefinitionFromIndexEi
fHd:_Convert_ToUInt64_m92315402
Lhc:__Z18Transfer_BlittableI9JSONWriteLb1EdEvRK29SerializationCommandArgumentsR31RuntimeSerializationCommandInfo
RSj:_glGetIntegerv__wrapper
K9f:_EncoderExceptionFallback__ctor_m3745979420
jre:_InternalEnumerator_1_System_Collections_IEnumerator_get_Current_m435848551_gshared
rT:__ZN10GameObject28FinalizeAddComponentInternalEPN5Unity9ComponentE
Ypi:__ZL57Image_t2670269651_CustomAttributesCacheGenerator_m_SpriteP21CustomAttributesCache
kTa:__ZN9Texture2DD2Ev
PRi:_AudioExtensionManager_GetReadyToPlay_m1557263244
CGd:_Convert_ToSingle_m164367433
dOh:_Array_InternalArray__get_Item_TisILTokenInfo_t2325775114_m3110830457_gshared
jFd:_Convert_ToDecimal_m1284410333
fpg:_Camera_INTERNAL_CALL_RaycastTry2D_m3172975827
_qf:_DateTime_CheckStyle_m1392838900
Epc:__ZN16PhysicsManager2D43RegisterTransformChangeInterestForRigidbodyEP11Rigidbody2D
opd:_SmallXmlParser_ReadUntil_m2715581630
P2e:_NameObjectCollectionBase__ctor_m2090733912
Raf:_Group__cctor_m2230627219
bNf:_Array_InternalArray__ICollection_Contains_TisDouble_t594665363_m1696010878_gshared
Ro:FUNCTION_TABLE_viiiffi
wgf:_RSAManaged_EncryptValue_m4149543654
_q:__ZN13dynamic_arrayIhLj1EE18resize_initializedEjRKh12ResizePolicy
y1:__ZN27IntermediateRendererManagerD2Ev
H6a:__ZN17PersistentManager27GetLoadErrorMessageFromPathERKN4core12basic_stringIcNS0_20StringStorageDefaultIcEEEE
yxi:_NetscapeCertTypeExtension_ToString_m1800688476
hm:_glGenRenderbuffers
$mj:__ZN6il2cpp6icalls8mscorlib6System2IO6MonoIO19GetCurrentDirectoryEPi
pBg:_Renderer_get_sortingOrder_m344607889
dIb:__Z21IntersectSegmentPlaneRK8Vector3fS1_RK5PlanePS_
XOg:__Z81RuntimeInvoker_Void_t1185182177_Int64_t3736567304_RuntimeObject_Int32_t2950945753PFvvEPK10MethodInfoPvPS4_
iui:__ZL50Outline_t2536100125_CustomAttributesCacheGeneratorP21CustomAttributesCache
mEd:_Convert_ToBoolean_m4098720762
nGi:_Uri_get_IsFile_m2450018824
O$:__ZN14CachingManager7DisposeEv
ayi:_X509CertificateEnumerator_MoveNext_m3925432749
TA:__ZN12AudioManager31GetCurrentSpatializerDefinitionEv
n2e:_HybridDictionary_Add_m912320053
X_a:__ZN12MeshRenderer16UpdateCachedMeshEv
JJi:_KeyBuilder_IV_m3340234014
hfb:__Z19TransferField_ArrayI14SafeBinaryRead27Converter_SimpleNativeClassI8GradientEEvRK23StaticTransferFieldInfoR31RuntimeSerializationCommandInfoRT0_
uZf:_DefaultComparer_Equals_m1163494476_gshared
XNf:_Array_InternalArray__ICollection_Remove_TisDictionaryEntry_t3123975638_m3699186409_gshared
QWd:_Object_Equals_m1397037629
yng:_AsyncOperation_t1445031843_marshal_pinvoke_back
_X:__GLOBAL__sub_I_runtime_utilities_4_cpp
gzg:_Rect_get_center_m138276653
IMb:__ZN6Camera15SetOrthographicEb
BFc:_UNITY_FT_Stream_GetUShort
Ada:__ZN13GfxDeviceGLES14DisableScissorEv
iUg:__Z240RuntimeInvoker_RuntimeObject_Int16_t2552820387_RuntimeObject_Int32_t2950945753_Int32_t2950945753_Int32_t2950945753_SByte_t1669577662_SByte_t1669577662_SByte_t1669577662_SByte_t1669577662_Int16_t2552820387_SByte_t1669577662_SByte_t1669577662PFvvEPK10MethodInfoPvPS4_
hog:_Bounds_get_size_m1178783246_AdjustorThunk
_Lc:_tt_get_var_blend
cMg:__Z64RuntimeInvoker_Double_t594665363_RuntimeObject_Int32_t2950945753PFvvEPK10MethodInfoPvPS4_
Hoe:_InternalEnumerator_1_System_Collections_IEnumerator_get_Current_m2141782011_AdjustorThunk
Bne:_InternalEnumerator_1_System_Collections_IEnumerator_get_Current_m1295084274_AdjustorThunk
tbc:__Z40Rigidbody2D_CUSTOM_set_velocity_InjectedP12Il2CppObjectRK13Vector2fIcall
wmf:_RecordProtocol_BeginSendRecord_m615249746
Hc:_glVertexAttrib4f
H7f:_Enumerator_System_Collections_IEnumerator_get_Current_m209407522_AdjustorThunk
lrg:_Display_get_systemHeight_m730809466
huc:__ZN12b2BroadPhase13QueryCallbackEi
S8f:_List_1_System_Collections_IList_Insert_m4074493513_gshared
I_e:_ScrollRect_EnsureLayoutHasRebuilt_m3415112783
HNc:__ZNSt3__26vectorINS_4pairINS1_IttEEfEENS_9allocatorIS3_EEE8__appendEj
jGi:_Uri_GetOpaqueWiseSchemeDelimiter_m1909471550
SBj:_GC_set_hdr_marks
pKa:__Z17SetupObjectMatrixRK10Matrix4x4fi
sXf:_Dictionary_2_OnDeserialization_m1254782141_gshared
zY:__ZN13RuntimeStaticINSt3__23mapINS0_4pairIPcS3_EEPFbPvR14SafeBinaryReadE20smaller_tstring_pairIPKcENS0_9allocatorINS2_IKS4_S9_EEEEEELb0EE13StaticDestroyES5_
FOd:_FileStream_FlushBufferIfDirty_m4249802951
oye:_DefaultComparer_Compare_m1916473435_gshared
qGd:_Convert_ToSByte_m2653811524
lPc:_open_face
EXb:__ZZL31RegisterOtherRendererPropertiesR22GenericPropertyBindingEN30Wrapper_RendererReceiveShadows13SetFloatValueEPvf
UUc:__Z17RegisterModule_UIv
iUd:_MonoCustomAttrs_GetCustomAttributes_m1347331976
dwg:_Mesh_Clear_m2630385472
wMg:__Z46RuntimeInvoker_RuntimeObject_Int16_t2552820387PFvvEPK10MethodInfoPvPS4_
rea:__ZN9GfxDevice24CreateRenderDepthSurfaceE9TextureIDiiii16TextureDimension17DepthBufferFormat18SurfaceCreateFlags
Mee:_SynchronizationAttribute_set_Locked_m2760363037
kId:_Int16_Equals_m82811458
egf:_PrivateKeyInfo_Decode_m986145117
iAg:_RectOffset_get_top_m2855347295
tu:__ZN4FMOD5Sound11setUserDataEPv
F5:__ZN14SafeBinaryRead21TransferSTLStyleArrayINSt3__26vectorIN9ShaderLab19SerializedSubShaderENS1_9allocatorIS4_EEEEEEvRT_17TransferMetaFlags
q4c:_ExecuteEvents_Execute_m533210008
vLg:__Z137RuntimeInvoker_Void_t1185182177_Int32_t2950945753_RuntimeObject_RuntimeObject_RuntimeObject_RuntimeObject_RuntimeObject_SByte_t1669577662PFvvEPK10MethodInfoPvPS4_
YBf:_Guid_op_Equality_m4289903222
tDa:__ZNK25SingleBlockMemoryFileData4SizeEv
ksj:__ZNK15dense_hashtableINSt3__24pairIK10KeyWrapperIP12Il2CppObjectEN6il2cpp2gc9CachedCCWEEES5_NS7_5utils11PointerHashIS3_EEN14dense_hash_mapIS5_S9_SD_NS5_14EqualsComparerINS0_8equal_toIS4_EEEENS0_9allocatorISA_EEE9SelectKeyESI_SK_E3endEv
ypf:_DateTime_System_IConvertible_ToUInt32_m3781235049
uIg:__Z92RuntimeInvoker_Int32_t2950945753_RuntimeObject_RuntimeObject_SByte_t1669577662_RuntimeObjectPFvvEPK10MethodInfoPvPS4_
nLd:_Int64_System_IConvertible_ToType_m3223988955
kJb:__ZN14qsort_internal5QSortIP16RenderObjectDatai25RenderPrePassObjectSorterEEvT_S4_T0_T1_
LEf:_SymmetricAlgorithm_Dispose_m1120980942
F$:__ZL19StaticCleanupPlayerPv
jUd:_MonoCustomAttrs_RetrieveAttributeUsage_m2717094301
sNd:_DirectoryInfo_Initialize_m1389772934
Pmg:_AnimationCurve_Init_m425927913
oz:__ZN12AudioManager37RebindAudioSourcesAndSubMixersToMixerEP10AudioMixer
Vxa:__ZN9Behaviour10DeactivateE19DeactivateOperation
UUe:_LayoutGroup_DelayedSetDirty_m2562435574
LRa:__ZN13StreamingInfo8TransferI14SafeBinaryReadEEvRT_
g6:__ZN15dense_hashtableINSt3__24pairIKiN4core17string_with_labelILi1EEEEEi18SInt32HashFunctionN14dense_hash_mapIiS5_S7_NS0_8equal_toIiEE13stl_allocatorIS6_L18MemLabelIdentifier1ELi16EEE9SelectKeyESA_SD_E15insert_noresizeERKS6_
kXi:_Physics2D_Raycast_m1377762210
Tvj:__ZN6il2cpp2vmL22RaiseOverflowExceptionEv
Zp:__Z23CalculateGlobalRotation23TransformAccessReadOnly
Laa:__ZNK9ShaderLab7Program11IsSupportedEPK6Shader
PP:__ZNK4core8hash_mapIPKcPK4RTTIN11TypeManager23ConstCharPtrHashFunctorENS6_19ConstCharPtrEqualToEE6lookupERKS2_
w3d:_TypeBuilder_GetMethodImpl_m3583143647
mti:__ZL54LayoutGroup_t2436138090_CustomAttributesCacheGeneratorP21CustomAttributesCache
JKj:_strcat
BXb:__Z43InitializeRendererAnimationBindingInterfacev
W_:__ZL26DestroyGameObjectRecursiveR10GameObjectR11BatchDelete
hCj:_GC_allochblk_nth
o2c:_BaseInput_get_touchSupported_m2634027966
W_e:_ScrollRect_get_vScrollingNeeded_m1717136831
_Ji:_SymmetricTransform_FinalEncrypt_m748885414
PWb:__Z7HaloTexP9Texture2DPhiiii
vPj:dynCall_i
Ufb:__ZN14SafeBinaryRead21TransferSTLStyleArrayI13dynamic_arrayIxLj8EEEEvRT_17TransferMetaFlags
GOj:dynCall_f
E2e:_ListDictionary_GetEnumerator_m3395631195
tjb:__Z35Transfer_Blittable_FixedBufferFieldI24GenerateTypeTreeTransferjEvRK29SerializationCommandArgumentsR31RuntimeSerializationCommandInfo
XNe:_KeyPairPersistence_Save_m3111435398
_Nj:dynCall_v
Sra:__ZN7ApiGLES14TextureSamplerEjjRK24GfxTextureSamplingParams17TextureColorSpace
$Cd:_SortedList_System_Collections_IEnumerable_GetEnumerator_m2738760439
Qkj:__ZN6il2cpp2vm6Thread8SetStateEP12Il2CppThreadNS0_11ThreadStateE
yGa:__ZN6Camera23VirtualRedirectTransferER14SafeBinaryRead
Ymg:_Application_get_isEditor_m857789090
Rmc:__ZN10Effector2D12AddToManagerEv
dZc:__ZN11UnityEngine7Connect13ConnectConfig11ConfigValueD2Ev
Psa:__ZNSt3__26__treeINS_12__value_typeIjP14DataBufferGLESEENS_19__map_value_compareIjS4_NS_4lessIjEELb1EEENS_9allocatorIS4_EEE7destroyEPNS_11__tree_nodeIS4_PvEE
vng:_AssetBundleRequest_t699759206_marshal_pinvoke_back
zb:invoke_viiiiiiii
NHd:_Int16_System_IConvertible_ToDateTime_m3080274979_AdjustorThunk
Usa:__ZN18GfxFramebufferGLES24UpdateDefaultFramebufferEP17RenderSurfaceBaseS1_N2gl6HandleILNS2_10ObjectTypeE9EEE
bSg:__Z74RuntimeInvoker_RuntimeObject_RuntimeObject_Double_t594665363_RuntimeObjectPFvvEPK10MethodInfoPvPS4_
qui:_SslHandshakeHash__ctor_m4169387017
vWi:_Animator_ResetTrigger_m2321267720
a3a:__ZN18StreamedBinaryReadILb0EE21TransferSTLStyleArrayI13dynamic_arrayIiLj4EEEEvRT_17TransferMetaFlags
QTa:__ZN16LightmapSettings5ResetEv
UAa:__ZN12FileAccessor4ReadEyPvPy
kIg:__Z67RuntimeInvoker_Void_t1185182177_Int16_t2552820387_Int32_t2950945753PFvvEPK10MethodInfoPvPS4_
_dc:__Z42Register_UnityEngine_Event_get_commandNamev
eph:_Collection_1_IsValidItem_m714924194_gshared
Afc:__ZN5Unity9rapidjson12PrettyWriterI16TempBufferWriterNS0_4UTF8IcEES4_13JSONAllocatorE12PrettyPrefixENS0_4TypeE
vcg:_UnicodeEncoding_GetString_m332467280
HR:__ZNK15FileSystemEntry6ExistsEv
v$a:__ZNK9Transform21GetLocalToWorldMatrixER10Matrix4x4f
ZDg:_Transform_INTERNAL_get_rotation_m2413441996
p7c:_TouchInputModule_IsModuleSupported_m384818291
brf:_DateTime_ToString_m884486936
sff:_MD4Managed_HashCore_m3384203071
wv:__ZN13AudioListener23VirtualRedirectTransferER19StreamedBinaryWriteILb0EE
cjf:_ClientRecordProtocol_createClientHandshakeMessage_m3325677558
ifa:__ZN13GfxDeviceGLES11CopyTextureE9TextureIDS0_
nDd:_SortedList_get_Capacity_m919184864
aSj:_emscripten_glViewport__wrapper
YH:__ZN11UnityEngine15CloudWebService23WebRequestUploadHandler13GetUploadDataERj
Npg:_Color32_ToString_m403383053_AdjustorThunk
hCf:_RIPEMD160Managed_GG_m3020389474
BUi:_Canvas_get_sortingOrder_m1860900812
s6c:__Z30il2cpp_codegen_raise_exceptionP11Exception_tP10MethodInfo
Dce:_ConfigHandler_ReadChannel_m781299361
mzg:_Rect_get_max_m350137314
dTg:__Z99RuntimeInvoker_Void_t1185182177_Int32_t2950945753_Int32_t2950945753_SByte_t1669577662_RuntimeObjectPFvvEPK10MethodInfoPvPS4_
_pf:_DateTime_Compare_m2855073242
Vce:_InternalRemotingServices_GetCachedSoapAttribute_m1042302982
mG:__ZN11UnityEngine15CloudWebService17SessionEventQueue15RestoreFromFileER12FileAccessorPvy
n_d:_ConstructorBuilder_GetILGenerator_m1421260830
imj:__ZN6il2cpp2vm9Exception25RaiseOutOfMemoryExceptionEv
r2a:__ZN14PlayerSettingsD2Ev
FWe:_RectMask2D_RemoveClippable_m773604960
m6e:_AsnEncodedData_SubjectAltName_m4049949414
xTd:_Math_Ceiling_m625148210
XAj:_GC_reclaim_all
mwc:__ZN10ClipperLib15FirstIsBottomPtEPKNS_5OutPtES2_
r2:__ZN13PlayableGraph14DestroyOutputsEv
Bih:_Enumerator_System_Collections_IEnumerator_get_Current_m3895111131_gshared
pf:___syscall122
nFd:_Convert_ToDecimal_m2858622624
dXd:_OperatingSystem__ctor_m1545635730
Qbh:_List_1_RemoveAll_m2406195485_gshared
vvc:__ZN19CompositeCollider2D22AddColliderToCompositeEP10Collider2DRK13dynamic_arrayIP7b2ShapeLj4EE
Zbb:__ZNK17InstancingBatcher25FillInstanceBufferWithJobIN10Instancing11DrawAPIArgsEEEvR8JobFenceR13dynamic_arrayIPvLj4EEjjRKT_
NC:__ZN9AudioClip16EnableLegacyModeEv
mee:_Context_DoCallBack_m749197451
fVi:_CanvasRenderer_set_materialCount_m4286588063
S4b:__Z52Register_UnityEngine_Camera_INTERNAL_CALL_RaycastTryv
pKj:_mkdir
FLi:_VerticalLayoutGroup_SetLayoutHorizontal_m84550911
LEj:__GLOBAL__sub_I_MemoryMappedFile_cpp
b7f:_Enumerator_MoveNext_m29052175_AdjustorThunk
ZBg:_SendMouseEvents_SetMouseMoved_m2822596724
QPe:_PKCS12_ReadSafeBag_m1585166574
iMc:_ps_hints_close
iZb:__Z16CreateRenderLoopR6Camera
jtb:__ZN32SerializationCommandQueueBuilder3AddERK20SerializationCommand
YK:_tlsf_create
Kwh:_ReadOnlyCollection_1_System_Collections_IEnumerable_GetEnumerator_m2505713430_gshared
nTi:_betterJump_OnCollisionEnter2D_m2063338202
E3a:__ZN14SafeBinaryRead21TransferSTLStyleArrayINSt3__26vectorIN15ResourceManager10DependencyE13stl_allocatorIS4_L18MemLabelIdentifier52ELi16EEEEEEvRT_17TransferMetaFlags
Fvc:__ZN10ClipperLib7ClipperC1Ei
Csb:__ZN13MonoBehaviour23VirtualRedirectTransferER18StreamedBinaryReadILb0EE
F7:__ZN9ShaderLab20SerializedSubProgramC2ERKS0_
jOd:_FileLoadException__ctor_m3879680456
LNh:_Array_InternalArray__get_Item_TisKeyValuePair_2_t71524366_m252172060_gshared
rMj:__ZNK10__cxxabiv121__vmi_class_type_info27has_unambiguous_public_baseEPNS_19__dynamic_cast_infoEPvi
RVd:_MulticastDelegate_CombineImpl_m2857239134
xmg:_Version_op_Inequality_m1696193441
rae:_Marshal_ReadByte_m1960935664
XUa:__ZN15QualitySettings23VirtualRedirectTransferER19StreamedBinaryWriteILb0EE
sFb:__Z20RenderFullScreenQuadR9GfxDeviceRK6Camera17ShaderChannelMaskRK5RectTIfEf21MonoOrStereoscopicEye
Syd:_ArrayListWrapper_CopyTo_m3756520478
$8d:_ResourceInfo_t2872965302_marshal_pinvoke
OXb:__ZN8Material8GetFloatEN9ShaderLab16FastPropertyNameE
icc:__Z11GetGUIStatev
pg:_glGetActiveUniform
YRf:_Array_InternalArray__IndexOf_TisSlot_t3975888750_m4250446283_gshared
wg:_emscripten_glGetObjectParameterivARB
zEi:_CharacterClass_AddCharacter_m2370152363
bX:__ZN15SerializeTraitsI10ColorRGBAfE8TransferI14SafeBinaryReadEEvRS0_RT_
Zrh:_Collection_1_IsValidItem_m2333176545_gshared
C$:__ZN22BuiltinResourceManager13StaticDestroyEPv
urc:__ZNK14b2CapsuleShape11ComputeMassEP10b2MassDataf
O_:__ZN10GameObject17GetComponentIndexEPN5Unity9ComponentE
BWa:__ZN14SafeBinaryRead21TransferSTLStyleArrayI13dynamic_arrayI7SubMeshLj4EEEEvRT_17TransferMetaFlags
tJh:_Array_InternalArray__set_Item_TisILTokenInfo_t2325775114_m309595583_gshared
nQc:__ZNK13TextRendering4Font11GetMaterialEv
dy:__ZN29AudioEffectInternalDefinition9CreateDSPEPN4FMOD6SystemEPvPfP23UnityAudioAmbisonicDataPP25UnityAudioSpatializerData
QLc:_UNITY_tt_face_vary_cvt
FJe:_SimpleCollator_ClearBuffer_m2975394169
VGi:_Event_Internal_GetMousePosition_m1101229675
HOb:__ZN35RegisterRuntimeInitializeAndCleanup22ExecuteInitializationsEv
xFf:_TripleDESCryptoServiceProvider_CreateEncryptor_m450924958
VFi:_UriParser_GetParser_m544052729
ZSe:_Text_get_font_m2857203289
vza:__ZN23PreloadManagerOperation14SetFinalTimingEffff
i:DYNAMICTOP_PTR
V1d:_MethodBuilder_fixup_m1765890582
Cke:_ObjectReader_ReadSimpleArray_m428957657
b2a:__ZN13BuildSettings8TransferI18StreamedBinaryReadILb0EEEEvRT_
QTd:_MissingFieldException__ctor_m4282575076
wtf:_Decimal_Equals_m2592017260
kde:_ConfigHandler_OnEndParsing_m3764034673
nde:_RemotingConfiguration_RegisterTypes_m2378540395
Jac:__Z38Renderer_Get_Custom_PropSortingLayerIDP12Il2CppObject
Tse:_InternalEnumerator_1_System_Collections_IEnumerator_get_Current_m767948013_gshared
dqg:_DelegatePInvokeWrapper_CSSMeasureFunc_t1554030124
aXi:_Physics2D_Linecast_m2284594132
ing:_UnityAction_Invoke_m893829196
fAa:__ZN14AsyncOperationD0Ev
rja:__Z29TextureIdMapGLES_QueryOrAlloc9TextureID
Obj:__ZN15dense_hashtableINSt3__24pairIK10KeyWrapperINS1_IPK12PropertyInfoP11Il2CppClassEEEjEES9_17ReflectionMapHashIS8_EN14dense_hash_mapIS9_jSD_NS9_14EqualsComparerINS0_8equal_toIS8_EEEENS0_9allocatorISB_EEE9SelectKeyESI_SK_E12resize_deltaEjj
qpg:_Color_GetHashCode_m1829208463
FTe:_Text_get_cachedTextGeneratorForLayout_m116487342
YXi:__ZL11decimalLog2P19il2cpp_decimal_repr
N3a:__ZN15ResourceManager10Dependency8TransferI14SafeBinaryReadEEvRT_
lnh:_Collection_1_System_Collections_IList_Remove_m3800279569_gshared
zAj:_GC_extend_size_map
a1d:_GenericTypeParameterBuilder_GetCustomAttributes_m386082976
l1e:_Text_FontTextureChanged_m495427969
hJd:_NumberFormatter_RoundDecimal_m2957290908
Hy:__ZN4FMOD6System9setDriverEi
zM:__ZNK9Transform11GetRotationEv
Oy:__ZN12AudioManager15DidReloadDomainEv
LTf:_Array_InternalArray__ICollection_Add_TisSingle_t1397266774_m1873979703_gshared
FMc:_pshinter_get_globals_funcs
ujb:__Z18Transfer_BlittableI24GenerateTypeTreeTransferLb0EyEvRK29SerializationCommandArgumentsR31RuntimeSerializationCommandInfo
ePa:__ZN8Material14CreateMaterialER6ShaderN6Object9HideFlagsEb
qgg:_TimeSpan_get_Minutes_m4278980001_AdjustorThunk
kHi:_GUI__cctor_m3051457990
s3c:_EventSystem_IsPointerOverGameObject_m1911785875
lV:__Z25GetBuiltinResourceManagerv
Jrj:__ZN6il2cpp2gc8GCHandle15GetTargetHandleEP12Il2CppObjectii
WJd:_Int32_System_IConvertible_ToByte_m3832391412
Oh:_llvm_trap
h_:__ZNSt3__27__sort5IRNS_6__lessIN12_GLOBAL__N_114ParamNameIndexES3_EEPS3_EEjT0_S7_S7_S7_S7_T_
Zyi:_X509Certificate_VerifySignature_m3988463526
AAg:_RectTransform_get_anchoredPosition_m1813443094
WAj:_get_index
uHd:_GuidParser_AtEnd_m3409982497
BNe:_KeyBuilder_Key_m876696100
jwe:_InternalEnumerator_1_System_Collections_IEnumerator_get_Current_m2164048921_gshared
Q8i:__ZN15dense_hashtableINSt3__24pairIK10KeyWrapperINS1_IPK14Il2CppAssemblyP11Il2CppClassEEEjEES9_17ReflectionMapHashIS8_EN14dense_hash_mapIS9_jSD_NS9_14EqualsComparerINS0_8equal_toIS8_EEEENS0_9allocatorISB_EEE9SelectKeyESI_SK_EC2ERKSN_j
T4i:__ZN6il2cpp2vm21ThreadPoolCompartment12DetachThreadEP12Il2CppThread
Wid:_SByte_System_IConvertible_ToInt16_m885121451_AdjustorThunk
xsf:_Decimal_stripStyles_m1823381019
Hea:__ZN13GfxDeviceGLES30SetBackBufferColorDepthSurfaceEP17RenderSurfaceBaseS1_
Oec:__Z52Register_UnityEngine_GUIUtility_get_systemCopyBufferv
sNh:_LayoutGroup_SetProperty_TisBoolean_t97287965_m3903959758_gshared
u_b:__ZN16StreamedResource8TransferI18StreamedBinaryReadILb0EEEEvRT_
e7b:__Z49Register_UnityEngine_Input_get_imeCompositionModev
sCg:_Sprite_INTERNAL_get_rect_m1600380876
f6:__ZN15dense_hashtableINSt3__24pairIKiN4core17string_with_labelILi1EEEEEi18SInt32HashFunctionN14dense_hash_mapIiS5_S7_NS0_8equal_toIiEE13stl_allocatorIS6_L18MemLabelIdentifier1ELi16EEE9SelectKeyESA_SD_E12resize_deltaEjj
FLb:__ZNK20OcclusionCullingData22GetStaticRendererCountEv
umc:__GLOBAL__sub_I_runtime_particlesystem_modules_5_cpp
PWj:_emscripten_glDisableVertexAttribArray__wrapper
TWd:_Object_InternalGetHashCode_m4213713973
WUd:_MonoType_GetAttributeFlagsImpl_m167182975
Rgf:_EncryptedData_get_EncryptedContent_m3205649670
Z_a:__ZN12MeshRenderer18CalculateLocalAABBER4AABBRKS_RK4Mesh
RJ:__ZN21UnityDefaultAllocatorI17LowLevelAllocatorE8AllocateEji
MSc:__ZL28InitializeUIScriptingClassesv
aXg:__Z54RuntimeInvoker_Vector2_t2156229523_Vector3_t3722313464PFvvEPK10MethodInfoPvPS4_
qwb:__ZN10UnityScene10ClearRootsEv
twh:_ReadOnlyCollection_1_System_Collections_IList_set_Item_m2162444692_gshared
Y9a:__ZN12HandlerChain10AtomicMoveER13FileEntryDataS1_
Yua:__ZN9GfxDevice17HasGPUFencePassedEPv
X1:__ZZN15DirectorManager15InitializeClassEvEN48PreLateUpdateDirectorDeferredEvaluateRegistrator7ForwardEv
$Bc:__ZN20SpeedTreeWindManager6UpdateEf
$Mg:__Z68RuntimeInvoker_Int64_t3736567304_IntPtr_t_MonoIOErrorU26_t1548853198PFvvEPK10MethodInfoPvPS4_
rs:__ZN7mecanim9animation20CreateAvatarConstantEPNS_8skeleton8SkeletonEPNS1_13SkeletonPoseTIN4math4trsXEEES8_PNS_5human5HumanES3_iRKS6_RNS_6memory9AllocatorE
u_a:__ZN14CompressedMesh8TransferI19StreamedBinaryWriteILb0EEEEvRT_
EVf:_Array_InternalArray__Insert_TisDouble_t594665363_m675699942_gshared
aeh:_List_1_System_Collections_IList_Add_m3014885234_gshared
uEh:_UnityAction_1_Invoke_m3535252839_gshared
Uyj:__ZNK6il2cpp5utils13VmStringUtils21CaseSensitiveComparerclERKNSt3__212basic_stringIcNS3_11char_traitsIcEENS3_9allocatorIcEEEEPKc
H$e:_Selectable_set_isPointerInside_m701571657
DJa:__ZN24GenerateTypeTreeTransfer8TransferI21PlatformShaderDefinesEEvRT_PKc17TransferMetaFlags
v3a:__ZNK15ResourceManager22GetTypeVirtualInternalEv
zpj:__ZN6il2cpp2vmL36AddNestedTypesToNametoClassHashTableEPK11Il2CppImagePK20Il2CppTypeDefinition
Mfh:_List_1_set_Capacity_m2707586410_gshared
zwg:_PlayerConnection_MessageCallbackInternal_m1914517467
Kng:_AttributeHelperEngine__cctor_m1900959362
oNc:__ZN13TextRendering4Font23VirtualRedirectTransferER24GenerateTypeTreeTransfer
eqi:__ZL102Image_t2670269651_CustomAttributesCacheGenerator_Image_t2670269651____eventAlphaThreshold_PropertyInfoP21CustomAttributesCache
q6e:_X509SubjectKeyIdentifierExtension_ToString_m12089275
XZg:__Z106RuntimeInvoker_RuntimeObject_RuntimeObject_Int32_t2950945753_Int16_t2552820387_RuntimeObject_RuntimeObjectPFvvEPK10MethodInfoPvPS4_
Mlg:_UnhandledExceptionEventArgs__ctor_m224348470
aRb:__ZL16MouseMoveHandleriPK20EmscriptenMouseEventPv
ORf:_Array_InternalArray__IndexOf_TisByte_t1134296376_m929524687_gshared
sD:__ZN11AudioSource15InitializeClassEv
w4c:_ExecuteEvents_get_dragHandler_m3849431675
VEb:__ZN11HaloManager17RenderGeometryJobEP25DynamicVBOGeometryJobDataj
Pwg:_Object_DestroyImmediate_m2288369078
EMe:_BitConverterLE_UShortFromBytes_m1253080092
$Wj:_emscripten_glBlendEquation__wrapper
Ejj:__ZN15dense_hashtableINSt3__24pairIK10KeyWrapperIP11Il2CppClassES4_EES5_N6il2cpp8metadata16SZArrayClassHashEN14dense_hash_mapIS5_S4_SA_NS5_14EqualsComparerINS9_19SZArrayClassCompareEEENS0_9allocatorIS7_EEE9SelectKeyESE_SG_E13set_empty_keyERKS7_
kLj:__ZNSt3__212basic_stringIcNS_11char_traitsIcEENS_9allocatorIcEEE6__initEPKcj
Vj:_emscripten_set_fullscreenchange_callback
f3d:_PropertyBuilder_IsDefined_m406627924
$yh:_ReadOnlyCollection_1_System_Collections_IList_Insert_m4085855595_gshared
VBi:_PatternCompiler_NewLink_m3699449496
bJ:__ZN11UnityEngine15CloudWebService14DataDispatcher22ResetNetworkRetryIndexEv
_j:_emscripten_glDrawArrays
Cug:_Material_HasProperty_m2704238996
mzb:__ZZ23InitPlayerLoopCallbacksvEN43EarlyUpdateExecuteMainThreadJobsRegistrator7ForwardEv
EI:__ZN11UnityEngine15CloudWebService19SessionEventManagerC2Ev
Qwd:_Char_System_IConvertible_ToSingle_m2690985411_AdjustorThunk
mAh:_Comparison_1_Invoke_m668117148_gshared
v2e:_DictionaryNodeEnumerator_FailFast_m2494733641
IW:__ZN14GfxDoubleCacheIyP17VertexDeclaration14GfxGenericHashIyENSt3__28equal_toIyEEN31GfxDoubleCacheConcurrencyPolicy11LocklessGetE42GfxDoubleCacheDefaultEmptyDeletedGeneratorIyEE3GetI15VertDeclCreatorEERKS1_RKyT_
v1c:__ZN13RuntimeStaticI14dynamic_bitsetLb0EE16StaticInitializeEPv
E4:__ZNSt3__222__merge_move_constructIRNS_4lessIN4core12basic_stringIcNS2_20StringStorageDefaultIcEEEEEENS_11__wrap_iterIPS6_EESB_EEvT0_SC_T1_SD_PNS_15iterator_traitsISC_E10value_typeET_
H4b:__Z41Register_UnityEngine_Camera_get_eventMaskv
ID:__ZL19CleanupModule_Audiov
Dcf:_IntervalCollection_CopyTo_m2976848759
i9c:_CanvasUpdateRegistry_ObjectValidForUpdate_m2723813849
ira:__ZN18GlslGpuProgramGLES25LoadFromBinaryShaderCacheERjRKN4core12basic_stringIcNS1_20StringStorageDefaultIcEEEER17ShaderChannelMaskPKc
Rbh:_List_1_RemoveAt_m1433290785_gshared
ygb:__Z29Transfer_Blittable_ArrayFieldI14SafeBinaryReadiEvRT_R9ArrayInfoRK23StaticTransferFieldInfo
J5i:__ZN6il2cpp6icalls8mscorlib6System8MonoType8GetFieldEP20Il2CppReflectionTypeP12Il2CppStringi
N1i:__ZN15dense_hashtableINSt3__24pairIK10KeyWrapperIN6il2cpp5utils13dynamic_arrayIPK10Il2CppTypeLj4EEEEPFvvEEESA_NS3_8metadata19Il2CppSignatureHashEN14dense_hash_mapISA_SD_SG_NSA_14EqualsComparerINSF_22Il2CppSignatureCompareEEENS0_9allocatorISE_EEE9SelectKeyESK_SM_E5clearEv
UDf:_SHA256Managed_ProcessBlock_m2297835517
vTj:_emscripten_glVertexAttrib3fv__wrapper
fqg:_CSSMeasureFunc_Invoke_m3910201085
pqi:__ZL75InputField_t3762917431_CustomAttributesCacheGenerator_m_CharacterValidationP21CustomAttributesCache
Vyh:_ReadOnlyCollection_1_System_Collections_ICollection_CopyTo_m511916545_gshared
HOf:_Array_InternalArray__ICollection_Remove_TisOrderBlock_t1585977831_m1449044465_gshared
gTj:_emscripten_glGetIntegerv__wrapper
hYd:_AssemblyName__ctor_m1753467291
o0e:_Slider_set_minValue_m3431883418
R1b:__ZN8Material10GetTextureEN9ShaderLab16FastPropertyNameE
iFe:_Enumerator_System_Collections_IEnumerator_get_Current_m1657817602_gshared
h_a:__ZN18StreamedBinaryReadILb0EE21TransferSTLStyleArrayI13dynamic_arrayI10Matrix4x4fLj16EEEEvRT_17TransferMetaFlags
VUb:__ZNK28MonoBehaviourPropertyBinding13GetFloatValueERKN11UnityEngine9Animation10BoundCurveE
MCj:_GC_generic_malloc
J5e:_WebHeaderCollection_get_Keys_m910440889
Nea:__ZN13GfxDeviceGLES32CreateDepthRenderSurfacePlatformEP17RenderSurfaceBase17DepthBufferFormat
Ep:__ZN14SafeBinaryRead21TransferSTLStyleArrayI13dynamic_arrayIiLj4EEEEvRT_17TransferMetaFlags
lGg:_Vector4__cctor_m2519631228
zOb:__ZNK18ScreenManagerWebGL13GetShowCursorEv
Iyd:_ArrayListWrapper_Clear_m2625302714
rXj:_emscripten_glIsTexture__wrapper
wif:_CipherSuiteCollection_System_Collections_IEnumerable_GetEnumerator_m3240848888
JAh:_Comparison_1_BeginInvoke_m3417636795_gshared
hHd:_Convert_ToUInt64_m1627266664
jea:__ZN9GfxDevice25ReleaseAsyncCommandHeaderEPN21GfxDeviceAsyncCommand3ArgE
jyi:_PKCS12_set_IterationCount_m2605460921
Lzi:_X509Crl_Parse_m3164013387
Gjb:__ZL22Transfer_ManagedObjectI24GenerateTypeTreeTransferLb0EEvRK29SerializationCommandArgumentsR31RuntimeSerializationCommandInfo
Rzc:__ZN17Physics2DSettings15InitializeClassEv
wua:__ZN21UniformBufferTFMethod20IsBoneCountSupportedEi
Fpg:_Color_get_black_m719512684
Ifd:_HorizontalLayoutGroup_CalculateLayoutInputHorizontal_m750541069
uwj:__ZN6il2cpp6icalls8mscorlib6System11Environment11get_NewLineEv
Lwf:_Enum_System_IConvertible_ToDecimal_m3435237785
C8d:_ResourceReader_CreateResourceInfo_m1818330740
Pjf:_ClientSessionInfo_Dispose_m3253728296
aPa:__ZN6Shader27MarkShaderStateNotSupportedEPKS_
Mwg:_Object_Internal_CloneSingle_m1021157572
Zta:__ZN25TransformFeedbackSkinning8SkinMeshERK18VertexStreamSourceP9GfxBufferP17GPUSkinPoseBufferS4_ii17ShaderChannelMaskb
_oj:__ZN15dense_hashtableINSt3__24pairIK10KeyWrapperIP14Il2CppIUnknownEjEES5_N6il2cpp5utils11PointerHashIS3_EEN14dense_hash_mapIS5_jSB_NS5_14EqualsComparerINS0_8equal_toIS4_EEEENS0_9allocatorIS7_EEE9SelectKeyESG_SI_E12resize_deltaEjj
m8d:_ResolveEventArgs__ctor_m1455935166
Thg:_Type_Equals_m1673304139
gSd:_SynchronizedReader_Read_m1388613247
Zlb:__Z22TransferField_NonArrayI19StreamedBinaryWriteILb0EE27Converter_SimpleNativeClassI8GUIStyleEEvRK23StaticTransferFieldInfoR31RuntimeSerializationCommandInfoRT0_
gZe:_Scrollbar_OnPointerDown_m3213715319
Slc:__ZN8JSONRead8TransferIN4math12int3_storageEEEvRT_PKc17TransferMetaFlagsb
hAb:__ZN27IntermediateRendererManager29ClearAllIntermediateRenderersEv
B6c:_StandaloneInputModule__ctor_m2419721820
ize:_Comparer_1_System_Collections_IComparer_Compare_m2018996185_gshared
_p:__Z17CalculateGlobalSM23TransformAccessReadOnlyRKN4math7_float4E
zF:__ZN23CloudWebServicesManager23VirtualRedirectTransferER18StreamedBinaryReadILb0EE
JAd:_CollectionBase_System_Collections_IList_Contains_m2994901969
_l:_emscripten_glLoadIdentity
VOb:__ZNSt3__26vectorINS_4pairIN4core12basic_stringIcNS2_20StringStorageDefaultIcEEEEPK17MessageIdentifierEENS_9allocatorISA_EEE26__swap_out_circular_bufferERNS_14__split_bufferISA_RSC_EEPSA_
LFd:_Convert_ToInt16_m2896657713
bxg:_Vector3_get_zero_m1409827619
$Jb:__Z29CullShadowCastersWithoutUmbraR9IndexListRK17CullingParametersPK4AABBjj
kca:__ZN6Shader16GetDefaultOrNullEv
Ap:__ZN4AABB8TransferI14SafeBinaryReadEEvRT_
tNf:_Array_InternalArray__ICollection_Contains_TisX509ChainStatus_t133602714_m795171973_gshared
Lnj:__ZN6il2cpp2vm8Liveness8FromRootEP12Il2CppObjectPv
Qpc:__ZN16PhysicsManager2D26GetGameObjectForRaycastHitERK12RaycastHit2D
g$a:__ZN12MeshRenderer23VirtualRedirectTransferER19StreamedBinaryWriteILb0EE
CUa:__ZN18StreamedBinaryReadILb0EE21TransferSTLStyleArrayI13dynamic_arrayI12LightmapDataLj4EEEEvRT_17TransferMetaFlags
RBa:__ZNK17ArchiveFileSystem9EnumerateEPKcP19dynamic_block_arrayI13FileEntryInfoLj32EEbPPv19FileEnumerationFlag
RQb:__Z11MD5ToStringPh
V6i:__ZN23InterfaceActionInvoker4IixxbE6InvokeEjP11Il2CppClassP12Il2CppObjectixxb
Q6b:__Z38Input_Get_Custom_PropCompositionStringv
x1e:_Text_get_alignment_m1496827807
wPe:_ContentInfo_get_ASN1_m1776225219
JG:__ZN9JSONWrite8TransferIN4core12basic_stringIcNS1_20StringStorageDefaultIcEEEEEEvRT_PKc17TransferMetaFlags
Nqc:__ZN24b2ChainAndPolygonContact6CreateEP9b2FixtureiS1_iP16b2BlockAllocator
EGd:_Convert_ToSingle_m2533452644
tLj:__ZNSt3__212basic_stringIcNS_11char_traitsIcEENS_9allocatorIcEEE6resizeEjc
u2a:__ZN14PlayerSettings16CheckConsistencyEv
rC:__ZN11AudioModule30GetOrCreateDSPFromCustomFilterEP17AudioCustomFilter
OHa:__ZN19AtomicPageAllocatorD2Ev
G3c:_EventTrigger_OnPointerEnter_m986348926
loj:__ZN6il2cpp6icalls8mscorlib6System13GlobalizationL20culture_lcid_locatorEPKvS5_
AFf:_X509Certificate__ctor_m1413707489
ARa:__ZNK12CubemapArray16ExtractImageImplEP14ImageReferenceNS0_8BlitModeEbi
z7b:__Z63Register_UnityEngine_MonoBehaviour_StartCoroutine_Auto_Internalv
Bxc:__ZN16CircleCollider2D5ResetEv
IQj:_glTexStorage3D__wrapper
G2a:__ZN10VRSettings8TransferI14SafeBinaryReadEEvRT_
rig:_Type_IsMarshalByRefImpl_m914778231
ABd:_Hashtable__ctor_m2302711321
ka:invoke_viifiiii
fwd:_Byte_TryParse_m1467448483
COj:dynCall_viiiiiif
H0c:__ZN20UnityWebRequestProtoI24UnityWebRequestTransport16AtomicRefCounter14RedirectHelper14ResponseHelper15DownloadHandler13UploadHandler12HeaderHelper14AsyncOperationE8FinalizeEv
dDg:_Texture2D_get_whiteTexture_m2176011403
MT:__ZN22PerThreadPageAllocator14AcquireNewPageEj
Py:__ZN24AudioScriptBufferManager15DidReloadDomainEv
_Ah:_Func_2_Invoke_m3516477887_gshared
gfi:__ZL65SelectionBaseAttribute_t3493465804_CustomAttributesCacheGeneratorP21CustomAttributesCache
YKf:_String_ToString_m3872792296
Mib:__Z18Transfer_BlittableI24GenerateTypeTreeTransferLb1E9BoundsIntEvRK29SerializationCommandArgumentsR31RuntimeSerializationCommandInfo
cOd:_FileStream_GetSecureFileName_m449783930
gGb:__ZN6Camera13ClearNoSkyboxEb
ZSd:_UnexceptionalStreamWriter_Flush_m82278468
Kse:_InternalEnumerator_1_get_Current_m3911557813_gshared
a1i:__ZNK15dense_hashtableI10KeyWrapperIPK17Il2CppGenericInstES4_N6il2cpp8metadata21Il2CppGenericInstHashEN14dense_hash_setIS4_S7_NS4_14EqualsComparerINS6_24Il2CppGenericInstCompareEEENSt3__29allocatorIS4_EEE8IdentityESB_SE_E12test_deletedEj
fGa:__ZN19StreamedBinaryWriteILb0EE21TransferSTLStyleArrayI13dynamic_arrayI17SortingLayerEntryLj4EEEEvRT_17TransferMetaFlags
p2c:_BaseInput_get_touchCount_m1263753282
Bef:_ASN1Convert_FromOid_m3844102704
Ahe:_RemotingSurrogate_SetObjectData_m2713731796
J9f:_DecoderReplacementFallbackBuffer_Reset_m3943028589
wsa:__ZN18GfxFramebufferGLES10InvalidateEv
y3f:_Enumerator_System_Collections_IEnumerator_get_Current_m282279808_AdjustorThunk
eUe:_LayoutRebuilder_MarkLayoutRootForRebuild_m1241498911
Tdg:_CompressedStack_CreateCopy_m2591279216
dDf:_RSAPKCS1KeyExchangeFormatter_CreateKeyExchange_m1611814432
uZ:__ZN10MemoryPoolD2Ev
gdc:__ZNSt3__26__treeINS_12__value_typeIN4core12basic_stringIcNS2_20StringStorageDefaultIcEEEEN5IMGUI12NamedControlEEENS_19__map_value_compareIS6_S9_NS_4lessIS6_EELb1EEENS_9allocatorIS9_EEE7destroyEPNS_11__tree_nodeIS9_PvEE
k6e:_AsnEncodedData_KeyUsageExtension_m1792651780
Ptj:__ZN6il2cpp2os5posix15PosixWaitObjectD2Ev
QBb:__ZNK25CameraStackRenderingState28GetDstTextureForImageFiltersEv
bKj:___mmap
i_b:__ZN9Scripting26RaiseArgumentNullExceptionEPKc
pqf:_DateTime_CoreParse_m428043272
iL:__ZL18InternalLogConsolePKcz
ZIj:_lseek
oqe:_InternalEnumerator_1_get_Current_m685192625_gshared
TSd:_UnexceptionalStreamReader_Read_m16956299
L8d:_ResourceReader_ReadValueVer1_m183253382
GP:__Z37scripting_method_get_nth_argumenttype18ScriptingMethodPtri
WA:__ZN11AudioSource16UpdatePauseStateEv
Y0:__ZL52StaticUnregisterSceneLoadedCallback_LightmapSettingsPv
Uog:_Camera_get_main_m3643453163
MGj:__ZN6il2cpp5utils25NativeDelegateMethodCache17AddNativeDelegateEPFvvEPK10MethodInfo
FVe:_LayoutRebuilder_U3CRebuildU3Em__5_m1288787547
rFb:__ZN27DeviceViewProjMatricesStateD2Ev
eCg:_SendMouseEvents__cctor_m2378365934
Fth:_ReadOnlyCollection_1_System_Collections_IList_set_Item_m3582274843_gshared
Rug:_Mathf_Pow_m856735666
H3:__ZL39CreateRegisteredMessageIdentifiersArrayPv
xib:__Z18Transfer_BlittableI24GenerateTypeTreeTransferLb0E8Vector3fEvRK29SerializationCommandArgumentsR31RuntimeSerializationCommandInfo
oJe:_SimpleCollator_FilterExtender_m72900315
kNc:__ZNK13TextRendering4Font22GetTypeVirtualInternalEv
jPe:_SymmetricTransform_CheckInput_m1829858759
e4a:__ZN19StreamedBinaryWriteILb0EE21TransferSTLStyleArrayINSt3__26vectorIN15ResourceManager10DependencyE13stl_allocatorIS5_L18MemLabelIdentifier52ELi16EEEEEEvRT_17TransferMetaFlags
FYd:_Binder_FindMostDerivedMatch_m239579024
roe:_InternalEnumerator_1_get_Current_m476140818_AdjustorThunk
AJi:_GUIUtility_EndContainerGUIFromException_m530164245
sma:__ZN6prcoreL10inner_flipILj2EEEvPhS1_j
bYa:__ZNK14Texture2DArray16ExtractImageImplEP14ImageReferenceNS0_8BlitModeEbi
Ybg:_StringBuilder_Append_m2383614642
fic:__ZN9JSONWrite8TransferIbEEvRT_PKc17TransferMetaFlags
Uya:__ZN12TLSAllocatorI14StackAllocatorED0Ev
FTi:_fileBehavior_OnCollisionEnter2D_m2690160189
s1a:__ZN11TimeManager16CheckConsistencyEv
OCb:__ZN21GfxDeviceAsyncCommand10ArgScratch15ThreadedCleanupEv
Fwc:__ZN10ClipperLib14IntersectPointERNS_5TEdgeES1_RNS_8IntPointE
e_b:__Z14DoubleToStringd
GLf:_StringComparer_GetHashCode_m2080455020
Atf:_Decimal_Floor_m1786329488
X8g:_List_1_CheckCollection_m2118769249_gshared
ue:_glTexImage3D
xbd:_DefaultControls_SetDefaultColorTransitionValues_m2033775311
xNd:_Path_IsPathRooted_m3515805419
YIh:_Array_InternalArray__set_Item_TisChar_t3634460470_m741842250_gshared
swi:_TlsServerSettings_set_RsaParameters_m853026166
vPa:__ZNSt3__26vectorINS_4pairI11ShaderTagIDS2_EENS_9allocatorIS3_EEE6insertENS_11__wrap_iterIPKS3_EERS8_
Xpf:_DateTime_AddMilliseconds_m3713972790_AdjustorThunk
Mmd:_RC2_Create_m2052783340
uBf:_Guid__ctor_m3421080095_AdjustorThunk
rFd:_Convert_ToDouble_m217737046
Dxj:__ZN6il2cpp8metadataL22FormatGenericArgumentsEPK17Il2CppGenericInst
uYg:__Z133RuntimeInvoker_Int32_t2950945753_Vector2_t2156229523_Vector2_t2156229523_Single_t1397266774_ContactFilter2D_t3805203441_RuntimeObjectPFvvEPK10MethodInfoPvPS4_
$2b:__ZL34GetComponentsImplementationRecurseILb1ELi0ELi1EEbR10GameObjectbRK17CompareParametersRK39GetComponentsImplementation_ReturnValue
dwf:_Double_Equals_m1674752021
bSe:_InputField_OnDisable_m1824300767
CTc:__ZN2UI25AddCanvasRendererToCanvasER8JobFencePNS_12CanvasHandleERNS_10CanvasDataEi
uDd:_SortedList_Clone_m928094797
c3a:__ZN10VRSettings8TransferI18StreamedBinaryReadILb0EEEEvRT_
bKa:__ZN17MeshRenderingData7ReleaseEv
$ze:_Enumerator_get_CurrentKey_m2230405065_gshared
nAc:__ZN22WorldContactListener2D12BeginContactEP9b2Contact
plf:_TlsClientFinished_ProcessAsSsl3_m3094597606
Vkc:__ZN8JSONRead21TransferSTLStyleArrayI13dynamic_arrayIdLj8EEEEvRT_17TransferMetaFlags
Vog:_Camera_get_allCamerasCount_m528453758
o5i:__ZN6il2cpp2vm10ThreadPool5QueueEP14Il2CppDelegatePPvS3_P12Il2CppObject
dmb:__Z19TransferField_ArrayI19StreamedBinaryWriteILb0EE27Converter_SimpleNativeClassI8GradientEEvRK23StaticTransferFieldInfoR31RuntimeSerializationCommandInfoRT0_
P8:__ZN24GenerateTypeTreeTransfer8TransferINSt3__26vectorIN9ShaderLab20SerializedSubProgram15VectorParameterENS1_9allocatorIS5_EEEEEEvRT_PKc17TransferMetaFlags
roc:__ZNK12b2WheelJoint16GetReactionForceEf
zUj:_glGetUniformBlockIndex__wrapper
esd:_Array_CreateInstance_m2696293787
jcg:_UnicodeEncoding__ctor_m1074918879
_Wa:__ZN7SubMesh8TransferI18StreamedBinaryReadILb0EEEEvRT_
G2d:_OpCode_Equals_m1376200488_AdjustorThunk
kad:_ColorBlock_op_Inequality_m2718216889
hf:_emscripten_glIsEnabled
fob:__ZN18StreamedBinaryReadILb1EE21TransferSTLStyleArrayI13dynamic_arrayIdLj8EEEEvRT_17TransferMetaFlags
J5b:__Z45Register_UnityEngine_GameObject_get_transformv
R_d:_DerivedType_GetConstructors_m483065502
YN:__Z29scripting_class_instance_size17ScriptingClassPtr
Alc:__Z29Transfer_Blittable_ArrayFieldI8JSONRead5RectTIiEEvRT_R9ArrayInfoRK23StaticTransferFieldInfo
xmc:__ZN7b2World12DestroyJointEP7b2Joint
$5g:__Z68RuntimeInvoker_Boolean_t97287965_SByte_t1669577662_SByte_t1669577662PFvvEPK10MethodInfoPvPS4_
aYg:__Z165RuntimeInvoker_Void_t1185182177_RuntimeObject_Int32_t2950945753_Int32_t2950945753_RuntimeObject_Int32_t2950945753_Single_t1397266774_Single_t1397266774_RuntimeObjectPFvvEPK10MethodInfoPvPS4_
zc:invoke_iiiiiiiii
eJ:__ZN11UnityEngine15CloudWebService19SessionEventManager26ProcessEventQueueJobStaticEPv
Nug:_Mathf_Min_m1073399594
TCg:_StackTraceUtility_ExtractStringFromExceptionInternal_m2686726792
y0a:__ZL19SpriteMeshExtractorPv17ShaderChannelMaskiR11MeshBuffersR16DrawBuffersRangeRiS5_
cHc:_otv_Coverage_get_last
C8e:_X509Chain_IsChainComplete_m1577524584
Zgc:__Z18Transfer_BlittableI9JSONWriteLb1E9BoundsIntEvRK29SerializationCommandArgumentsR31RuntimeSerializationCommandInfo
ZIe:_MSCompatUnicodeTable_FillCJKCore_m2347268515
SEi:_Group_GetWidth_m3299755715
puf:_Decimal_op_Implicit_m1920400487
vMa:__ZN10builtintex15GetWhiteTextureEv
qhe:_MonoMethodMessage_get_TypeName_m3758247133
lCd:_Enumerator_get_Entry_m2184304359
fqf:_DateTime_FromBinary_m2489276715
PHj:__ZN6il2cpp6icalls8mscorlib6System10Reflection4Emit11DerivedType21create_unmanaged_typeEP20Il2CppReflectionType
fgd:_Image_set_fillCenter_m3776786491
p3:__Z29GetOcclusionPortalManagerListv
L8b:__Z39Register_UnityEngine_Sprite_get_texturev
NXi:__ZL10rescale128PyS_Piiiii
Yu:__ZN9AudioClip7WWWSeekEPvjS0_
rTh:__ZL63FixedBufferAttribute_t3759792648_CustomAttributesCacheGeneratorP21CustomAttributesCache
LY:__ZL32StaticInitializeIUnityInterfacesPv
rCb:__Z13CameraProjectRK8Vector3fRK10Matrix4x4fS4_RK5RectTIiERS_b
Z4a:__ZN30RuntimeInitializeOnLoadManager15ClassMethodInfo8TransferI19StreamedBinaryWriteILb0EEEEvRT_
e0:__Z22CreateMutexLockedStackv
Fxb:__ZNSt3__27__sort5IRNS_4lessIN22BuiltinResourceManager8ResourceEEEPS3_EEjT0_S7_S7_S7_S7_T_
$Id:_NumberFormatter_FormatNumber_m1763569482
tpi:__ZL57FontData_t746620069_CustomAttributesCacheGenerator_m_FontP21CustomAttributesCache
xaa:__ZN9ShaderLab11ShaderStateD2Ev
PKc:_Ins_DELTAP
Ptb:__Z23TransferScriptingObjectI24GenerateTypeTreeTransferEvRT_18ScriptingObjectPtr17ScriptingClassPtrPK15MonoScriptCache
ZBi:_PatternLinkStack_GetOffset_m3697714525
gcc:__ZN12GUIClipState5ApplyER10InputEvent
Llb:__ZL17Transfer_GUIStyleI19StreamedBinaryWriteILb0EELb0EEvRK29SerializationCommandArgumentsR31RuntimeSerializationCommandInfo
kGb:__ZN10TextureRef4InitEP7Textureb
vOd:_MonoIO_GetFileType_m101289143
Ula:__Z19ScheduleJobInternalR8JobFencePFvPvES1_11JobPriority
m3e:_KeysCollection_get_Count_m3943311735
Dmc:__ZN16b2BlockAllocator4FreeEPvi
ipe:_InternalEnumerator_1_get_Current_m2832154098_gshared
lmg:_Version__ctor_m1550720073
p4i:__ZNSt3__211__tree_nextIPNS_16__tree_node_baseIPvEEEET_S5_
Uqj:__ZN15dense_hashtableI10KeyWrapperIP18Il2CppGenericClassES3_N6il2cpp8metadata22Il2CppGenericClassHashEN14dense_hash_setIS3_S6_NS3_14EqualsComparerINS5_25Il2CppGenericClassCompareEEENSt3__29allocatorIS3_EEE8IdentityESA_SD_E14squash_deletedEv
Toa:__ZN6prcoreL17RemapGenericFloatI17TexFormatRGBAHalf17TexFormatRGBFloatEEvPKNS_9InnerInfoE
KJg:__Z52RuntimeInvoker_Double_t594665363_Decimal_t2948259380PFvvEPK10MethodInfoPvPS4_
Qte:_InternalEnumerator_1_get_Current_m784835552_gshared
obc:__Z35Sprite_Get_Custom_PropPixelsPerUnitP12Il2CppObject
d1i:__ZNSt3__26__sortIRN6il2cpp5utils11collections13ArrayValueMapIPK10Il2CppType17Il2CppInteropData26InteropDataToTypeConverterNS1_8metadata14Il2CppTypeLessENSA_26Il2CppTypeEqualityComparerEE12SortComparerEPS8_EEvT0_SH_T_
R6a:__ZN11PreloadDataD2Ev
Z$c:__ZN15DownloadHandler14ProcessHeadersERK9HeaderMap
CNc:__ZNSt3__26vectorINS_4pairIifEE13stl_allocatorIS2_L18MemLabelIdentifier35ELi16EEE6assignINS_11__wrap_iterIPS2_EEEENS_9enable_ifIXaasr21__is_forward_iteratorIT_EE5valuesr16is_constructibleIS2_NS_15iterator_traitsISC_E9referenceEEE5valueEvE4typeESC_SC_
ac:invoke_iifi
NWi:_Physics2D_GetColliderFromInstanceID_m3673767851
Fwd:_Char_System_IConvertible_ToInt16_m975497224_AdjustorThunk
bpc:__ZNK16b2PrismaticJoint16GetReactionForceEf
Luf:_Delegate_CreateDelegate_m995503480
PVj:_emscripten_glGetObjectParameterivARB__wrapper
m7i:__ZNK6il2cpp5utils10StringViewIcE5RFindEc
b$d:_DerivedType_get_Module_m3032466746
OIa:__ZN15SharedLightData15UpdateTransformERK9Transform
tqi:__ZL71InputField_t3762917431_CustomAttributesCacheGenerator_m_OnValidateInputP21CustomAttributesCache
a4:__ZN18AssetBundleManagerD2Ev
w6b:__Z44Register_UnityEngine_RectOffset_get_verticalv
pGj:__ZN6il2cpp2vm9LastError31InitializeLastErrorThreadStaticEv
wWe:_MaskableGraphic_set_maskable_m243551751
JRd:_StreamWriter_Dispose_m2818839127
Ay:__ZN4FMOD6System17setSoftwareFormatEi17FMOD_SOUND_FORMATii18FMOD_DSP_RESAMPLER
Y1:__ZZN15DirectorManager15InitializeClassEvEN43PostLateUpdateDirectorLateUpdateRegistrator7ForwardEv
UTi:_persistentMusic_Awake_m2439450877
kh:_JS_SystemInfo_GetCurrentCanvasHeight
fme:_ArrayReadOnlyList_1_IndexOf_m1911574180_gshared
fWe:_Mask_OnEnable_m2186824439
HQe:_InputField_SetCaretVisible_m2216480850
R9e:_X509EnhancedKeyUsageExtension_CopyFrom_m3750050754
lPa:__ZNK8Material22GetTypeVirtualInternalEv
pec:__Z34GUIStyle_Get_Custom_PropFixedWidthP12Il2CppObject
Gvh:_ReadOnlyCollection_1_System_Collections_IList_Clear_m1076810235_gshared
p6f:_Enumerator_System_Collections_IEnumerator_get_Current_m3405349194_AdjustorThunk
jwj:__ZN6il2cpp2gc16GarbageCollector11GetWeakLinkEPPv
quj:__GLOBAL__sub_I_Console_cpp
Joa:__ZN6prcoreL17RemapGenericFloatI14TexFormatRHalf17TexFormatRGBAHalfEEvPKNS_9InnerInfoE
Wcf:_BigInteger_GetBytes_m1259701831
C7i:__ZN6il2cpp2vm7Runtime11InvokeArrayEPK10MethodInfoPvP11Il2CppArrayPP15Il2CppException
pLf:_String_memcpy_m2826223007
end:_RijndaelManaged_CreateDecryptor_m1421727258
UKc:_Dual_Project
Tfa:__ZN9GfxDevice15BeginFrameStatsEv
g6f:_Enumerator_MoveNext_m2407049913_gshared
Tbg:_StringBuilder_Replace_m1682610486
Nra:__ZN4gles20EnsureTextureCreatedEP7ApiGLESP17RenderSurfaceGLES
bDb:__ZN15ReplacementPass13PrepareSubsetEjRK10RenderNodeifRK17ShaderReplaceData
zz:__Z32AudioMeasurement_GetTimeConstantff
PWh:__ZL58UnmanagedMarshal_t984015687_CustomAttributesCacheGeneratorP21CustomAttributesCache
Mwj:__ZN6il2cpp8metadata11FieldLayout12LayoutFieldsEjjjRKNSt3__26vectorIPK10Il2CppTypeNS2_9allocatorIS6_EEEERNS1_15FieldLayoutDataE
Qab:__ZNK20LocalFileSystemPosix9EnumerateEPKcP19dynamic_block_arrayI13FileEntryInfoLj32EEbPPv19FileEnumerationFlag
P4d:_MethodInfo_MakeGenericMethod_m1996785325
D2c:_BaseInputModule_DetermineMoveDirection_m770437496
Sde:_Context_get_HasGlobalDynamicSinks_m3672814609
MAi:_Match__ctor_m2464595873
DKb:__ZL27PrepareSceneNodesJobCombineP25ScheduleSceneNodesJobData
ozi:_X509CertificateEnumerator_Reset_m1825523691
Oeb:__Z22TransferField_NonArrayI14SafeBinaryRead27Converter_SimpleNativeClassI8GUIStyleEEvRK23StaticTransferFieldInfoR31RuntimeSerializationCommandInfoRT0_
sej:__ZN14dense_hash_mapI10KeyWrapperIPK10Il2CppTypeEjN6il2cpp8metadata14Il2CppTypeHashENS4_14EqualsComparerINS6_26Il2CppTypeEqualityComparerEEENSt3__29allocatorINSB_4pairIKS4_jEEEEEC2EjRKS7_RKSA_
Bca:__ZN13GfxDeviceGLESD2Ev
L5:__ZNSt3__26vectorIN9ShaderLab26SerializedShaderDependencyENS_9allocatorIS2_EEE6resizeEj
BNh:_Activator_CreateInstance_TisRuntimeObject_m729575857_gshared
F1:__ZN18AsyncUploadManager13StaticDestroyEPv
e5:__ZN6Shader7SetNameEPKc
uud:_Convert_ToDouble_m954895424
$Nb:__ZN19CustomRenderTexture22HandleBoundaryWrappingERKNS_14UpdateZoneInfoEj
ry:__ZL50UnityAudioEffect_InternalSetFloatParameterCallbackP14FMOD_DSP_STATEif
vSi:_TextGenerationSettings_CompareColors_m3051734236
gwc:__ZN10ClipperLib7Clipper16DoSimplePolygonsEv
l4i:__ZN6il2cpp2vm13MetadataCache32GenerateCustomAttributeTypeCacheEi
ZIf:_Single_Equals_m438106747
Dbg:_StringBuilder__ctor_m2989139009
r9d:_RuntimeResourceSet__ctor_m2765575100
flf:_TlsClientCertificate_ProcessAsSsl3_m3265529850
dJd:_NumberFormatter_Multiply10_m1733956269
RLf:_ASCIIEncoding_GetChars_m2543669481
sLe:_BigInteger_IsProbablePrime_m567194283
zYf:_Dictionary_2_System_Collections_IDictionary_Remove_m3518952519_gshared
S1d:_MethodBuilder_GetCustomAttributes_m731278908
ZKc:_Direct_Move_Y
XKc:_Direct_Move_X
CQg:__Z51RuntimeInvoker_Single_t1397266774_Double_t594665363PFvvEPK10MethodInfoPvPS4_
Hi:_glClearDepthf
gWb:__ZN19SkinnedMeshRenderer7GetMeshEv
_8a:__ZN19RuntimeSceneManager14GetActiveSceneEv
IMj:_memcpy
Gxb:__ZNSt3__218__insertion_sort_3IRNS_4lessIN22BuiltinResourceManager8ResourceEEEPS3_EEvT0_S7_T_
Wke:_MultiArrayFixupRecord_FixupImpl_m1721674130
K6i:__ZN6il2cpp6icalls8mscorlib6SystemL8IsStaticEPK9EventInfo
PGc:_otv_LookupList_validate
f6b:__Z29RectOffset_Set_Custom_PropTopP12Il2CppObjecti
r3f:_GenericEqualityComparer_1_Equals_m687841776_gshared
T9b:__Z57Register_UnityEngine_Transform_INTERNAL_get_localPositionv
hVe:_U3CDelayedSetDirtyU3Ec__Iterator0_Dispose_m2469848327
RIb:__ZNSt3__27__sort4IR15ReflProbeSorterPP15ReflectionProbeEEjT0_S6_S6_S6_T_
qIa:__ZN16GraphicsSettings10SmartResetEv
X_b:__ZN19StreamedBinaryWriteILb0EE4InitE24TransferInstructionFlags20BuildTargetSelection
qPd:_FileStream_Flush_m948103572
xYi:__ZN15dense_hashtableINSt3__24pairIK10KeyWrapperIPK22Il2CppGenericParameterEP11Il2CppClassEES6_N6il2cpp5utils11PointerHashIS4_EEN14dense_hash_mapIS6_S9_SE_NS6_14EqualsComparerINS0_8equal_toIS5_EEEENS0_9allocatorISA_EEE9SelectKeyESJ_SL_E9copy_fromERKSO_j
BMe:_ASN1Convert_ToInt32_m254930636
n3a:__ZN26PlayerSettingsSplashScreen16CheckConsistencyEv
FLa:__ZN20SphericalHarmonicsL28TransferI19StreamedBinaryWriteILb0EEEEvRT_
ulg:_UInt64_ToString_m1529093114
Ayc:__ZN16PhysicsManager2D45UnregisterTransformChangeInterestForRigidbodyEP11Rigidbody2D
Bd:_emscripten_glLoadMatrixf
Gug:_Material_SetInt_m1783799378
Drd:_Array_GetLength_m2178203778
Htg:_Input_GetMouseButtonDown_m2081676745
RHd:_Int16_System_IConvertible_ToDouble_m1661805412_AdjustorThunk
G_a:__ZN4Mesh14UploadMeshDataEb
rWb:__ZN14RenderSettings12CleanupClassEv
I8b:__Z43DataUtility_CUSTOM_INTERNAL_CALL_GetPaddingP12Il2CppObjectR8Vector4f
$B:__ZN21AudioScriptingClasses26InvokeOnAudioManagerUpdateEP21ScriptingExceptionPtr
Wla:__ZN18AsyncUploadManager15DoDeCruncherJobEP26FileAssetUploadInstruction
Efa:__ZN9GfxDevice15ImmediateNormalEfff
CEg:_Enumerator__ctor_m1351041375
Zdg:_CompressedStack_IsEmpty_m1305135551
KQ:__ZN20dynamic_block_vectorI14FileIdentifierE22push_back_no_constructEv
lUj:_emscripten_glGetActiveAttrib__wrapper
tYa:__ZN9Texture3D23VirtualRedirectTransferER14SafeBinaryRead
XJh:_Array_InternalArray__set_Item_TisVector2_t2156229523_m2671087464_gshared
JOh:_Array_InternalArray__get_Item_TisVector4_t3319028937_m1117939728_gshared
n7:__ZNSt3__26vectorIN9ShaderLab20SerializedSubProgram16TextureParameterENS_9allocatorIS3_EEE8__appendEj
gzi:_X509CertificateCollection_Contains_m743657353
pTf:_Array_InternalArray__ICollection_Add_TisSlot_t384495010_m3656484468_gshared
vTa:__ZN9Texture2D13UploadTextureEi
Gqa:__ZN7ApiGLES9MapBufferEjN2gl12BufferTargetEllj
By:__ZN4FMOD6System19setSoftwareChannelsEi
Yga:__ZN9GfxDevice19SetSinglePassStereoE16SinglePassStereo
mTj:_emscripten_glGenBuffers__wrapper
t$h:__ZL93X509Certificate_t713131622_CustomAttributesCacheGenerator_X509Certificate_GetName_m1060481339P21CustomAttributesCache
GMj:_bitshift64Lshr
hHj:__ZN6il2cpp8metadata19Il2CppSignatureHash4HashERKNS_5utils13dynamic_arrayIPK10Il2CppTypeLj4EEE
o2i:__ZNK15dense_hashtableINSt3__24pairIK10KeyWrapperIPK19Il2CppGenericMethodEPK26Il2CppGenericMethodIndicesEES6_N6il2cpp8metadata23Il2CppGenericMethodHashEN14dense_hash_mapIS6_SA_SE_NS6_14EqualsComparerINSD_26Il2CppGenericMethodCompareEEENS0_9allocatorISB_EEE9SelectKeyESI_SK_E13find_positionERS7_
FBd:_Hashtable_System_Collections_IEnumerable_GetEnumerator_m2751657639
fge:_HeaderHandler_Invoke_m3513051789
Isi:__ZL77CanvasScaler_t2767979955_CustomAttributesCacheGenerator_m_ReferenceResolutionP21CustomAttributesCache
JKg:__Z144RuntimeInvoker_RuntimeObject_RuntimeObject_Int32_t2950945753_RuntimeObject_RuntimeObject_RuntimeObject_RuntimeObject_RuntimeObject_RuntimeObjectPFvvEPK10MethodInfoPvPS4_
Khg:_Type_get_IsPointer_m4067542339
p1e:_Text_get_supportRichText_m1837499160
i7b:__Z60Register_UnityEngine_Input_INTERNAL_set_compositionCursorPosv
axg:_Vector3_Magnitude_m3447562852
Qng:_Component__ctor_m1928064382
iOj:dynCall_viiiii
lDd:_SortedList_PutImpl_m3408406199
Tpc:__ZN16PhysicsManager2D19ApplyParticleForcesER13dynamic_arrayI21BatchedColliderResultLj4EE
YMc:_Cubic_To
zjf:_Context_get_Protocol_m1078422015
O3b:__Z37Register_UnityEngine_Application_Quitv
E4b:__Z44Register_UnityEngine_Camera_get_farClipPlanev
Wq:__Z25InverseTransformDirection23TransformAccessReadOnlyRKN4math7_float3Eb
rlf:_TlsClientHello_Update_m3773127362
hLi:_ToggleGroup_SetAllTogglesOff_m4184050071
q2a:__ZNK17IAnimationBinding30CurveAttributeToSerializedPathERKN11UnityEngine9Animation10BoundCurveE
Gsj:__ZN6il2cpp2gc16GarbageCollector14GetOrCreateCCWEP12Il2CppObjectRK10Il2CppGuid
vqj:__ZN6il2cpp2vm5Image21FromTypeNameParseInfoEPK11Il2CppImageRKNS0_17TypeNameParseInfoEb
sUd:_MonoCustomAttrs_IsDefined_m2996012389
aia:__ZN17BufferManagerGLES13AcquireBufferEjN14DataBufferGLES11BufferUsageEb
aTi:_TextGenerator_PopulateAlways_m1922695746
lsf:_Decimal__ctor_m3650533794
DWe:_MaskableGraphic_UpdateClipParent_m2605828397
uFf:_TripleDESTransform_GetStrongKey_m292426577
EZd:_AssemblyBuilder_get_Location_m384539722
G_c:__ZN16UnityAdsSettingsD0Ev
xka:__ZNK7ApiGLES10DebugLabelEN2gl10ObjectTypeEjPKc
TNd:_DirectoryNotFoundException__ctor_m4004339866
qMj:__ZNK10__cxxabiv121__vmi_class_type_info16search_below_dstEPNS_19__dynamic_cast_infoEPKvib
FSi:_TextGenerator__ctor_m1349784994
Tja:__ZN19ConstantBuffersGLES13SetCBConstantEiiPKvi
nXe:_Navigation_Equals_m317484440
snh:_Collection_1_System_Collections_IList_set_Item_m876512695_gshared
J8b:__Z38DataUtility_CUSTOM_Internal_GetMinSizeP12Il2CppObjectP13Vector2fIcall
LFg:_Vector3_Distance_m886789632
jke:_ObjectReader_ReadObjectGraph_m1689734232
kwg:_MonoBehaviour_StopCoroutine_m907039165
wpc:__ZN15b2DistanceJoint4DumpEv
Dhj:_il2cpp_class_has_attribute
pNe:_DSAManaged_get_KeySize_m2738463749
qna:__ZN6prcoreL12RemapGenericI15TexFormatRGB88817TexFormatARGB8888EEvPKNS_9InnerInfoE
hGg:_Vector4_op_Subtraction_m1632208160
iP:__Z27FindOrCreateMonoScriptCache17ScriptingClassPtr22InitScriptingCacheTypeP6Objecti
Tzc:__Z23CleanupPhysicsManager2Dv
Dpb:__Z18Transfer_BlittableI18StreamedBinaryReadILb0EELb1E8Vector3fEvRK29SerializationCommandArgumentsR31RuntimeSerializationCommandInfo
STc:__ZN2UI14CanvasRenderer13SyncVertexPtrER8JobFenceNS0_8SyncFlagE
Vzf:_CultureInfo_GetFormat_m732021304
AP:__Z35scripting_method_get_argument_count18ScriptingMethodPtr
Rza:__ZN18AssetBundleManager18SortPreloadObjectsER13dynamic_arrayIiLj4EEb
PPg:__Z46RuntimeInvoker_RuntimeObject_Double_t594665363PFvvEPK10MethodInfoPvPS4_
Y9f:_EncoderReplacementFallback__ctor_m2980727890
tyd:_ArrayList_Synchronized_m1327684267
G4d:_MethodBase_get_IsPublic_m2180846589
Rec:__Z48Register_UnityEngine_GUIUtility_Internal_ExitGUIv
$_f:_DefaultComparer_Equals_m2574572657_gshared
BOd:_FileStream_get_CanWrite_m1199612770
HKb:__ZL21CullDynamicObjectsJobP14CullingJobDataj
fcc:__ZNSt3__26vectorI7GUIClipNS_9allocatorIS1_EEE21__push_back_slow_pathIKS1_EEvRT_
N3d:_TypeBuilder_get_IsGenericParameter_m1751799710
MOb:__ZN14ManagerContext17InitializeClassesEv
pza:__ZN19StreamedBinaryWriteILb0EE21TransferSTLStyleArrayINSt3__26vectorI14ConstantStringNS2_9allocatorIS4_EEEEEEvRT_17TransferMetaFlags
Vnb:__ZN18StreamedBinaryReadILb1EE21TransferSTLStyleArrayI31ArrayOfManagedObjectsTransfererEEvRT_17TransferMetaFlags
lph:_Collection_1_System_Collections_ICollection_CopyTo_m787979241_gshared
kyh:_ReadOnlyCollection_1_System_Collections_Generic_ICollectionU3CTU3E_Clear_m1551418550_gshared
$Nj:dynCall_viiiiiiiiii
yMc:_t1_hints_open
JXc:__ZN11UnityEngine15PlatformWrapper24GetVRTrackedAreaGeometryER13dynamic_arrayI8Vector3fLj4EE
vVd:_MonoType_get_AssemblyQualifiedName_m2662925380
M4b:__Z60Register_UnityEngine_Camera_INTERNAL_CALL_WorldToScreenPointv
MCf:_RSACryptoServiceProvider__ctor_m2288290917
Ocf:_BigInteger_GenerateRandom_m3872771375
h7g:__Z75RuntimeInvoker_RuntimeObject_Single_t1397266774_RuntimeObject_RuntimeObjectPFvvEPK10MethodInfoPvPS4_
vx:__ZN4FMOD7Channel11getUserDataEPPv
NHc:_UNITY_tt_face_load_gasp
PNe:_KeyPairPersistence_ProtectMachine_m1313131097
C1e:_Text_set_fontSize_m3617617524
RPc:_ft_ansi_stream_close
mm:_JS_Sound_SetPitch
Qeg:_Thread_FreeLocalSlotValues_m1195763560
VHf:_String_IndexOf_m1977622757
rij:_il2cpp_runtime_invoke_convert_args
s7c:_TouchInputModule_Process_m3715678669
QLg:__Z114RuntimeInvoker_Int32_t2950945753_RuntimeObject_Int32_t2950945753_Int32_t2950945753_RuntimeObject_Int32_t2950945753PFvvEPK10MethodInfoPvPS4_
Nxd:_ArrayList__cctor_m3052737821
bnj:__ZN6il2cpp6icalls8mscorlib6System2IO6MonoIO11GetFileStatEP12Il2CppStringPNS3_8FileStatEPi
rga:__ZN9GfxDevice33InsertCustomMarkerCallbackAndDataEPFviPvEiS0_j
f$c:__ZN11UnityEngine15PlatformWrapper16GenerateRandomIdEv
dDb:__ZNK9ShaderLab9IntShader6GetTagE11ShaderTagIDb
fAd:_BitArray_Set_m2486900776
ozc:__Z13RegisterClassI13BoxCollider2DEvv
EUc:__ZN2UI14CanvasRenderer11SetMaterialEP8Materiali
uJf:_String__ctor_m229724522
aXh:__ZL54AssemblyName_t270931938_CustomAttributesCacheGeneratorP21CustomAttributesCache
HNa:__ZNK13RenderTexture37IsBoundMultisampledOnSecondaryTextureEv
NAj:_GC_freehblk
fwi:_X509ExtensionCollection__ctor_m551870633
_1d:_MethodBuilder_MakeGenericMethod_m2175748754
iCi:_QuickSearch_Search_m3063517397
JLc:_ft_var_get_value_pointer
h3b:__ZN9Scripting35DestroyObjectFromScriptingImmediateEP6Objectb
qtd:_AsyncCallback_Invoke_m3156993048
xLb:__ZNK6Camera48AreVRStereoViewMatricesWithinSingleCullToleranceEv
SUj:_glGetRenderbufferParameteriv__wrapper
qPe:_SymmetricTransform_FinalDecrypt_m1677319445
yKd:_Int32_Equals_m3996243976_AdjustorThunk
U8:__ZN24GenerateTypeTreeTransfer8TransferINSt3__26vectorIN9ShaderLab20SerializedSubProgram12UAVParameterENS1_9allocatorIS5_EEEEEEvRT_PKc17TransferMetaFlags
Dv:__ZN13AudioListener12AddToManagerEv
Ouj:__ZN6il2cpp2os6Thread33UnregisterCurrentThreadForCleanupEv
tXj:_emscripten_glIsRenderbuffer__wrapper
bHc:_otv_Coverage_get_first
PNd:_DirectoryInfo__ctor_m1000259829
TJa:__ZNK20IntermediateRenderer8GetLayerEv
gYj:b132
Myf:_CultureInfo_ConstructInvariant_m3774343375
aVa:__ZN15QualitySettings8TransferI14SafeBinaryReadEEvRT_
qsd:_Array_ClearInternal_m532048538
aCf:_RIPEMD160Managed_HashCore_m2350629432
qof:_DateTime__ctor_m12900168
iHh:_IndexedSet_1_Insert_m1432638049_gshared
QVd:_MulticastDelegate_GetInvocationList_m4256593605
DNh:_Array_FindLast_TisRuntimeObject_m1088586648_gshared
lWe:_Mask_GetModifiedMaterial_m2692272647
pqg:_CullingGroup_t2096318768_marshal_pinvoke_back
Gqj:__ZNSt3__26vectorIN6il2cpp2vm5Image20EmbeddedResourceDataENS_9allocatorIS4_EEE21__push_back_slow_pathIS4_EEvOT_
ZX:__GLOBAL__sub_I_runtime_utilities_0_cpp
pTb:__ZN18BackgroundJobQueue29ScheduleMainThreadJobInternalEPFvPvES0_
xJi:_GUIUtility_EndGUIFromException_m3524906492
EN:__ZN14SerializedFile10ReadObjectEx18ObjectCreationModebPPK8TypeTreePbR6Object
oEi:_Expression_GetFixedWidth_m945658
Heh:_List_1_RemoveAll_m818254423_gshared
VEi:_Literal_Compile_m2228022079
Jxb:__ZN14dynamic_bitset6resizeEjb
TLc:_tt_property_get
ZMf:_Array_InternalArray__ICollection_Contains_TisSlot_t3975888750_m58971838_gshared
eH:__ZN11UnityEngine15CloudWebService10RestClientINS0_23WebRequestRestHeaderMapEE7SetDataEPKhj
P_i:__ZN14dense_hash_mapI10KeyWrapperIPK11Il2CppClassEPKcN6il2cpp5utils11PointerHashIS1_EENS4_14EqualsComparerINSt3__28equal_toIS3_EEEENSC_9allocatorINSC_4pairIKS4_S6_EEEEE15set_deleted_keyERSI_
Wca:__ZN9GfxDevice34SetStencilRefWhenStencilWasSkippedEi
H7e:_X509Certificate2_Reset_m3988214799
UYc:__ZN11UnityEngine7Connect13ConnectConfig20RestoreTimeoutConfigERK13dynamic_arrayIiLj4EEjRS3_
uc:invoke_fi
_Ej:__ZN6il2cpp6icalls8mscorlib6System10Reflection4Emit11TypeBuilder20create_runtime_classEP27Il2CppReflectionTypeBuilderS7_
lEg:_Transform_set_localScale_m3053443106
hL:__ZL21InternalAssertConsolePKcz
sc:invoke_ff
JOe:_RSAManaged_add_KeyGenerated_m3688329863
ZBe:_Enumerator_get_CurrentKey_m3735262888_gshared
Bld:_HashAlgorithm_TransformFinalBlock_m3005451348
NBf:_Guid_NewGuid_m923091018
Dd:_emscripten_glVertexAttrib3f
zbj:__ZN30dense_hashtable_const_iteratorINSt3__24pairIK10KeyWrapperINS1_IPK11Il2CppImageP11Il2CppClassEEEjEES9_17ReflectionMapHashIS8_EN14dense_hash_mapIS9_jSD_NS9_14EqualsComparerINS0_8equal_toIS8_EEEENS0_9allocatorISB_EEE9SelectKeyESI_SK_EppEv
zzj:__ZThn8_N6il2cpp2vm13CachedCCWBaseINS0_13ManagedObjectEE7DestroyEv
nDf:_RSAPKCS1SignatureDeformatter_SetKey_m614724234
mcg:_UnicodeEncoding_GetByteCount_m3498858619
zOf:_Array_InternalArray__ICollection_Remove_TisX509ChainStatus_t133602714_m3635989134_gshared
oGh:_UnityEvent_1_FindMethod_Impl_m555893253_gshared
kOc:__ZN20TextRenderingPrivate8TextMesh11ApplyToMeshEv
JQj:_emscripten_glDrawRangeElements__wrapper
kHa:__Z28scripting_class_is_valuetype17ScriptingClassPtr
iRb:__ZNSt3__25dequeI10InputEventNS_9allocatorIS1_EEE19__add_back_capacityEv
Ota:__ZN13ComputeShader13SetValueParamERKN9ShaderLab16FastPropertyNameEiPKv
L_a:__ZN14BlendShapeDataD2Ev
Upa:__ZL18ProgramUniform3uivPK7ApiGLESjiihPKv
rnd:_RijndaelTransform_Encrypt128_m1940909042
HUd:_MonoEnumInfo_get_Cache_m752167006
kVc:__Z47CanvasRenderer_Set_Custom_PropHasPopInstructionP12Il2CppObjecth
Mvg:_Mesh_get_uv3_m3614955461
Epa:__ZN5Image8SetImageEii13TextureFormatb
RP:__ZN17MessageIdentifier21GetRegisteredMessagesEv
IJ:__Z13RegisterClassI23CloudWebServicesManagerEvv
yqe:_InternalEnumerator_1_get_Current_m3900374024_gshared
pAi:_DelegatePInvokeWrapper_CostDelegate_t1722821004
Pzd:_SynchronizedArrayListWrapper_CopyTo_m2886332653
p2e:_HybridDictionary_Remove_m2295600623
tpj:__GLOBAL__sub_I_Image_cpp
oEf:_SHA512Managed__ctor_m330347986
xQa:__ZNSt3__27__sort5IRPFbRKNS_4pairIN9ShaderLab16FastPropertyNameEfEES6_EPS4_EEjT0_SB_SB_SB_SB_T_
o8f:_List_1_CheckMatch_m1934407508_gshared
BGj:__ZNSt3__26vectorINS_12basic_stringIDsNS_11char_traitsIDsEENS_9allocatorIDsEEEENS4_IS6_EEE8__appendEj
fLe:_Kernel_LeftShift_m3302851050
Wwj:__ZN14dense_hash_mapI10KeyWrapperIPK19Il2CppGenericMethodEP10MethodInfoN6il2cpp8metadata23Il2CppGenericMethodHashENS4_14EqualsComparerINS8_26Il2CppGenericMethodCompareEEENSt3__29allocatorINSD_4pairIKS4_S6_EEEEE15set_deleted_keyERSG_
egb:__Z29Transfer_Blittable_ArrayFieldI14SafeBinaryRead4AABBEvRT_R9ArrayInfoRK23StaticTransferFieldInfo
vmf:_RecordProtocol_SendRecord_m515492272
Ece:_ConfigHandler_ReadProvider_m3620509535
JXi:_Rigidbody2D_get_velocity_Injected_m2170787103
nmi:__ZL56g_UnityEngine_UI_Assembly_CustomAttributesCacheGeneratorP21CustomAttributesCache
v6b:__Z46Register_UnityEngine_RectOffset_get_horizontalv
cRa:__ZN18DelayedCallManager8ClearAllEv
nJg:__Z180RuntimeInvoker_RuntimeObject_RuntimeObject_Int32_t2950945753_RuntimeObject_Int32U26_t1369213839_BooleanU26_t4125257963_BooleanU26_t4125257963_Int32U26_t1369213839_SByte_t1669577662PFvvEPK10MethodInfoPvPS4_
Sac:__Z22Mesh_CUSTOM_HasChannelP12Il2CppObject30InternalScriptingShaderChannel
Olj:__ZN6il2cpp2os8AutoLockD2Ev
UUi:_CanvasGroup_get_interactable_m1362547832
vJb:__ZNK25RenderPrePassObjectSorterclERK16RenderObjectDataS2_
j9d:_ResourceSet_Dispose_m1823973062
rxe:_InternalEnumerator_1_System_Collections_IEnumerator_get_Current_m3537550566_AdjustorThunk
eob:__Z22TransferField_NonArrayI18StreamedBinaryReadILb1EE27Converter_SimpleNativeClassI8GUIStyleEEvRK23StaticTransferFieldInfoR31RuntimeSerializationCommandInfoRT0_
re:_Mix_LoadWAV_RW
Yff:_EncryptedPrivateKeyInfo__ctor_m25839594
CWe:_MaskableGraphic_OnEnable_m846302383
_ra:__Z13IsFloatFormat14GraphicsFormat
Rpi:__ZL84GraphicRaycaster_t2999697109_CustomAttributesCacheGenerator_m_IgnoreReversedGraphicsP21CustomAttributesCache
P1d:_MethodBuilder_Invoke_m3837446660
oxh:_ReadOnlyCollection_1_System_Collections_IList_Clear_m12445504_gshared
Erj:__ZN6il2cpp2gcL12alloc_handleEPNS0_10HandleDataEP12Il2CppObjectb
EUj:_emscripten_glGetAttribLocation__wrapper
Dtg:_Input_GetAxisRaw_m2316819917
AAi:_Enumerator_MoveNext_m55255603
afi:__ZL57SpaceAttribute_t3956583069_CustomAttributesCacheGeneratorP21CustomAttributesCache
V5e:_WebRequest_AddDynamicPrefix_m4246631209
KJb:__Z13InitIndexListR9IndexListj
NQ:__ZL16ReadTypeTreeImplILb1EEbR8TypeTreeRK16TypeTreeIteratorRPKhS6_i
DFj:__ZN6il2cpp6icalls8mscorlib6System11Diagnostics10StackTrace9get_traceEP15Il2CppExceptionib
UHe:_Dictionary_2_set_Item_m3327106492_gshared
Je:_glBlendEquationSeparate
wm:_emscripten_glDeleteVertexArrays
Lga:__ZN13GfxDeviceGLES17SetComputeUniformE12ObjectHandleI18ComputeProgram_TagPvER18ComputeShaderParamjPKv
XVj:b95
dDi:_Parser_IsNameChar_m698176442
_8g:_List_1_RemoveAt_m3459335427_gshared
HWj:_emscripten_glValidateProgram__wrapper
t0b:__ZN13MeshScripting27PrintErrorCantAccessChannelEPK4Mesh30InternalScriptingShaderChannel
OFg:_Vector3_get_sqrMagnitude_m1474274574_AdjustorThunk
Iac:__Z35Renderer_CUSTOM_get_bounds_InjectedP12Il2CppObjectR4AABB
pxi:_GeneralNames_ToString_m489778282
Qe:_emscripten_glUniform3fv
INf:_Array_InternalArray__ICollection_Contains_TisRaycastHit2D_t2279581989_m2733133723_gshared
EEd:_Convert_ToByte_m1442000130
OCf:_RSACryptoServiceProvider_get_KeySize_m2654153358
Amj:__ZN6il2cpp2vm9Exception20GetArgumentExceptionEPKcS3_
smc:__Z29Transfer_Blittable_ArrayFieldI8JSONReadiEvRT_R9ArrayInfoRK23StaticTransferFieldInfo
L7f:_Enumerator_MoveNext_m625797905_AdjustorThunk
snc:__ZN16b2PrismaticJointC2EPK19b2PrismaticJointDef
RUj:_glDrawArrays__wrapper
KC:__ZN9AudioClip27IsFormatSupportedByPlatformERKN4core12basic_stringIcNS0_20StringStorageDefaultIcEEEE
RRa:__ZN29SerializeTraitsForStringTypesIN4core12basic_stringIcNS0_20StringStorageDefaultIcEEEEE8TransferI24GenerateTypeTreeTransferEEvRS4_RT_
F8:__ZN9ShaderLab26SerializedShaderDependency8TransferI24GenerateTypeTreeTransferEEvRT_
oEh:_InvokableCall_3_Invoke_m3141788616_gshared
PBi:_PatternCompiler_EmitUntil_m3644194775
bIc:_UNITY_FT_Match_Size
YNe:_KeyPairPersistence_ToXml_m812591779
cVd:_MonoType_GetFields_internal_m776921855
KXc:__ZN11UnityEngine7Connect14AppUpdateEventC2Ev
H8d:_ResourceReader_Dispose_m3597121875
WGa:__ZN12ImageFilters17RemoveImageFilterERK11ImageFilter
Cqd:_Hashtable_CalcPrime_m550773117
uBg:_RenderTexture_get_width_m2160921386
lne:_InternalEnumerator_1_get_Current_m3073360606_AdjustorThunk
sga:__ZN9GfxDevice31InsertCustomBlitCallbackAndDataEPFviPvER33UnityRenderingExtCustomBlitParams
Oyb:__Z32AddPathRemapsForBuiltinResourcesRKN4core12basic_stringIcNS_20StringStorageDefaultIcEEEE
bMa:__ZN14RenderSettings23VirtualRedirectTransferER24GenerateTypeTreeTransfer
whb:__ZL26Transfer_SimpleNativeClassI17RemapPPtrTransfer17AnimationCurveTplIfELb0EEvRK29SerializationCommandArgumentsR31RuntimeSerializationCommandInfo
dRe:_InputField_set_caretWidth_m707310868
ym:_glDeleteTransformFeedbacks
uBh:_U3CCreateWhereIteratorU3Ec__Iterator1D_1_MoveNext_m612748497_gshared
vf:_JS_WebRequest_Send
Ozj:__ZN6il2cpp2os4Time31GetTicks100NanosecondsMonotonicEv
Mvj:__ZNSt3__26__treeINS_12basic_stringIcNS_11char_traitsIcEENS_9allocatorIcEEEENS_4lessIS6_EENS4_IS6_EEE16__construct_nodeIJRKS6_EEENS_10unique_ptrINS_11__tree_nodeIS6_PvEENS_22__tree_node_destructorINS4_ISH_EEEEEEDpOT_
ONd:_MonoIO_GetFileSystemEntries_m37351365
vGd:_Convert_ToSByte_m516918950
mwg:_MonoBehaviour_print_m330341231
PAg:_ReapplyDrivenProperties_Invoke_m1151937880
qnd:_RijndaelTransform_ECB_m670662322
VUe:_LayoutGroup_OnDisable_m3483954898
n4i:__ZN6il2cpp2vm13MetadataCache21GetFieldInfoFromIndexEj
Gji:__ZL62EventType_t3528516131_CustomAttributesCacheGenerator_mouseDragP21CustomAttributesCache
Czj:__GLOBAL__sub_I_Assembly_cpp_39857
ME:__ZN5physx14PxLightCpuTaskD2Ev
xq:__ZNSt3__26vectorIN4core12basic_stringIcNS1_20StringStorageDefaultIcEEEENS_9allocatorIS5_EEE6assignINS_11__wrap_iterIPS5_EEEENS_9enable_ifIXaasr21__is_forward_iteratorIT_EE5valuesr16is_constructibleIS5_NS_15iterator_traitsISE_E9referenceEEE5valueEvE4typeESE_SE_
hBg:_Vector2_get_zero_m540426400
Ugj:_il2cpp_init
iOg:__Z105RuntimeInvoker_RuntimeObject_RuntimeObject_StreamingContext_t3711869237_ISurrogateSelectorU26_t3801502798PFvvEPK10MethodInfoPvPS4_
URc:__ZNSt3__26__treeIPN2UI14CanvasRendererENS_4lessIS3_EENS_9allocatorIS3_EEE7destroyEPNS_11__tree_nodeIS3_PvEE
Wrc:__Z20b2TestSegmentSegmentRK6b2Vec2S1_S1_S1_RS_Rf
bfa:__ZN13GfxDeviceGLES22UploadTextureSubData2DE9TextureIDPKhiiiiii14GraphicsFormat
uye:_DefaultComparer_Compare_m3648806637_gshared
CBg:_Scene_get_name_m622963475
Hac:__Z35Register_UnityEngine_Screen_get_dpiv
Kkc:__ZN8JSONRead8TransferIxEEvRT_PKc17TransferMetaFlagsb
MBc:__ZN13SpeedTreeWind7AdvanceEbd
Loe:_InternalEnumerator_1_get_Current_m923139215_AdjustorThunk
O1i:__ZN15dense_hashtableINSt3__24pairIK10KeyWrapperIN6il2cpp5utils13dynamic_arrayIPK10Il2CppTypeLj4EEEEPFvvEEESA_NS3_8metadata19Il2CppSignatureHashEN14dense_hash_mapISA_SD_SG_NSA_14EqualsComparerINSF_22Il2CppSignatureCompareEEENS0_9allocatorISE_EEE9SelectKeyESK_SM_E12expand_arrayEjN21dense_hash_map_traits17integral_constantIbLb0EEE
rRf:_Array_FindLastIndex_TisRuntimeObject_m2929523835_gshared
Z1b:__ZN9Transform16SetLocalPositionERK8Vector3f
GXi:_RaycastHit2D_op_Implicit_m653385179
GRb:__ZN10BootConfig4Data12InitFromFileEPPKcjS2_
Apb:__Z15Transfer_StringI18StreamedBinaryReadILb0EELb0EEvRK29SerializationCommandArgumentsR31RuntimeSerializationCommandInfo
jPc:_ft_open_face_internal
LHc:_UNITY_tt_face_free_name
WRe:_InputField_set_selectionAnchorPosition_m68980541
Dqa:__ZN14DataBufferGLES3MapEjjj
QHd:_Int16_System_IConvertible_ToDouble_m1661805412
F$a:__ZN14SpriteRenderer23VirtualRedirectTransferER19StreamedBinaryWriteILb0EE
MVj:_emscripten_glGetShaderiv__wrapper
pUb:__Z13RegisterClassI9TransformEvv
vFi:_Repetition_Compile_m988726715
BM:__ZNK6Camera33CalculateFarPlaneWorldSpaceLengthEv
s2c:_BaseInput_GetButtonDown_m3789908809
deh:_List_1_System_Collections_IList_Insert_m2401407093_gshared
m$d:_EnumBuilder_get_BaseType_m1707640163
xbj:__ZNK15dense_hashtableINSt3__24pairIK10KeyWrapperINS1_IPK11Il2CppImageP11Il2CppClassEEEjEES9_17ReflectionMapHashIS8_EN14dense_hash_mapIS9_jSD_NS9_14EqualsComparerINS0_8equal_toIS8_EEEENS0_9allocatorISB_EEE9SelectKeyESI_SK_E5beginEv
bWj:b98
yDc:_cf2_stack_setReal
xw:__ZN4FMOD3DSP8getInputEiPPS0_PPNS_13DSPConnectionE
oB:__ZN11SoundHandle8Instance13CreateChannelERS_b
wWd:_NumberFormatter_NumberToString_m2529982306
rv:__ZN13AudioListenerD2Ev
uQc:_UNITY_FT_Done_Library
PFj:__ZN6il2cpp2os5MutexC2Eb
gyi:_PKCS12__cctor_m3271060407
Nze:_Comparer_1__cctor_m2282308543_gshared
hUc:__ZN2UI13CanvasManager17EmitDataForCameraEP6Camera
jsc:__Z16b2CollideCirclesP10b2ManifoldPK13b2CircleShapeRK11b2TransformS3_S6_
Tef:_ARC4Managed_CheckInput_m1562172012
E6f:_Enumerator_MoveNext_m4018122760_gshared
VX:___cxx_global_var_init_66
Svi:_TlsStream_ReadBytes_m2334803179
urj:__ZNK15dense_hashtableI10KeyWrapperIP18Il2CppGenericClassES3_N6il2cpp8metadata22Il2CppGenericClassHashEN14dense_hash_setIS3_S6_NS3_14EqualsComparerINS5_25Il2CppGenericClassCompareEEENSt3__29allocatorIS3_EEE8IdentityESA_SD_E23find_position_with_hashERKS3_j
n8b:__Z44Register_UnityEngine_Material_GetTextureImplv
Xyh:_ReadOnlyCollection_1_System_Collections_IList_Add_m2445024939_gshared
Lqg:_Debug_Log_m4051431634
Ebc:__GLOBAL__sub_I_runtime_imgui_0_cpp
XOd:_FileStream_EndRead_m3904255625
ivb:__ZL8MainLoopv
M_b:__ZN17TransformInternal25CopyTransformSubhierarchyER18TransformHierarchyjS1_yyjb
Cfe:_CallContextRemotingData_Clone_m14303327
JVc:__Z47Register_UnityEngine_CanvasRenderer_SetMaterialv
vXj:_emscripten_glIsShader__wrapper
uvc:__ZN19CompositeCollider2D22QueryCompositeColliderEPK10Collider2DPK11Rigidbody2D
qNe:_DSAManaged_get_PublicOnly_m3575594967
WQc:__Z26CleanupTextRenderingModulev
zv:__ZN13AudioListener23VirtualRedirectTransferER24GenerateTypeTreeTransfer
$9a:__ZNK12HandlerChain9EnumerateEPKcP19dynamic_block_arrayI13FileEntryInfoLj32EEbPPv19FileEnumerationFlag
o$a:__ZThn32_N12MeshRendererD1Ev
nNa:__ZN13RenderTexture23VirtualRedirectTransferER19StreamedBinaryWriteILb0EE
Cyj:__ZN6il2cpp2vm13ComObjectBase17GetMarshalSizeMaxERK10Il2CppGuidPvjS5_jPj
PKj:_truncate
x9:__ZN9ShaderLab27SerializedShaderVectorValue8TransferI18StreamedBinaryReadILb0EEEEvRT_
vL:__ZN8Renderer21RendererBecameVisibleEv
pzc:__Z13RegisterClassI18PlatformEffector2DEvv
jKj:___stpncpy
EZ:__ZN10MemoryPool16StaticInitializeEPv
Q3:__ZN11TypeManager21CleanupGlobalInstanceEv
uxf:_Enum_ToString_m2240012010
N:Math_atan
ya:invoke_iifii
_u:__ZNK10SampleClip11GetResourceEv
G5d:_MonoEvent_get_Name_m3774595291
ida:__ZN9GfxDevice15GetStereoMatrixE21MonoOrStereoscopicEye24BuiltinShaderMatrixParamR10Matrix4x4f
JCa:__ZN4core12basic_stringIcNS_20StringStorageDefaultIcEEE6resizeEj
bec:__Z43Register_UnityEngine_Event_set_displayIndexv
cBc:__GLOBAL__sub_I_CmEventProfiler_cpp
XUg:__Z128RuntimeInvoker_RuntimeObject_RuntimeObject_SByte_t1669577662_SByte_t1669577662_SByte_t1669577662_SByte_t1669577662_RuntimeObjectPFvvEPK10MethodInfoPvPS4_
wcg:_UnicodeEncoding_GetMaxByteCount_m3053620432
ife:_ArgInfo__ctor_m1950205784
HBh:_Nullable_1_Equals_m4046255732_AdjustorThunk
AEa:__ZN17GlobalGameManager23VirtualRedirectTransferER24GenerateTypeTreeTransfer
VZc:__ZN19UnityConnectServiceD0Ev
OKi:_ToggleGroup_ValidateToggleIsInGroup_m3201190739
t7i:__ZN6il2cpp2vm7Runtime17GetDelegateInvokeEP11Il2CppClass
hwg:_MonoBehaviour_StartCoroutine_Auto_Internal_m2421197418
OBc:___cxx_global_var_init_128
Y6d:_MonoProperty_get_PropertyType_m4138957578
mIa:__ZNSt3__26vectorIfNS_9allocatorIfEEE8__appendEjRKf
vYc:__ZN11UnityEngine15PlatformWrapper21GetCopyTextureSupportEv
Dpf:_DateTime_get_Month_m1566006993_AdjustorThunk
EMf:_Array_get_swapper_TisRaycastResult_t3360306849_m1267000905_gshared
unf:_SslClientStream__ctor_m3478574780
qC:__ZN11AudioModule27IsFormatSupportedByPlatformEPKc
WOc:_UNITY_FT_Render_Glyph
G_d:_DerivedType_GetFields_m3190137327
duc:__Z14b2PairLessThanRK6b2PairS1_
v3c:_EventSystem_OnDisable_m3820258344
kmc:__Z19TransferField_ArrayI8JSONRead16Converter_StringEvRK23StaticTransferFieldInfoR31RuntimeSerializationCommandInfoRT0_
omd:_MACTripleDES_Setup_m560957914
nYb:__ZZN10MeshFilter15InitializeClassEvEN31FunctorImpl_108kDidAddComponent4CallEPviR11MessageData
l2i:__ZN15dense_hashtableINSt3__24pairIK10KeyWrapperIPK19Il2CppGenericMethodEPK26Il2CppGenericMethodIndicesEES6_N6il2cpp8metadata23Il2CppGenericMethodHashEN14dense_hash_mapIS6_SA_SE_NS6_14EqualsComparerINSD_26Il2CppGenericMethodCompareEEENS0_9allocatorISB_EEE9SelectKeyESI_SK_E6insertERKSB_
Ipc:__ZN15b2WheelJointDef10InitializeEP6b2BodyS1_RK6b2Vec2S4_
DJb:__Z19SetupShadowCullDataRK27ScriptableCullingParametersRK17ShaderReplaceDataPK22SceneCullingParametersf16ShadowProjectionR14ShadowCullData
Pya:__ZNK25ThreadsafeLinearAllocator22GetAllocatedMemorySizeEv
ACc:_cff_size_request
fSc:__ZN2UI11CompareFuncEPNS_6CanvasES1_
nx:__ZN4FMOD7Channel11set3DSpreadEf
jGj:__ZN6il2cpp2os6Memory14AlignedReAllocEPvjj
$He:_Dictionary_2_Resize_m1156965638_gshared
ORa:__ZN24GenerateTypeTreeTransfer16TransferTypelessEPjPKc17TransferMetaFlags
FSf:_Array_InternalArray__IndexOf_TisPlayableBinding_t354260709_m3544096311_gshared
zEf:_SHA512Managed_processLength_m2162821715
Vpa:__ZL18ProgramUniform4uivPK7ApiGLESjiihPKv
Nyg:_Vector3_get_normalized_m2454957984
yeg:_Mutex_CreateMutex_internal_m3763633491
lsi:__ZL74SpriteState_t1362986479_CustomAttributesCacheGenerator_m_HighlightedSpriteP21CustomAttributesCache
nn:FUNCTION_TABLE_viiiiiiiiiiiiiii
X$b:__ZNK4Mesh19CanAccessFromScriptEv
eS:__Z15GetGraphicsCapsv
xsa:__ZN7ApiGLES15BindVertexArrayEN2gl6HandleILNS0_10ObjectTypeE3EEE
QWf:_Dictionary_2_System_Collections_IDictionary_Remove_m316877720_gshared
UGb:__Z20IntersectionAABBAABBRK10MinMaxAABBS1_PS_
dvi:_SslStreamBase_get_SecurityProtocol_m596101988
Agj:__ZNSt3__212basic_stringIcNS_11char_traitsIcEENS_9allocatorIcEEE6__initIPKcEENS_9enable_ifIXsr21__is_forward_iteratorIT_EE5valueEvE4typeESA_SA_
wba:__ZN9ShaderLab20SerializedSubProgram14AddMatrixParamEPKcii15ShaderParamTypei
iSg:__Z121RuntimeInvoker_Void_t1185182177_Int32_t2950945753_Int32_t2950945753_Int32_t2950945753_Int32_t2950945753_Int32_t2950945753PFvvEPK10MethodInfoPvPS4_
RLc:_ft_var_load_item_variation_store
Dnd:_DeriveBytes_set_Salt_m441577179
KGh:_UnityEvent_3_FindMethod_Impl_m1640458315_gshared
bWh:__ZL61ConstructorBuilder_t2813524108_CustomAttributesCacheGeneratorP21CustomAttributesCache
Kcb:__Z18Transfer_BlittableI14SafeBinaryReadLb1EhEvRK29SerializationCommandArgumentsR31RuntimeSerializationCommandInfo
VNi:__ZL25UnresolvedVirtualCall_122P12Il2CppObjectififiPK10MethodInfo
E1e:_Text_get_verticalOverflow_m2420459396
z4:__ZNSt3__224__buffered_inplace_mergeIRNS_4lessIN4core12basic_stringIcNS2_20StringStorageDefaultIcEEEEEENS_11__wrap_iterIPS6_EEEEvT0_SC_SC_T_NS_15iterator_traitsISC_E15difference_typeESG_PNSF_10value_typeE
fc:invoke_viifff
K_:__Z22DestroyObjectHighLevelP6Objectb
rkd:_KeySizes__ctor_m3113946058
fEb:__Z26BeginRenderQueueExtractionR15RenderNodeQueuePK16RendererCullDataRK13CullingOutputPK12LODDataArray15ExtractionFlagsP18JobBatchDispatcher
DOc:__ZNK13TextRendering4Font10GetTextureEv
tj:_emscripten_glVertexAttrib3fv
hfe:_LifetimeServices__cctor_m2128864873
Fjg:_UInt16_TryParse_m3193697465
Tlj:__ZN6il2cpp6icalls8mscorlib6System9Threading6Thread16SetName_internalEP12Il2CppThreadP12Il2CppString
xj:_glBeginTransformFeedback
fuf:_Decimal_op_Division_m2407964042
MRe:_InputField_get_asteriskChar_m965956856
aJa:__ZN18JobBatchDispatcherC2E11JobPriorityi
P$a:__ZThn32_N14SpriteRendererD0Ev
wld:_HashAlgorithm_Create_m644612360
pvc:__ZN23ColliderTilingExtension10IsTilingOnEv
kxg:_Playable_get_Null_m3556999077
IKe:_BigInteger_TestBit_m1507066813
_bc:__ZN8GUIStyle14GetBuiltinFontEv
Ufa:__ZN9GfxDevice13EndFrameStatsEv
WWb:__Z7Empty2DP9Texture2DPhiiii
vJh:_Array_InternalArray__set_Item_TisRefEmitPermissionSet_t484390987_m3786305619_gshared
Vkj:__ZN6il2cpp6icalls8mscorlib6System7Runtime15InteropServices7Marshal19copy_from_unmanagedEiiP11Il2CppArrayi
qv:__ZL34StaticDestroyAudioCustomFilterRootPv
eme:_ArrayReadOnlyList_1_GetEnumerator_m3931906247_gshared
Vta:__ZN19ComputeShaderKernelD2Ev
hZi:__ZN6il2cpp2vmL17SetupEventsLockedEP11Il2CppClassRKNS_2os12FastAutoLockE
qSb:__ZN10systeminfo21GetTemporaryCachePathEv
zXb:__ZZN8Renderer15InitializeClassEvEN28FunctorImpl_138kLayerChanged4CallEPviR11MessageData
WGb:__ZN26LightProbeProxyVolumeCacheC2ER13BatchRendererR15RenderLoopStats
Cfd:_GridLayoutGroup_CalculateLayoutInputVertical_m357562599
Udg:_CompressedStack_Capture_m3327262890
Sbg:_StringBuilder_Replace_m1968561789
eZc:__ZN11UnityEngine7Connect18ConnectSessionInfoD2Ev
pc:invoke_viifffi
bjb:__Z18Transfer_BlittableI24GenerateTypeTreeTransferLb1E10Matrix4x4fEvRK29SerializationCommandArgumentsR31RuntimeSerializationCommandInfo
J6c:_StandaloneInputModule_get_repeatDelay_m1143359059
Hdg:_UTF8Encoding_GetMaxByteCount_m420651053
Hic:__ZN9JSONWrite8TransferI10Matrix4x4fEEvRT_PKc17TransferMetaFlags
iEc:_cf2_hintmap_map
$Jc:_tt_size_select
h9g:_List_1_get_Item_m1651423686_gshared
rIa:__ZNK16GraphicsSettings22GetTypeVirtualInternalEv
Ihg:_Type_get_IsExplicitLayout_m1182254884
Qfb:__ZN15SerializeTraitsI5RectTIfEE8TransferI14SafeBinaryReadEEvRS1_RT_
gza:__ZNK14SerializedFile15GetTypeIfExistsEx
f9b:__Z41Register_UnityEngine_Texture_get_wrapModev
LPc:_UNITY_FT_Raccess_Get_DataOffsets
KL:__ZThn32_NK8Renderer11GetMaterialEi
mbd:_FloatTween_AddOnChangedCallback_m2814315272
Xzj:__ZN6il2cpp6icalls8mscorlib6System7Runtime15InteropServices8GCHandle15GetTargetHandleEP12Il2CppObjectii
Yog:_CameraCallback_Invoke_m3308824940
m1a:__ZN9InputAxis8TransferI18StreamedBinaryReadILb0EEEEvRT_
zK:__ZN13MemoryManager12GetAllocatorE10MemLabelId
Xcf:_BigInteger_ToString_m3260066955
Nca:__ZN9GfxDevice29GetMinimumNodesPerGraphicsJobEv
Bei:__ZL63RuntimePlatform_t4159857903_CustomAttributesCacheGenerator_NaClP21CustomAttributesCache
c_a:__ZN17BlendShapeChannel8TransferI24GenerateTypeTreeTransferEEvRT_
c0e:_Slider__ctor_m873361617
$9d:_GCHandle__ctor_m2690474163_AdjustorThunk
V2:__ZN15DirectorManager17OnSampleFixedTimeEv
XKb:__ZNK13RendererScene21GetDynamicObjectCountEv
lwf:_Double_Parse_m1135962389
gwi:_X509Extension__ctor_m710637961
rqf:_CultureInfo_get_CurrentCulture_m1632690660
kOe:_PKCS1_OS2IP_m65970018
Hk:_Mix_HaltMusic
nvh:_ReadOnlyCollection_1_System_Collections_IList_set_Item_m70952451_gshared
H4a:__ZNSt3__26vectorIN30RuntimeInitializeOnLoadManager9ClassInfoE13stl_allocatorIS2_L18MemLabelIdentifier13ELi16EEE8__appendEj
Jjb:__ZN24GenerateTypeTreeTransfer32TransferSTLStyleArrayWithElementI23ManagedObjectTransfererEEvRT_17TransferMetaFlags
Cwj:__ZN6il2cpp6icalls8mscorlib6System11Environment12get_PlatformEv
l4e:_HttpWebRequest__cctor_m1467954389
Aif:_CipherSuiteCollection_System_Collections_IList_Remove_m2463347416
Xsh:_ReadOnlyCollection_1_System_Collections_IList_RemoveAt_m1980090087_gshared
bug:_DefaultValueAttribute_GetHashCode_m3368187153
vGj:__ZN6il2cpp6icalls8mscorlib6System7Runtime8Remoting16RemotingServices16GetVirtualMethodEP20Il2CppReflectionTypeP22Il2CppReflectionMethod
j4b:__Z42Register_UnityEngine_Behaviour_get_enabledv
Nui:_SslStreamBase_EndNegotiateHandshake_m1124299797
wui:_SslStreamBase__ctor_m3009266308
Cfj:__ZN6il2cpp2vm14TypeNameParser23ParseNestedTypeOptionalERi
sgg:_TimeSpan_get_Seconds_m1883479191_AdjustorThunk
VFj:__ZN6il2cpp2os13FastMutexImplC2Ev
G9d:_RuntimeHelpers_InitializeArray_m4077124945
E4a:__ZN30RuntimeInitializeOnLoadManager9ClassInfo8TransferI14SafeBinaryReadEEvRT_
ddf:_BigInteger_op_Equality_m1194739960
cdg:_UTF7Encoding_GetCharCount_m2792854727
pHb:__ZL13RenderCastersiRK8Vector3fS1_RK13ShadowJobDataR17ShaderPassContextRKNSt3__26vectorI16ShadowCasterData13stl_allocatorIS9_L18MemLabelIdentifier2ELi16EEEERKNS8_I20ShadowCasterPartDataSA_ISG_LSB_2ELi16EEEERK15RenderNodeQueuebPKj
sl:_emscripten_glGetShaderInfoLog
D1e:_Text_get_horizontalOverflow_m4155575610
Gke:_ObjectReader_RecordFixup_m4125245357
fIc:_UNITY_ft_glyphslot_set_bitmap
nvc:__ZN14b2PolygonShape3SetEPK6b2Vec2i
Hl:_glUniform1i
sSe:_InputField_Validate_m4147207871
vSb:__ZN6prcoreL11inner_clearILj3EEEvPhjjj
wyf:_CCGregorianCalendar_dmy_from_fixed_m494173177
ich:_List_1_System_Collections_IList_IndexOf_m3211997095_gshared
uV:__Z29FindReflectionProbeFromAnchorP9TransformRK4AABBRS1_RsS5_
Vvd:_Byte_System_IConvertible_ToUInt64_m371883985_AdjustorThunk
xKc:_Read_CVT_Stretched
i6i:__ZN6il2cpp6icalls8mscorlib6System18CollectTypeMethodsINS_5utils10functional10TrueFilterEEEvP11Il2CppClassPKS7_jRKT_RNSt3__26vectorIPK10MethodInfoNSE_9allocatorISI_EEEERA65535_b
rvb:__Z14SetPlayerPause11PlayerPauseb
EAd:_CollectionBase_System_Collections_ICollection_CopyTo_m2850099809
yuh:_ReadOnlyCollection_1_System_Collections_IEnumerable_GetEnumerator_m3042843502_gshared
X6c:_StandaloneInputModule_ActivateModule_m2232892298
hae:_GCHandle_Free_m1457699368_AdjustorThunk
_eg:_Thread_get_CurrentUICulture_m1397429997
lVi:_CanvasRenderer_SetAlphaTexture_m2009567627
_Ec:_cff_done_blend
Red:_Graphic_RegisterDirtyLayoutCallback_m1235519898
uO:__Z30scripting_stack_trace_info_for21ScriptingExceptionPtrR14StackTraceInfo
sFg:_Vector2_op_Inequality_m3858779880
FPj:_glCompressedTexSubImage3D__wrapper
W$e:_Selectable_Select_m1465131241
Ybj:__ZN15dense_hashtableINSt3__24pairIK10KeyWrapperINS1_IPK12PropertyInfoP11Il2CppClassEEEjEES9_17ReflectionMapHashIS8_EN14dense_hash_mapIS9_jSD_NS9_14EqualsComparerINS0_8equal_toIS8_EEEENS0_9allocatorISB_EEE9SelectKeyESI_SK_EC2ERKSN_j
Hw:__ZN15AudioReverbZone7CleanupEv
xca:__ZN10BufferGLESD0Ev
Zub:__Z20scripting_gc_disablev
ruj:__GLOBAL__sub_I_Thread_cpp_39344
Dtd:_Attribute_IsDefined_m1430686743
zcf:_IntervalCollection_Optimize_m161975983
fad:__Z9NullCheckPv
mmg:_Version__ctor_m417728625
D3:__ZN16memory_pool_implILi68EE15AutoPoolWrapper10InitializeEPv
JEd:_Convert_ToByte_m3567528984
irc:__ZNK14b2PolygonShape9TestPointERK11b2TransformRK6b2Vec2
ADh:_InvokableCall_1_Invoke_m3497872319_gshared
uqc:__ZN22FindParticleCollisions22ProcessFoundCollisionsERKfRK13dynamic_arrayI15BatchedRaycastsLj4EERS2_I20BatchedRaycastResultLj4EERS2_I21BatchedColliderResultLj4EE
CIe:_Level2MapComparer__cctor_m1866197409
mpb:__Z29Transfer_Blittable_ArrayFieldI18StreamedBinaryReadILb1EEfEvRT_R9ArrayInfoRK23StaticTransferFieldInfo
Fmf:_RecordProtocol_ReadRecordBuffer_m180543381
iAe:_Enumerator_get_CurrentKey_m2230405065_AdjustorThunk
Zzd:_BitArray__ctor_m2765908219
DLf:_StringComparer_get_InvariantCultureIgnoreCase_m2404489191
gSi:_Font_get_material_m1471867149
Rzj:__ZN6il2cpp6icalls8mscorlib6System7Runtime16CompilerServices14RuntimeHelpers15InitializeArrayEP11Il2CppArrayi
Zde:_Context_Freeze_m2594571993
l$c:__ZZN18UnityConnectClient23RegisterGlobalCallbacksEvEN46EarlyUpdateUnityConnectClientUpdateRegistrator7ForwardEv
Mtc:__ZN16b2ContactManager7CollideEv
xad:_ContentSizeFitter_HandleSelfFittingAlongAxis_m3992075504
AUf:_Array_InternalArray__ICollection_CopyTo_TisInt32_t2950945753_m3102754797_gshared
Fyg:_Quaternion_ToString_m2203056442
p_d:_ModuleBuilder_GetTokenGenerator_m4177350090
l_a:__ZN10Matrix4x4f8TransferI18StreamedBinaryReadILb0EEEEvRT_
efg:_Thread_Start_m2860771284
hhh:_List_1_AddEnumerable_m2295992518_gshared
GA:__ZN4FMOD7Channel19getReverbPropertiesEP29FMOD_REVERB_CHANNELPROPERTIES
hKb:__ZL23NormalizeRobustInternalRK8Vector3fRfS2_f
RBc:__GLOBAL__sub_I_modules_terrain_public_2_cpp
nRe:_InputField_get_selectionColor_m2548343601
TSf:_Array_LastIndexOf_TisRuntimeObject_m2701366436_gshared
_5i:__ZN6il2cpp6icalls8mscorlib6System8MonoType13GetInterfacesEP20Il2CppReflectionType
OH:__ZN11UnityEngine15CloudWebService25WebRequestDownloadHandler7OnAbortEv
RAb:__ZN6Camera12CustomRenderER11CullResultsR17ShaderPassContextPK21CameraRenderingParamsNS_10RenderFlagEPNS_21PerformRenderFunctionEPFvvE
Y6e:_PublicKey_GetUnsignedBigInteger_m3873409673
Muj:__ZN6il2cpp2os6Thread22SetNativeThreadCleanupEPFvPvE
V2f:_GenericEqualityComparer_1_Equals_m2669134646_gshared
M3b:__Z35Application_Get_Custom_PropPlatformv
hhj:_il2cpp_class_from_system_type
vid:_RuntimeMethodHandle__ctor_m2867240657
asb:__ZN4core8hash_mapINS_12basic_stringIcNS_20StringStorageDefaultIcEEEEiNS_4hashIS4_EENSt3__28equal_toIS4_EEE6insertERKNS7_4pairIKS4_iEE
hn:FUNCTION_TABLE_vdd
Iib:__Z18Transfer_BlittableI24GenerateTypeTreeTransferLb1E10ColorRGBAfEvRK29SerializationCommandArgumentsR31RuntimeSerializationCommandInfo
qoa:__ZN6prcoreL17RemapGenericFloatI18TexFormatRGBAFloat16TexFormatRGFloatEEvPKNS_9InnerInfoE
z5i:__ZN6il2cpp6icalls8mscorlib6System8MonoType8get_NameEP20Il2CppReflectionType
VJe:_SimpleCollator_LastIndexOf_m2130553617
ffb:__ZNSt3__26vectorI10RectOffset13stl_allocatorIS1_L18MemLabelIdentifier1ELi16EEE8__appendEj
iye:_DefaultComparer_Compare_m1920986590_gshared
bhg:_TimeSpan_op_Equality_m1999885032
fvi:_SslStreamBase_get_ServerCertificates_m2154373069
cqj:__ZN6il2cpp2vmL29AddTypeToNametoClassHashTableEPK11Il2CppImagei
Jdg:_UTF8Encoding_GetDecoder_m2951334655
$o:FUNCTION_TABLE_ff
bp:FUNCTION_TABLE_fi
kDg:_Time_set_timeScale_m1127545364
lJd:_NumberFormatter_ZeroTrimEnd_m3065471008
kFh:_UnityAction_2_Invoke_m2304474703_gshared
nod:_X509Certificate_get_DSA_m1760272844
Zeg:_Thread_get_CurrentCulture_m349116646
Seg:_Thread_Thread_internal_m4184414727
wd:_emscripten_glGetAttribLocation
xzb:__ZZ23InitPlayerLoopCallbacksvEN39PostLateUpdateResetInputAxisRegistrator7ForwardEv
sz:__ZN4FMOD12ChannelGroup14getParentGroupEPPS0_
Ad:_emscripten_set_blur_callback
Rkh:_Collection_1_IsValidItem_m1475436662_gshared
fma:__ZNK14ImageReference9ClipImageEiiii
pYb:__ZN4MeshC2E10MemLabelId18ObjectCreationMode
_Hb:__ZN10Matrix4x4f30SetPositionAndOrthoNormalBasisERK8Vector3fS2_S2_S2_
rya:__ZN5RectTIfE8TransferI24GenerateTypeTreeTransferEEvRT_
cad:_ColorBlock_Equals_m518833916
Ztj:__ZN6il2cpp6icalls8mscorlib6System4Enum8ToObjectEP20Il2CppReflectionTypeP12Il2CppObject
sKh:_Array_qsort_TisUIVertex_t4057497605_m4120916435_gshared
fCb:__ZN12FlareManager6UpdateEv
Vnj:__ZN6il2cpp6icalls8mscorlib6System4Type29GetGenericTypeDefinition_implEP20Il2CppReflectionType
i2a:__ZN27GenericSlowGarbageCollector16ProcessReferenceEi
dXf:_Dictionary_2_get_Item_m1749337561_gshared
iqg:__ZN21InterfaceFuncInvoker5I19CSSSize_t3377836552ififiE6InvokeEjP11Il2CppClassP12Il2CppObjectififi
cde:_LifetimeServices_set_SponsorshipTimeout_m2538334028
pLh:_Array_Sort_TisCustomAttributeTypedArgument_t2723150157_m3248988944_gshared
EJj:_fopen
aba:__ZN20GpuProgramParameters15AddTextureParamEPKciib16TextureDimensionP16PropertyNamesSet
kQc:__ZN20TextRenderingPrivate8FontImplD2Ev
BJ:__ZN19CloudServiceHandler8SaveFileERKN4core12basic_stringIcNS0_20StringStorageDefaultIcEEEEPKvj
zmj:__ZN6il2cpp2vm9Exception5RaiseEib
vAj:_GC_init
nVd:_MonoType_IsPointerImpl_m3340652279
iSj:_glFramebufferTexture2D__wrapper
jHj:__ZN6il2cpp6icalls8mscorlib6System7Runtime8Remoting7Proxies9RealProxy27InternalGetTransparentProxyEP12Il2CppObjectP12Il2CppString
tvj:__ZN6il2cpp2vm6Method10IsInflatedEPK10MethodInfo
Uzj:__ZNK6il2cpp8metadata14Il2CppTypeLessclEPK10Il2CppTypeS4_
RAj:_GC_remove_header
tKa:__ZL17InstanceBufferJobIN10Instancing14RenderLoopArgsEEvP21InstanceBufferJobDataIT_E
w4a:__ZNSt3__26vectorIi13stl_allocatorIiL18MemLabelIdentifier13ELi16EEE8__appendEj
QXe:_ReflectionMethodsCache__ctor_m3826472948
The:_ReturnMessage_get_OutArgs_m1641976511
Tee:_SynchronizationAttribute_IsContextOK_m324067792
ptj:__ZN6il2cpp2vm6Object6IsInstEP12Il2CppObjectP11Il2CppClass
Ulb:__Z19TransferField_ArrayI19StreamedBinaryWriteILb0EE27Converter_UnityEngineObjectEvRK23StaticTransferFieldInfoR31RuntimeSerializationCommandInfoRT0_
wwc:__ZN10ClipperLib7Clipper15AddLocalMinPolyEPNS_5TEdgeES2_RKNS_8IntPointE
_6i:_RemoteSettings_CallOnUpdate_m2821567430
mFe:_Enumerator_Dispose_m3503748991_gshared
Xia:__Z16GetMSAALevelDesc9MSAALevel
Lxf:_Environment_GetMachineConfigPath_m43519138
Xre:_InternalEnumerator_1_System_Collections_IEnumerator_get_Current_m4203917072_gshared
ttf:_Decimal_decimal2Int64_m2102545213
eBb:__ZN8Renderer27EnsureTransformInfoUpToDateEv
TWj:_emscripten_glFrontFace__wrapper
hWf:_Dictionary_2_System_Collections_ICollection_CopyTo_m534867526_gshared
Na:invoke_fiffi
HQ:__ZN14SerializedFile14SerializedType8ReadTypeILb1EEEbibRPKhS3_Pi
hEh:_InvokableCall_1_Invoke_m1160628299_gshared
H2c:_ExecuteEvents_get_pointerEnterHandler_m1185301724
Lui:_InternalAsyncResult__ctor_m2194591319
l_:__ZN13RuntimeStaticI12GraphicsCapsLb0EE16StaticInitializeEPv
CYa:__ZN9Texture3D17UploadToGfxDeviceEv
Ujc:__Z18Transfer_BlittableI8JSONReadLb1E8Vector4fEvRK29SerializationCommandArgumentsR31RuntimeSerializationCommandInfo
lJc:_tt_cmap2_validate
oFc:_cff_cmap_unicode_done
$ae:_ActivationServices_CreateProxyFromAttributes_m3864561181
mGf:_SecurityPermission_Cast_m2392017566
Pub:__ZN9Scripting20SendScriptingMessageER10GameObjectPKc18ScriptingObjectPtr
gWg:__Z67RuntimeInvoker_Void_t1185182177_Scene_t2348375561_Int32_t2950945753PFvvEPK10MethodInfoPvPS4_
nvb:__Z26IsSplashScreenFadeCompletev
K4b:__Z42Register_UnityEngine_Camera_get_clearFlagsv
a6i:__ZNSt3__26__treeIP11Il2CppClassNS_4lessIS2_EENS_9allocatorIS2_EEED2Ev
R0e:_Slider_FindSelectableOnRight_m3576909722
oOb:__ZN13RenderManager27UpdatePreviousFrameMatricesEv
dnb:__Z35Transfer_Blittable_FixedBufferFieldI18StreamedBinaryReadILb1EExEvRK29SerializationCommandArgumentsR31RuntimeSerializationCommandInfo
HNh:_Array_InternalArray__get_Item_TisByte_t1134296376_m3566214066_gshared
w$:__Z22SetManagerPtrInContextiP6Object
f3a:__ZN14PlayerSettings8TransferI19StreamedBinaryWriteILb0EEEEvRT_
Ejc:__Z18Transfer_BlittableI8JSONReadLb0E10ColorRGBAfEvRK29SerializationCommandArgumentsR31RuntimeSerializationCommandInfo
Syf:_NumberFormatInfo_set_NumberNegativePattern_m1999304795
afh:_List_1_System_Collections_IList_Insert_m2238786360_gshared
A0d:_GenericTypeParameterBuilder_IsSubclassOf_m2266644074
e2i:__ZN15dense_hashtableINSt3__24pairIK10KeyWrapperIN6il2cpp5utils13dynamic_arrayIPK10Il2CppTypeLj4EEEEPFvvEEESA_NS3_8metadata19Il2CppSignatureHashEN14dense_hash_mapISA_SD_SG_NSA_14EqualsComparerINSF_22Il2CppSignatureCompareEEENS0_9allocatorISE_EEE9SelectKeyESK_SM_E14squash_deletedEv
pzf:_CompareInfo_ToString_m2684143229
O1:__ZN15DirectorManagerD2Ev
q0e:_Slider_get_maxValue_m414465787
Oaj:__ZN15dense_hashtableINSt3__24pairIK10KeyWrapperINS1_IPK10MethodInfoP11Il2CppClassEEEjEES9_17ReflectionMapHashIS8_EN14dense_hash_mapIS9_jSD_NS9_14EqualsComparerINS0_8equal_toIS8_EEEENS0_9allocatorISB_EEE9SelectKeyESI_SK_E9copy_fromERKSN_j
d9e:_X509CertificateEnumerator_System_Collections_IEnumerator_get_Current_m4218613192
eWb:__ZNK30SpriteRendererAnimationBinding15GenerateBindingERKN4core12basic_stringIcNS0_20StringStorageDefaultIcEEEEbRN11UnityEngine9Animation14GenericBindingE
LYe:_Scrollbar_set_direction_m473480640
Ecg:_UTF32Encoding__ctor_m1635603592
OFi:_Uri_IsPredefinedScheme_m1188665625
n$c:__ZN18UnityConnectClient13StaticDestroyEv
foj:__ZN6il2cpp6icalls8mscorlib6System13Globalization11CultureInfo45construct_internal_locale_from_current_localeEP17Il2CppCultureInfo
iVf:_Array_InternalArray__ICollection_CopyTo_TisUIVertex_t4057497605_m487823430_gshared
S6i:_SessionStateChanged_Invoke_m1365949269
lua:__ZN15TextureTFMethod16BindForRenderingEj
dli:__ZL49Canvas_t3310196443_CustomAttributesCacheGeneratorP21CustomAttributesCache
cie:_SoapMethodAttribute_SetReflectionObject_m503748123
JBf:_Guid_Equals_m3683678873_AdjustorThunk
dqj:__ZN15dense_hashtableINSt3__24pairIK10KeyWrapperINS1_IPKcS4_EEEiEES6_24NamespaceAndNamePairHashN14dense_hash_mapIS6_iS9_NS6_14EqualsComparerI26NamespaceAndNamePairEqualsEENS0_9allocatorIS8_EEE9SelectKeyESD_SF_E4findERS7_
$Nc:__ZN20TextRenderingPrivate8FontImpl13CharacterInfo8TransferI19StreamedBinaryWriteILb0EEEEvRT_
r4i:__ZN6il2cpp2os19SocketHandleWrapper7ReleaseEv
hng:_BeforeRenderHelper_Invoke_m50072094
xge:_MethodCall_get_MethodBase_m550047245
V1a:__ZNSt3__27__sort4IRNS_6__lessINS_4pairIPKN5Unity4TypeE7Hash128EES8_EEPS8_EEjT0_SC_SC_SC_T_
q0b:__Z33AllocExtractMeshIndicesFromScriptRK4Meshib
v7e:_X509Certificate2_get_PrivateKey_m450647294
pca:__ZNK11NamedObject22GetTypeVirtualInternalEv
EFi:_Uri_EscapeString_m2061933484
bte:_InternalEnumerator_1_System_Collections_IEnumerator_get_Current_m1096730143_gshared
oFd:_Convert_ToDecimal_m3815908452
xpg:_Color_op_Equality_m1112359053
npg:_Color__ctor_m286683560_AdjustorThunk
vPd:_DelegatePInvokeWrapper_ReadDelegate_t714865915
UAd:_CollectionBase_Clear_m1509125218
Edc:__ZN11IMGUIModule21QueryGUIDisplayTargetE17ScriptingClassPtr
g1i:__ZNSt3__27__sort4IRN6il2cpp5utils11collections13ArrayValueMapIPK10Il2CppType17Il2CppInteropData26InteropDataToTypeConverterNS1_8metadata14Il2CppTypeLessENSA_26Il2CppTypeEqualityComparerEE12SortComparerEPS8_EEjT0_SH_SH_SH_T_
fNj:dynCall_vidi
wRd:_StreamReader_ReadToEnd_m371831293
Xug:_Mathf_RoundToInt_m1874334613
pUd:_MonoCustomAttrs_GetCustomAttributes_m1775925192
Y5b:__Z42NoAllocHelpers_CUSTOM_ExtractArrayFromListP12Il2CppObject
HQj:_glVertexAttribPointer__wrapper
Uld:_HMAC_Create_m2148924157
SMj:___udivdi3
Uxf:_Exception__ctor_m1406832249
c6f:_Enumerator_System_Collections_IEnumerator_get_Current_m2339378585_gshared
s2b:__ZN11PlayerPrefs9SetStringERKN4core12basic_stringIcNS0_20StringStorageDefaultIcEEEES6_
KDj:__ZN6il2cpp6icalls8mscorlib6System8Delegate18SetMulticastInvokeEP14Il2CppDelegate
drc:__ZL18b2FindIncidentEdgeP12b2ClipVertexPK14b2PolygonShapeRK11b2TransformiS3_S6_
yia:__ZN4gles16CreateBlendStateER15DeviceStateGLESRK13GfxBlendState
iw:__ZN9AudioClip6ReloadEv
tYb:__ZN8Material12CleanupClassEv
SJj:_fseek
cCc:__ZN16memory_pool_implILi40EE15AutoPoolWrapper10InitializeEPv
dib:__Z22TransferField_NonArrayI17RemapPPtrTransfer27Converter_SimpleNativeClassI10RectOffsetEEvRK23StaticTransferFieldInfoR31RuntimeSerializationCommandInfoRT0_
jpf:_DateTimeFormatInfo_GetEraName_m3151483707
gQe:_PKCS12_AddCertificate_m3618696508
KA:__ZN20SoundChannelInstance11set3DSpreadEf
U3f:_HashSet_1_Init_m2976925848_gshared
xzd:_SynchronizedArrayListWrapper_set_Item_m1979747874
ZGd:_Convert_ToUInt32_m2215525276
X2a:__ZN24GenerateTypeTreeTransfer32TransferSTLStyleArrayWithElementI16SplashScreenLogoEEvRT_17TransferMetaFlags
m9i:__ZN15dense_hashtableINSt3__24pairIK10KeyWrapperINS1_IPK9FieldInfoP11Il2CppClassEEEjEES9_17ReflectionMapHashIS8_EN14dense_hash_mapIS9_jSD_NS9_14EqualsComparerINS0_8equal_toIS8_EEEENS0_9allocatorISB_EEE9SelectKeyESI_SK_E6insertERKSB_
ure:_InternalEnumerator_1_get_Current_m2680116177_gshared
k$i:__ZN14dense_hash_mapI10KeyWrapperIPKcEP11Il2CppClassN6il2cpp5utils11StringUtils12StringHasherIS2_EENS3_14EqualsComparerINS7_13VmStringUtils21CaseSensitiveComparerEEENSt3__29allocatorINSF_4pairIKS3_S5_EEEEEC2EjRKSA_RKSE_
V0:__Z37InitializeIntermediateRendererManagerPv
Enj:__ZN6il2cpp2vm13LivenessState16AddProcessObjectEP12Il2CppObjectPS1_
vKf:_String_IndexOfOrdinal_m962178384
D2i:__ZN6il2cpp2vm13MetadataCache34GetTypeInfoFromTypeDefinitionIndexEi
Vld:_HMACMD5__ctor_m3129799368
P$d:_TypeBuilder_GetEvent_m2166527753
Ned:_Graphic_CrossFadeColor_m678806803
j_:__ZN23DefaultMeshVertexFormatC2E17ShaderChannelMask
ynb:__ZL26Transfer_SimpleNativeClassI18StreamedBinaryReadILb1EE8GradientLb1EEvRK29SerializationCommandArgumentsR31RuntimeSerializationCommandInfo
wPg:__Z102RuntimeInvoker_Int32_t2950945753_RuntimeObject_Int32_t2950945753_CharU26_t1697032762_SByte_t1669577662PFvvEPK10MethodInfoPvPS4_
PYc:__ZN20UnityConnectSettings14GetCloudUserIdEv
EVd:_MonoType_get_Namespace_m2015358851
jHh:_IndexedSet_1_RemoveAt_m3002732320_gshared
sCd:_HashKeys_CopyTo_m4219627824
OQe:_InputField_GetLineStartPosition_m2947412579
Aia:__ZN7ApiGLES10InvalidateERK14GfxContextGLES
Xtd:_Convert_ToType_m2406080310
Dxh:_ReadOnlyCollection_1_IndexOf_m2659941036_gshared
Xwh:_ReadOnlyCollection_1_System_Collections_IList_set_Item_m3570269385_gshared
Hbd:_DefaultControls_CreateToggle_m1236643913
JMe:_BitConverterLE_ToSingle_m1153793442
SFj:__ZN6il2cpp2os5Mutex7TryLockEjb
IHd:_Int16_System_IConvertible_ToByte_m3161982419
XU:__Z20IsVectorBuiltinParamPKcPi
Rsj:__ZN6il2cpp2vm5Field8GetFlagsEP9FieldInfo
Emd:_MD5CryptoServiceProvider_HashFinal_m2625727830
lKh:_Array_qsort_TisRaycastResult_t3360306849_m3861320071_gshared
QIf:_Single_System_IConvertible_ToUInt32_m289030200
$7b:__Z58Register_UnityEngine_SceneManagement_Scene_GetNameInternalv
Lvf:_Double_System_IConvertible_ToDouble_m3692611612
jQ:__Z13IsFileCreatedRKN4core12basic_stringIcNS_20StringStorageDefaultIcEEEE
P1e:_Text_OnPopulateMesh_m1525268284
GOd:_FileStream_FlushBuffer_m914568182
aUa:__ZN16LightmapSettings18TransferDeprecatedI14SafeBinaryReadEEvRT_
N0a:__ZN8Renderer11SetMaterialE4PPtrI8MaterialEi
bcg:_StringBuilder_AppendFormat_m921870684
Nsj:__ZN15dense_hashtableINSt3__24pairIK10KeyWrapperIP12Il2CppObjectEN6il2cpp2gc9CachedCCWEEES5_NS7_5utils11PointerHashIS3_EEN14dense_hash_mapIS5_S9_SD_NS5_14EqualsComparerINS0_8equal_toIS4_EEEENS0_9allocatorISA_EEE9SelectKeyESI_SK_E5eraseE30dense_hashtable_const_iteratorISA_S5_SD_SM_SI_SK_E
vBd:_Hashtable__ctor_m1684344284
cqd:_Activator_CheckAbstractType_m2015247896
YCf:_RSACryptoServiceProvider_ImportParameters_m614616705
KX:__GLOBAL__sub_I_runtime_camera_renderloops_1_cpp
vui:_SslHandshakeHash_CreateSignature_m1634235041
ECe:_ShimEnumerator_get_Current_m3504536618_gshared
kIa:__ZN12FlareManager9AddCameraER6Camera
v0c:__ZN15UnityWebRequestD0Ev
nYd:_AssemblyName_ComputePublicKeyToken_m824893834
BB:__ZN11AudioSource8TransferI14SafeBinaryReadEEvRT_
qOd:_FileNotFoundException__ctor_m2477162036
k$f:_EqualityComparer_1__cctor_m149356781_gshared
Usf:_Decimal_System_IConvertible_ToDouble_m3125524987
lqb:__Z18Transfer_BlittableI18StreamedBinaryReadILb0EELb0E12PropertyNameEvRK29SerializationCommandArgumentsR31RuntimeSerializationCommandInfo
Zvc:__ZTv0_n12_N10ClipperLib7ClipperD0Ev
jaa:__ZN9ShaderLab9IntShader26CreateFromSerializedShaderERKNS_16SerializedShaderERNSt3__26vectorI4PPtrI6ShaderENS4_9allocatorIS8_EEEEbPS7_
QAi:_Match_get_Empty_m2060287462
Ybb:__ZN19ShaderPropertySheet16SetComputeBufferEN9ShaderLab16FastPropertyNameE15ComputeBufferIDNS_8SetFlagsE
Fwg:_U3CInvokeMessageIdSubscribersU3Ec__AnonStorey0_U3CU3Em__0_m444206473
qXf:_Dictionary_2_ContainsValue_m256968015_gshared
exj:__ZNK15dense_hashtableINSt3__24pairIK10KeyWrapperIPK19Il2CppGenericMethodEP10MethodInfoEES6_N6il2cpp8metadata23Il2CppGenericMethodHashEN14dense_hash_mapIS6_S9_SD_NS6_14EqualsComparerINSC_26Il2CppGenericMethodCompareEEENS0_9allocatorISA_EEE9SelectKeyESH_SJ_E5beginEv
Yle:_ArrayReadOnlyList_1_get_Item_m1974867852_gshared
Igd:_Image_AddQuad_m969836764
QIe:_MSCompatUnicodeTable_IsIgnorableNonSpacing_m47098938
Eqh:_Collection_1_IsSynchronized_m2655903966_gshared
mKd:_Int32_System_IConvertible_ToSingle_m896140682_AdjustorThunk
nLb:__ZL12CullGroupJobP20CullingGroupsJobDataj
nBj:_GC_remove_dangling_disappearing_links
pI:__ZN11UnityEngine15CloudWebService14RestDownloader9IsAbortedEv
uec:__Z30GUIStyle_CUSTOM_SetDefaultFontP12Il2CppObject
CAe:_Enumerator_System_Collections_IDictionaryEnumerator_get_Key_m3435754782_AdjustorThunk
po:FUNCTION_TABLE_f
ep:FUNCTION_TABLE_i
PDi:_AnchorInfo_get_Position_m1133366486
uRd:_StreamReader_FindNextEOL_m2574298119
U3:__ZN11TypeManager12RegisterTypeERK20TypeRegistrationDesc
In:FUNCTION_TABLE_v
SZa:__ZNSt3__26vectorI17BlendShapeChannelNS_9allocatorIS1_EEE8__appendEj
Op:__ZN18StreamedBinaryReadILb0EE21TransferSTLStyleArrayI13dynamic_arrayI8Vector3fLj4EEEEvRT_17TransferMetaFlags
Dzb:__ZZ23InitPlayerLoopCallbacksvEN43PostLateUpdateUpdateAllRenderersRegistrator7ForwardEv
Y5a:__ZN21LightProbeProxyVolume13GetRenderDataER27LightProbeProxyVolumeSample
zde:_Context_get_ContextProperties_m3283598326
Hmh:_Collection_1_System_Collections_IList_set_Item_m4249768453_gshared
B1a:__ZN11TimeManager8TransferI24GenerateTypeTreeTransferEEvRT_
lgc:__ZN8JSONRead8TransferItEEvRT_PKc17TransferMetaFlagsb
_fj:__ZN6il2cpp2vm17TypeNameParseInfoC2ERKS1_
RZc:__ZN18UnityConnectClient17InitConnectClientEv
uIj:_memcmp
AHd:_GuidParser_ParseHexPrefix_m3148550086
KYc:__ZN11UnityEngine7Connect18ConnectSessionInfo8TransferER9JSONWrite
uE:__Z74Register_UnityEngine_AudioListener_INTERNAL_CALL_ReadExtensionPropertyNamev
RJh:_Array_InternalArray__set_Item_TisHitInfo_t3229609740_m1576844560_gshared
R0a:__ZN9Scripting32GetCachedPtrFromScriptingWrapperE18ScriptingObjectPtr
Lnf:_SslClientStream_OnBeginNegotiateHandshake_m3734240069
GTc:__ZN2UI29ScheduleUIJobsForInstructionsERNS_7BatchesEjPKNS_13UIInstructionEfjjPNS_13CanvasJobDataE
fz:__ZN5audio5mixer22CreateAudioMixerMemoryERKNS0_18AudioMixerConstantEPN4FMOD6SystemERN7mecanim6memory9AllocatorEib
qtb:__ZL65EmitSerializationCommandsForLinearCollectionOfManagedObjectsFieldRK31TransferFunctionScriptingTraitsRK23TransferArrayField_InfoR20SerializationCommandR32SerializationCommandQueueBuilderRP20AllowNameConversions
tNh:_LayoutGroup_SetProperty_TisInt32_t2950945753_m3911895589_gshared
gJ:__ZN11UnityEngine15CloudWebService19SessionEventManager31SetupNextActiveSessionContainerEv
$Ig:__Z121RuntimeInvoker_Void_t1185182177_Int32_t2950945753_Int32_t2950945753_Int32_t2950945753_SByte_t1669577662_SByte_t1669577662PFvvEPK10MethodInfoPvPS4_
fPj:dynCall_iiif
DQg:__Z52RuntimeInvoker_Single_t1397266774_Single_t1397266774PFvvEPK10MethodInfoPvPS4_
izd:_FixedSizeArrayListWrapper_InsertRange_m1706982628
Ilg:_UIntPtr_ToString_m984583492_AdjustorThunk
fxb:__ZL20ShaderWarmupFuncImplP6ShaderiPN9ShaderLab4PassERK16ShaderKeywordSetP10DynamicVBOPvR17ShaderPassContext
Ctc:__ZN7b2World4StepEfii
dyb:__ZN13GfxDeviceGLESC2E10MemLabelId
zSi:_TextGenerationSettings_Equals_m3618607189
Y0i:__ZN15dense_hashtableI10KeyWrapperIPK17Il2CppGenericInstES4_N6il2cpp8metadata21Il2CppGenericInstHashEN14dense_hash_setIS4_S7_NS4_14EqualsComparerINS6_24Il2CppGenericInstCompareEEENSt3__29allocatorIS4_EEE8IdentityESB_SE_E6insertERKS4_
D8i:__ZN15dense_hashtableINSt3__24pairIK10KeyWrapperINS1_IPK14Il2CppAssemblyP11Il2CppClassEEEjEES9_17ReflectionMapHashIS8_EN14dense_hash_mapIS9_jSD_NS9_14EqualsComparerINS0_8equal_toIS8_EEEENS0_9allocatorISB_EEE9SelectKeyESI_SK_E3endEv
eeg:_NativeEventCalls_ResetEvent_internal_m885886540
GUd:_MonoEnumInfo_get_enum_info_m1661176095
oHi:_GUIUtility_CheckOnGUI_m3924092168
Aja:__ZN14DataBufferGLES12RecordUpdateEv
coe:_InternalEnumerator_1_get_Current_m1481634550_gshared
ePc:__ZN20TextRenderingPrivate15DynamicFontData28GetFaceForFontRefFromOSFontsERKNS_7FontRefE
Nkf:_Context_ClearKeyInfo_m1155154290
Ryg:_Ray_GetPoint_m1852405345
utj:__ZN6il2cpp2vm12GenericClass12SetupMethodsEP11Il2CppClass
Tab:__ZNK20LocalFileSystemPosix18GetApplicationPathEv
Mgh:_List_1_set_Item_m658432263_gshared
ntb:__ZN9Scripting30IsSystemCollectionsGenericListE17ScriptingClassPtr
fYf:_Dictionary_2_Add_m1279427033_gshared
$Tc:__ZN2UI23InitializeCanvasManagerEv
FEa:__ZN10GameObject16CheckConsistencyEv
W5c:_PointerInputModule_GetMousePointerEventData_m4273240034
pWb:__ZN14RenderSettings15InitializeClassEv
fJa:__ZN22RenderingCommandBufferC2E10MemLabelIdRKS_
U7c:_AspectRatioFitter_set_aspectMode_m4140288987
N5b:__Z46Register_UnityEngine_GameObject_get_activeSelfv
Ema:__ZL35stbir__resample_horizontal_upsampleP11stbir__infoPf
a7g:__Z82RuntimeInvoker_RuntimeObject_RaycastResult_t3360306849_RuntimeObject_RuntimeObjectPFvvEPK10MethodInfoPvPS4_
xqc:__Z14b2TimeOfImpactP11b2TOIOutputPK10b2TOIInput
yih:_Enumerator__ctor_m3419056812_AdjustorThunk
Fte:_InternalEnumerator_1_System_Collections_IEnumerator_get_Current_m1299775605_gshared
Hib:__Z18Transfer_BlittableI24GenerateTypeTreeTransferLb0E10ColorRGBAfEvRK29SerializationCommandArgumentsR31RuntimeSerializationCommandInfo
JSb:__ZN14SpriteRenderer13GetRenderDataEv
DZf:_DefaultComparer_Equals_m1713730345_gshared
wNj:dynCall_iifii
GSc:__ZN2UI16GetCanvasManagerEv
x0b:__ZN15GUIEventManager8PopEventER10InputEvent
c6b:__Z31RectOffset_Get_Custom_PropRightP12Il2CppObject
uRc:__Z54Register_UnityEngine_TextGenerator_GetVerticesInternalv
Umd:__Z3BoxP11Il2CppClassPv
Rtg:_Input_get_touchSupported_m1480684970
Ffd:_GridLayoutGroup_SetLayoutVertical_m2106427802
gwg:_MonoBehaviour_StartCoroutine_m3411253000
qua:__ZN21UniformBufferTFMethodD2Ev
dte:_InternalEnumerator_1_System_Collections_IEnumerator_get_Current_m1096730143_AdjustorThunk
T2b:__ZL34GetComponentsImplementationRecurseILb1ELi1ELi2EEbR10GameObjectbRK17CompareParametersRK39GetComponentsImplementation_ReturnValue
jna:__ZN6prcoreL12RemapGenericI15TexFormatRGB56515TexFormatRGB888EEvPKNS_9InnerInfoE
fEj:__ZN6il2cpp5utils10MemoryPool9AddRegionEj
dgi:__ZL97NativeContainerSupportsMinMaxWriteRestrictionAttribute_t1586929818_CustomAttributesCacheGeneratorP21CustomAttributesCache
Ced:_Graphic_get_workerMesh_m997382591
ibc:__Z38PlayableHandle_CUSTOM_IsValid_InjectedP9HPlayable
xrd:_Array_System_Collections_IList_RemoveAt_m41405158
F9c:_CanvasUpdateRegistry_IsRebuildingLayout_m3530790142
$Uc:__Z41CanvasGroup_Get_Custom_PropBlocksRaycastsP12Il2CppObject
bzj:__ZN6il2cpp2os11Environment17GetProcessorCountEv
M5:__ZNSt3__26vectorIN9ShaderLab26SerializedShaderDependencyENS_9allocatorIS2_EEE8__appendEj
Z_:__ZN32TransformHierarchyChangeDispatch26DispatchSelfAndAllChildrenE15TransformAccessNS_12InterestTypeE
zE:__Z46Register_UnityEngine_AudioSource_get_isPlayingv
HXc:__ZN11UnityEngine15PlatformWrapper21GetVRDeviceMirrorModeEv
u3c:_EventSystem_OnEnable_m3237278246
g0:__ZN13RuntimeStaticI22VirtualJoystickManagerLb0EE13StaticDestroyEPv
nbf:_Interpreter_Balance_m1978770534
Fv:__ZN13AudioListener12ApplyFiltersEv
Ugh:_List_1_System_Collections_IList_Contains_m353431064_gshared
_Ri:_AudioConfigurationChangeHandler_BeginInvoke_m4104069447
OFj:__ZN6il2cpp8metadata27Il2CppGenericContextCompare7CompareEPK20Il2CppGenericContextS4_
hOj:dynCall_viiii
lzf:_CompareInfo_IsPrefix_m796715920
XYi:__ZNK15dense_hashtableINSt3__24pairIK10KeyWrapperIPK22Il2CppGenericParameterEP11Il2CppClassEES6_N6il2cpp5utils11PointerHashIS4_EEN14dense_hash_mapIS6_S9_SE_NS6_14EqualsComparerINS0_8equal_toIS5_EEEENS0_9allocatorISA_EEE9SelectKeyESJ_SL_E23find_position_with_hashERS7_j
_df:_PrimalityTest_Invoke_m2948246884
sBb:__Z11CopyTextureP7TextureiiS0_ii
sme:_ArrayReadOnlyList_1_Contains_m2459654648_gshared
xmi:__ZL65EventTrigger_t1076084509_CustomAttributesCacheGenerator_delegatesP21CustomAttributesCache
cgj:__ZNSt3__214__split_bufferIN6il2cpp2vm17TypeNameParseInfoERNS_9allocatorIS3_EEED2Ev
Xfh:_List_1_System_Collections_IList_Contains_m3717811284_gshared
B5d:_MonoEvent_get_Attributes_m3048829315
Qjb:__Z22TransferField_NonArrayI24GenerateTypeTreeTransfer27Converter_SimpleNativeClassI8GUIStyleEEvRK23StaticTransferFieldInfoR31RuntimeSerializationCommandInfoRT0_
Y2:__ZN15DirectorManager14ConnectionPool16GrowEmptyBucketsEv
BAd:_CaseInsensitiveHashCodeProvider_AreEqual_m3534448780
WM:__ZN17PersistentManager32CopyToAwakeFromLoadQueueInternalER18AwakeFromLoadQueue
$Yb:__ZN10GameObject15InitializeClassEv
vSg:__Z104RuntimeInvoker_Boolean_t97287965_Int32_t2950945753_Int64U5BU5DU26_t194432655_StringU5BU5DU26_t2154486980PFvvEPK10MethodInfoPvPS4_
vxc:__ZN10Collider2D23VirtualRedirectTransferER24GenerateTypeTreeTransfer
_Ab:__ZNK6Camera16SetActiveVRUsageEv
FYe:_Scrollbar_set_handleRect_m1170237786
ikc:__ZL26Transfer_SimpleNativeClassI8JSONRead8GradientLb1EEvRK29SerializationCommandArgumentsR31RuntimeSerializationCommandInfo
XIj:_open
Qyc:__ZN6b2Body7SetTypeE10b2BodyType
Vzi:_X509CrlEntry_get_SerialNumber_m3627212772
_kj:__ZN6il2cpp6icalls8mscorlib6System5Array5CloneEP11Il2CppArray
vOb:__Z30GetPlayerShouldRunInBackgroundv
rUc:__Z13RegisterClassIN2UI6CanvasEEvv
evg:_Mathf__cctor_m1175545152
I5d:_MonoEvent_IsDefined_m10931749
t3e:_NameValueCollection_AsSingleString_m3776180906
dna:__ZN6prcoreL12RemapGenericI11TexFormatI815TexFormatRGB565EEvPKNS_9InnerInfoE
hKd:_Int32_System_IConvertible_ToInt64_m3520470966
Hia:__ZNK13TranslateGLES17FramebufferTargetEN2gl17FramebufferTargetE
_vj:__ZL11on_gc_event11GCEventType
Zte:_InternalEnumerator_1_System_Collections_IEnumerator_get_Current_m1612699335_gshared
Fjf:_TlsServerHello__ctor_m3887266572
Osc:__ZNSt3__27__sort5IR31RayHitsByInverseDepthComparitorP12RaycastHit2DEEjT0_S5_S5_S5_S5_T_
bqg:_Coroutine_ReleaseCoroutine_m809189848
oyg:_Quaternion_Internal_MakePositive_m3555600883
bKf:_String_Trim_m923598732
hRj:b61
gRj:b60
ASj:b67
xSj:b66
wSj:b65
MTj:b69
BSj:b68
zAi:_Enumerator_get_Current_m359737019
DHa:__ZNSt3__26__treeINS_12__value_typeIi17ShadowCachingDataEENS_19__map_value_compareIiS3_NS_4lessIiEELb1EEE13stl_allocatorIS3_L18MemLabelIdentifier66ELi16EEE7destroyEPNS_11__tree_nodeIS3_PvEE
Qtd:_BitConverter_ToInt64_m349022421
R0b:__Z9SetIIMGUIP6IIMGUI
gch:_List_1_System_Collections_IList_Add_m1142950911_gshared
TIc:_tt_cmap10_get_info
Pvb:__Z28SetupPixelCorrectCoordinatesi
Azd:_SynchronizedArrayListWrapper_set_Capacity_m514089537
aja:__Z5SplitRKN4core12basic_stringIcNS_20StringStorageDefaultIcEEEEcRNSt3__26vectorIS3_NS6_9allocatorIS3_EEEEi
pOe:_PKCS1_Sign_v15_m2719206817
pKi:_AesTransform__ctor_m3143546745
mOf:_Array_InternalArray__ICollection_Remove_TisRuntimeObject_m2110193223_gshared
Jji:__ZL64EventType_t3528516131_CustomAttributesCacheGenerator_scrollWheelP21CustomAttributesCache
Rvg:_Mesh_SetTangents_m1615111656
wmj:__ZN6il2cpp2vm9Exception20GetArgumentExceptionERKNS_5utils10StringViewIDsEES6_
Mhh:_Enumerator_System_Collections_IEnumerator_Reset_m1487823313_AdjustorThunk
Pge:_MethodCallDictionary__cctor_m2213329406
Qv:__ZN12AudioManagerD0Ev
fRe:_InputField_set_textComponent_m2547304131
Wb:invoke_viiififii
tJe:_SortKeyBuffer_Initialize_m3786111493
lOh:_Array_InternalArray__get_Item_TisX509ChainStatus_t133602714_m2237651489_gshared
fui:__ZL58IVertexModifier_t3404627876_CustomAttributesCacheGeneratorP21CustomAttributesCache
k2a:__ZNK22GenericPropertyBinding13SetFloatValueERKN11UnityEngine9Animation10BoundCurveEf
pag:_Encoding__cctor_m1936558127
EBg:_Scene_get_name_m622963475_AdjustorThunk
Xdh:_List_1__ctor_m163821521_gshared
wmd:_MD5_Create_m3289886172
RFf:_X509Certificate_get_Subject_m2638144878
BPc:_raccess_guess_darwin_ufs_export
Dng:_AsyncOperation_Finalize_m1841265672
Yyb:__ZN11TypeManager18InitializeAllTypesEv
IQe:_InputField_MarkGeometryAsDirty_m817808086
aVe:_LayoutGroup_get_isRootLayoutGroup_m1082645254
Lt:__ZN9AudioClipD0Ev
mhj:_il2cpp_class_from_name
nKb:__ZN13dynamic_arrayI11ActiveLightLj4EE26emplace_back_uninitializedEv
LXe:_RectMask2D_OnDisable_m809267607
pFe:_Enumerator_MoveNext_m2602845255_AdjustorThunk
oih:_Queue_1__ctor_m1971992302_gshared
RTb:__Z13RegisterClassI8GUILayerEvv
zRb:__ZN25ThreadsafeLinearAllocatorC2EiiPKc
H5d:_MonoEvent_ToString_m2145104522
uvg:_Mesh_GetIndicesImpl_m3233954035
aVd:_MonoType_GetEvent_m28975240
Pqa:__ZN14GfxContextGLES11MakeCurrentER7ApiGLESN2gl13ContextHandleE
FJh:_Array_InternalArray__set_Item_TisUInt16_t2177724958_m1951465847_gshared
cPd:_MonoIO_Write_m3999708352
yPj:dynCall_viffffi
lUf:_Array_InternalArray__ICollection_CopyTo_TisChar_t3634460470_m3599063464_gshared
ddg:_UTF7Encoding_InternalGetChars_m2722395139
Npf:_DateTime_get_Today_m2788644320
cxb:__ZN16GraphicsSettings22WarmupPreloadedShadersEv
nWc:__Z34Canvas_Set_Custom_PropSortingOrderP12Il2CppObjecti
ajd:_SByte_System_IConvertible_ToSingle_m1083054891
rAi:_CostDelegate_Invoke_m898648402
Ycg:_UTF7Encoding_Equals_m227704363
qrg:_DisplaysUpdatedDelegate_Invoke_m3203573844
drb:__ZN18StreamedBinaryReadILb0EE8TransferI13dynamic_arrayI12PropertyNameLj4EEEEvRT_PKc17TransferMetaFlags
Caa:__ZN9ShaderLab4Pass6RetainEv
INe:_KeyPairPersistence_get_ContainerName_m4274536094
d1a:__Z10AddGUIAxesR13dynamic_arrayI9InputAxisLj4EE
cb:invoke_iiiiiiffiiiiiiiiiffffiii
Szg:_Rect_op_Equality_m3986168348
ABe:_Enumerator_System_Collections_IDictionaryEnumerator_get_Key_m4039922590_AdjustorThunk
sTe:_Selectable_OnDeselect_m2712096814
GMe:_BitConverterLE_ULongFromBytes_m1677445591
P9i:__ZN6il2cpp2gc19AppendOnlyGCHashMapIPK10Il2CppTypeP20Il2CppReflectionTypeNS_8metadata14Il2CppTypeHashENS7_26Il2CppTypeEqualityComparerEE3AddERKS4_S6_
sF:__ZN11UnityEngine15CloudWebService17CloudJobScheduler11ScheduleJobEPFvPvES2_
RJe:_SimpleCollator_IsSuffix_m1291687763
CG:__ZN11UnityEngine15CloudWebService17CloudServiceEvent12ToJsonStringER9JSONWrite
djf:_TlsClientHello__ctor_m1986768336
L0:__ZNK18VertexChannelsInfoltERKS_
iTg:__Z89RuntimeInvoker_Boolean_t97287965_Int32_t2950945753_Int32U26_t1369213839_Int32_t2950945753PFvvEPK10MethodInfoPvPS4_
qwd:_Char_System_IConvertible_ToType_m4138905176_AdjustorThunk
hgc:__ZN9JSONWrite8TransferIfEEvRT_PKc17TransferMetaFlags
nM:__ZNK6Camera13GetCameraRectEbb
$Ca:__ZN10MemoryFileD0Ev
I2b:__ZN10MonoScript27InitializeAndRegisterScriptERKN4core12basic_stringIcNS0_20StringStorageDefaultIcEEEES6_S6_S6_b
lvj:__ZN6il2cpp2os10ThreadImpl22SetNativeThreadCleanupEPFvPvE
qrf:_DateTimeOffset__cctor_m3610253033
Nyf:_NumberFormatInfo_get_InvariantInfo_m349577018
Xvd:_Byte_CompareTo_m4285128861_AdjustorThunk
Yce:_ConfigHandler_ExtractAssembly_m2143791058
yrj:__ZN6il2cpp8metadataL24RecursiveGenericDepthForEPK17Il2CppGenericInst
DEg:_Transform_GetChild_m1092972975
Heb:__ZN13GUIStyleState8TransferI14SafeBinaryReadEEvRT_
Rd:_glDrawArrays
XRi:_AudioSource_get_clip_m1234340632
S8d:_ResourceCacheItem_t51292791_marshal_pinvoke_back
Ls:__ZN23AnimatedPropertyBuilder5BuildEP13AnimationClip18ScriptingObjectPtr
g_a:__ZN14BlendShapeData8TransferI18StreamedBinaryReadILb0EEEEvRT_
EKc:_Round_To_Grid
vJc:_UNITY_FT_Stream_Close
M3c:_EventTrigger_OnPointerClick_m1385968891
Dkg:_UInt32_ToString_m4293943134_AdjustorThunk
oBg:_Renderer_get_sortingLayerID_m3902855301
tcf:_Interval_CompareTo_m3282557545_AdjustorThunk
Dye:_Comparer_1__cctor_m1018589532_gshared
kSg:__Z54RuntimeInvoker_TimeSpan_t881159249_TimeSpan_t881159249PFvvEPK10MethodInfoPvPS4_
r4:__ZL20FormatOrderedProcessPKcP17FormatOrderedDataPc
MUf:_Array_InternalArray__ICollection_CopyTo_TisResourceCacheItem_t51292791_m766230259_gshared
aMf:_Decoder_set_Fallback_m3834517714
e5b:__Z35DebugLogHandler_CUSTOM_Internal_Log7LogTypeP12Il2CppStringP12Il2CppObject
r0:__ZNSt3__26__treeINS_12__value_typeI18VertexChannelsInfoP16MeshVertexFormatEENS_19__map_value_compareIS2_S5_NS_4lessIS2_EELb1EEE13stl_allocatorIS5_L18MemLabelIdentifier17ELi16EEE7destroyEPNS_11__tree_nodeIS5_PvEE
Ksi:__ZL76CanvasScaler_t2767979955_CustomAttributesCacheGenerator_m_MatchWidthOrHeightP21CustomAttributesCache
uSj:_emscripten_glShaderBinary__wrapper
Ypa:__ZL17ProgramUniform3ivPK7ApiGLESjiihPKv
Yxd:_ArrayList_Shift_m395607654
Fea:__ZN9GfxDevice25GetBackBufferColorSurfaceEv
sDa:__ZN25SingleBlockMemoryFileData9SetLengthEy
R_b:__Z29AwakeAndActivateClonedObjectsPP6ObjectRK10vector_mapIiiNSt3__24lessIiEE13stl_allocatorINS3_4pairIiiEEL18MemLabelIdentifier1ELi16EEE
Eej:__ZN15dense_hashtableINSt3__24pairIK10KeyWrapperINS1_IPK10MethodInfoP11Il2CppClassEEEjEES9_17ReflectionMapHashIS8_EN14dense_hash_mapIS9_jSD_NS9_14EqualsComparerINS0_8equal_toIS8_EEEENS0_9allocatorISB_EEE9SelectKeyESI_SK_E14squash_deletedEv
gNe:_KeyGeneratedEventHandler_Invoke_m4131555809
nSb:__Z13RegisterClassI6ShaderEvv
xLf:_String_CharCopyReverse_m1548661297
H1c:__ZN13RuntimeStaticI11WindManagerLb0EE13StaticDestroyEPv
Chc:__Z18Transfer_BlittableI9JSONWriteLb1EaEvRK29SerializationCommandArgumentsR31RuntimeSerializationCommandInfo
zej:__ZN13Il2CppHashMapINSt3__24pairIPK10MethodInfoP11Il2CppClassEEj17ReflectionMapHashIS7_ENS0_8equal_toIS7_EENS0_9allocatorINS1_IK10KeyWrapperIS7_EjEEEEEC2EjRKS9_RKSB_
OEb:__ZN11HaloManager11HasAnyHalosEPK11CullResults
pYa:__ZN9Texture3D23VirtualRedirectTransferER19StreamedBinaryWriteILb0EE
KBj:_GC_reclaim_block
rDa:__ZN25SingleBlockMemoryFileData5WriteEyyPKv
fSg:__Z81RuntimeInvoker_Void_t1185182177_Int32_t2950945753_Int32_t2950945753_RuntimeObjectPFvvEPK10MethodInfoPvPS4_
brc:__Z23b2CollideRadialPolygonsP10b2ManifoldPK14b2PolygonShapeRK11b2TransformS3_S6_
EHb:__ZNK23ForwardShaderRenderLoop18RenderObjectSorterILb1EEclERK21ForwardRenderPassDataS4_
rAd:_CaseInsensitiveComparer__ctor_m1508720200
C2i:__ZN15dense_hashtableI10KeyWrapperIPK19Il2CppGenericMethodES4_N6il2cpp8metadata23Il2CppGenericMethodHashEN14dense_hash_setIS4_S7_NS4_14EqualsComparerINS6_26Il2CppGenericMethodCompareEEENSt3__29allocatorIS4_EEE8IdentityESB_SE_E12maybe_shrinkEv
kva:__ZN10BufferGLES10BeginWriteEjj
A2i:__ZNK15dense_hashtableI10KeyWrapperIPK19Il2CppGenericMethodES4_N6il2cpp8metadata23Il2CppGenericMethodHashEN14dense_hash_setIS4_S7_NS4_14EqualsComparerINS6_26Il2CppGenericMethodCompareEEENSt3__29allocatorIS4_EEE8IdentityESB_SE_E12test_deletedEj
uHb:__ZN21BillboardBatchManager24AutoBillboardShaderPropsC2ER16ShaderKeywordSetR24BuiltinShaderParamValues
RDa:__ZN20ArchiveStorageReader10InitializeER15FileSystemEntryyb
Fij:__GLOBAL__sub_I_ArrayMetadata_cpp
jva:__ZN7ApiGLES11FlushBufferEjN2gl12BufferTargetEll
OIc:_tt_cmap12_char_map_binary
Dfb:__ZN14SafeBinaryRead21TransferSTLStyleArrayI13dynamic_arrayI8BitFieldLj4EEEEvRT_17TransferMetaFlags
wra:__ZN12_GLOBAL__N_127PrepareReadback_ResolveMSAAER18GfxFramebufferGLESR7ApiGLESP17RenderSurfaceGLESS5_
VXb:__ZNK24RendererAnimationBinding9BindValueER6ObjectRKN11UnityEngine9Animation14GenericBindingERNS3_10BoundCurveE
o2d:_TypeBuilder_has_ctor_method_m2987175843
Re:_glBindBuffer
Qqb:__ZN8GUIStyle8TransferI18StreamedBinaryReadILb0EEEEvRT_
eqe:_InternalEnumerator_1_get_Current_m3500427238_gshared
u1:__ZNSt3__213__stable_sortIRN10vector_mapIijNS_4lessIiEENS_9allocatorINS_4pairIijEEEEE13value_compareENS_11__wrap_iterIPS6_EEEEvT0_SE_T_NS_15iterator_traitsISE_E15difference_typeEPNSH_10value_typeEi
d3a:__ZN10VRSettings8Daydream8TransferI18StreamedBinaryReadILb0EEEEvRT_
rLa:__ZNSt3__218__insertion_sort_3IRNS_6__lessIN4core12basic_stringIcNS2_20StringStorageDefaultIcEEEES6_EEPS6_EEvT0_SA_T_
OGe:_ValueCollection_System_Collections_Generic_ICollectionU3CTValueU3E_Remove_m1748672125_gshared
HPa:__ZNSt3__26__treeINS_12__value_typeIN9ShaderLab16FastPropertyNameEN18UnityPropertySheet11UnityTexEnvEEENS_19__map_value_compareIS3_S6_NS_4lessIS3_EELb1EEENS_9allocatorIS6_EEE7destroyEPNS_11__tree_nodeIS6_PvEE
uth:_ReadOnlyCollection_1_System_Collections_IList_Clear_m108858531_gshared
zNg:__Z102RuntimeInvoker_RuntimeObject_Int32_t2950945753_RuntimeObject_RuntimeObject_RuntimeObject_RuntimeObjectPFvvEPK10MethodInfoPvPS4_
qJi:_GUIUtility_set_guiIsExiting_m1558910088
_if:_Context_Clear_m2678836033
f$d:_DerivedType_IsDefined_m3906894566
Q3i:__ZN6il2cpp2vm13MetadataCache24GetExportedTypeFromIndexEi
N2g:__Z54RuntimeInvoker_Void_t1185182177_RaycastHit_t1056001966PFvvEPK10MethodInfoPvPS4_
Kfc:__ZN5Unity9rapidjson6WriterI16TempBufferWriterNS0_4UTF8IcEES4_13JSONAllocatorE9WriteUintEj
LKj:_getuid
vUb:__Z13RegisterClassI10MonoScriptEvv
mvg:_Matrix4x4_GetColumn_m461504848_AdjustorThunk
hId:_Int16_System_IConvertible_ToUInt64_m134975563_AdjustorThunk
UNc:__ZN20TextRenderingPrivate8FontImpl8TransferI18StreamedBinaryReadILb0EEEEvRT_
V_e:_ScrollRect_UpdateScrollbarVisibility_m4226977273
x5i:__ZN6il2cpp6icalls8mscorlib6System8MonoType22get_IsGenericParameterEP20Il2CppReflectionType
ceb:__Z34scripting_class_array_element_size17ScriptingClassPtr
BBh:_Nullable_1_get_Value_m1801617894_gshared
rPe:_SymmetricTransform_TransformFinalBlock_m4059448527
SGd:_Convert_ToUInt16_m3216249716
dQa:__ZN18StreamedBinaryReadILb0EE19TransferSTLStyleMapINSt3__23mapIN9ShaderLab16FastPropertyNameE10ColorRGBAfNS2_4lessIS5_EENS2_9allocatorINS2_4pairIKS5_S6_EEEEEEEEvRT_17TransferMetaFlags
Fha:__ZN13GfxDeviceGLES24DrawBufferRangesPlatformEP9GfxBufferiPK18VertexStreamSourceiPK16DrawBuffersRangeiP17VertexDeclaration17ShaderChannelMaskjb
zih:_Enumerator_System_Collections_IEnumerator_Reset_m4269083576_gshared
jie:_SoapServices_EncodeNs_m635167772
nOb:__ZN13RenderManager28AreCamerasUsingMotionVectorsEv
w0:__Z25InitializeLODGroupManagerPv
FAi:_Mark_get_IsDefined_m2539660708
Xga:__ZN13GfxDeviceGLES12EndStereoEyeE15StereoscopicEye
jjd:_SByte_System_IConvertible_ToUInt64_m4151910932_AdjustorThunk
NBb:__ZNK12ImageFilters28ApplyAfterTransparentFiltersEv
etg:_GameObject__ctor_m3707688467
FGb:__Z20CalculateLightMatrixRK15SharedLightDataP10Matrix4x4f
AZc:__ZN11UnityEngine7Connect15AppRunningEvent12ToJsonStringER9JSONWrite
IQa:__ZN19ShaderPropertySheet5ClearEb
HCf:_RSA_Create_m4065275734
FIh:_Array_InternalArray__Insert_TisContactPoint2D_t3390240644_m1428482637_gshared
_zf:_CultureInfo_GetCultureInfo_m630276874
lCb:__ZNK6Camera11GetPositionEv
b4c:_ExecuteEvents_Execute_m3952332304
aWj:_emscripten_glClearDepth__wrapper
ubb:__ZNK16MemoryFileSystem8FilenameERK13FileEntryData
Vf:_glUniform1fv
Zf:_JS_FileSystem_Sync
ysa:__ZNSt3__26__treeINS_12__value_typeI21GLESRenderTargetSetupN2gl6HandleILNS3_10ObjectTypeE9EEEEENS_19__map_value_compareIS2_S7_NS_4lessIS2_EELb1EEENS_9allocatorIS7_EEE7destroyEPNS_11__tree_nodeIS7_PvEE
bOe:_KeyPairPersistence__IsUserProtected_m438961964
ula:__ZN4crnd11crnd_deleteINS_13prefix_coding14decoder_tablesEEEvPT_
OAc:__ZN11Rigidbody2D11SetVelocityERK8Vector2f
PKf:_String_Replace_m1273907647
Vie:_RealProxy_InternalGetProxyType_m2154819545
Ara:__ZN4gles15BlitFramebufferERNS_23BlitFramebufferDrawQuadER9GfxDeviceii9TextureIDiiiiiiii
BWd:_NumberFormatter_NumberToString_m827252518
Xf:__emscripten_sample_gamepad_data
gSb:__Z22DelayedDestroyCallbackP6ObjectPv
BLg:__Z96RuntimeInvoker_Void_t1185182177_SByte_t1669577662_ByteU5BU5DU26_t4057885439_Int32U26_t1369213839PFvvEPK10MethodInfoPvPS4_
B6f:_Enumerator_System_Collections_IEnumerator_get_Current_m1643543708_AdjustorThunk
Gxi:_PKCS12__ctor_m2471257156
Tyc:__ZN15b2ContactFilter13ShouldCollideEP9b2FixtureS1_
Eog:_Camera_get_nearClipPlane_m837839537
XP:__Z34scripting_class_get_declaring_type17ScriptingClassPtr
HZc:__ZN11UnityEngine7Connect20BasePersistentValues13RestoreValuesER8JSONRead
q1a:__ZN11TimeManagerD0Ev
vHi:_GUIUtility_Internal_GetGUIDepth_m1169824684
Jz:__ZN12AudioManager33GetAudioEffectInternalDefinitionsEv
YSa:__ZN9Texture2D16DeleteGfxTextureEv
oab:__ZN20LocalFileSystemPosix4OpenER13FileEntryData14FilePermission16FileAutoBehavior
uSe:_InputField_GetUnclampedCharacterLineFromPosition_m2611553547
tdj:__ZN6il2cpp2gc19AppendOnlyGCHashMapIPK10Il2CppTypeP20Il2CppReflectionTypeNS_8metadata14Il2CppTypeHashENS7_26Il2CppTypeEqualityComparerEEC2Ev
cZd:_CustomAttributeData_GetCustomAttributes_m2141595938
J1i:__ZN15dense_hashtableINSt3__24pairIK10KeyWrapperIN6il2cpp5utils13dynamic_arrayIPK10Il2CppTypeLj4EEEEPFvvEEESA_NS3_8metadata19Il2CppSignatureHashEN14dense_hash_mapISA_SD_SG_NSA_14EqualsComparerINSF_22Il2CppSignatureCompareEEENS0_9allocatorISE_EEE9SelectKeyESK_SM_ED2Ev
NRc:__ZN2UI6Canvas12AddToManagerEv
Tad:_ColorTweenCallback__ctor_m2236520273
fVd:_MonoType_GetMethodsByName_m2005909471
fEc:_cf2_hint_isTop
oNb:__ZN23ManagedAttributeManager21GetRequiredComponentsE17ScriptingClassPtr
Nvi:_TlsCipherSuite_ComputeServerRecordMAC_m3941098609
Uad:_ColorTween_AddOnChangedCallback_m3959760640_AdjustorThunk
Gie:_RemotingServices_Unmarshal_m3744595373
ysh:_ReadOnlyCollection_1_System_Collections_IList_get_Item_m2174806213_gshared
iPb:__Z23InitializeStdConvertersv
HGb:__ZN19ShaderPropertySheet17UpdateTextureInfoEiRK23FastTexturePropertyNamePK10TextureRef
sGf:_SecurityElement_IsValidAttributeName_m713904709
iHc:_ps_unicodes_init
QRd:_StreamWriter_Write_m2487601391
XXb:__ZN13ProduceHelperI14PlayerSettingsLb0EE7ProduceE10MemLabelId18ObjectCreationMode
wzb:__ZZ23InitPlayerLoopCallbacksvEN38PreUpdateCheckTexFieldInputRegistrator7ForwardEv
Ila:__ZN4crnd12crn_unpacker22decode_color_endpointsEv
Hpj:__ZNK10KeyWrapperINSt3__24pairIPKcS3_EEE14EqualsComparerI26NamespaceAndNamePairEqualsEclERKS5_SA_
_mc:__ZN10Effector2D8TransferI14SafeBinaryReadEEvRT_
W0:__Z34CleanupIntermediateRendererManagerPv
euf:_Decimal_op_Multiply_m2389849621
r5c:_PointerEventData_get_eligibleForClick_m3788762543
teg:_Monitor_Pulse_m82725344
Mzf:_CultureInfo_get_NumberFormat_m1244033732
sPd:_FileStream_Dispose_m2599766137
ypd:_Array_Copy_m1988217701
Xog:_Camera_FireOnPreCull_m2869588437
lh:_JS_WebRequest_GetResponseHeaders
sub:__ZNSt3__26__treeINS_12__value_typeI26SerializedObjectIdentifieriEENS_19__map_value_compareIS2_S3_NS_4lessIS2_EELb1EEENS_9allocatorIS3_EEE7destroyEPNS_11__tree_nodeIS3_PvEE
SGc:_otv_Script_validate
ESb:__ZN9Scripting18RaiseNullExceptionEPKcz
m3:__ZN13RuntimeStaticI13RendererSceneLb0EE16StaticInitializeEPv
Dzc:__ZZN10Collider2D15InitializeClassEvEN28FunctorImpl_100kSetPolygon2D4CallEPviR11MessageData
wh:_glCreateProgram
edj:__ZN6il2cpp2vm10Reflection7IsFieldEP12Il2CppObject
SYe:_Scrollbar_set_numberOfSteps_m3603299569
BBf:_Guid_Compare_m231009821
$Fa:__ZN24GenerateTypeTreeTransfer32TransferSTLStyleArrayWithElementI17SortingLayerEntryEEvRT_17TransferMetaFlags
ARj:_glUniformMatrix3fv__wrapper
HIa:__ZN5Light9SetupHaloEv
qQe:_Text_set_horizontalOverflow_m2473787109
unb:__Z18Transfer_BlittableI18StreamedBinaryReadILb1EELb1E12PropertyNameEvRK29SerializationCommandArgumentsR31RuntimeSerializationCommandInfo
$dj:__ZN15dense_hashtableINSt3__24pairIK10KeyWrapperIPK22Il2CppGenericParameterEPK24MonoGenericParameterInfoEES6_N6il2cpp5utils11PointerHashIS4_EEN14dense_hash_mapIS6_SA_SF_NS6_14EqualsComparerINS0_8equal_toIS5_EEEENS0_9allocatorISB_EEE9SelectKeyESK_SM_EC2ERKSP_j
UCj:_GC_general_register_disappearing_link
KZ:__ZN23TransformChangeDispatch12CleanupClassEPv
eWc:__Z33Canvas_Get_Custom_PropScaleFactorP12Il2CppObject
XKa:__ZN17CollisionMeshData20VertexDataHasChangedEv
pBi:_PatternCompiler_Emit_m604664654
$Nf:_Array_InternalArray__ICollection_Remove_TisKeyValuePair_2_t3842366416_m278128148_gshared
HGa:__ZNK6Camera16GetTargetTextureEv
_Mh:_Component_GetComponentsInChildren_TisRuntimeObject_m35549932_gshared
S0c:__ZNK20UnityWebRequestProtoI24UnityWebRequestTransport16AtomicRefCounter14RedirectHelper14ResponseHelper15DownloadHandler13UploadHandler12HeaderHelper14AsyncOperationE17GetUploadProgressEv
lKf:_String_CompareTo_m3030934538
Web:__Z35Transfer_Blittable_SingleValueFieldI14SafeBinaryReadyEvRT_R17GeneralMonoObjectRK23StaticTransferFieldInfo
nDb:__ZN13BatchRenderer12EndLoopFlushEv
Hod:_X509CertificateEnumerator_System_Collections_IEnumerator_Reset_m2928805663
M$b:__ZNK6Sprite11GetInnerUVsE20SpriteRenderDataMode
I9e:_X509ChainElementEnumerator_System_Collections_IEnumerator_get_Current_m1913555061
BIf:_Single_System_IConvertible_ToDouble_m1584722292_AdjustorThunk
MCg:_DataUtility_INTERNAL_CALL_GetPadding_m650254139
DVb:__ZN16MessageForwarder23RegisterMessageCallbackEiPFvPviR11MessageDataEPKN5Unity4TypeE
mff:_MD2Managed_HashFinal_m808964912
irf:_DateTime_op_Equality_m1022058599
BKa:__ZN4Mesh30AcquireSharedMeshRenderingDataEv
gi:_gmtime
ni:_emscripten_glUniform3i
ria:__ZNK7ApiGLES10GetContextEv
rdb:__Z18Transfer_BlittableI14SafeBinaryReadLb1E5RectTIfEEvRK29SerializationCommandArgumentsR31RuntimeSerializationCommandInfo
Kmc:__Z7b2Alloci
zVa:__ZN15TextureSettings14SetAnisoLimitsEii
Gg:_glGetFramebufferAttachmentParameteriv
Vjb:__Z19TransferField_ArrayI24GenerateTypeTreeTransfer27Converter_SimpleNativeClassI10RectOffsetEEvRK23StaticTransferFieldInfoR31RuntimeSerializationCommandInfoRT0_
hlg:_UInt64_System_IConvertible_ToUInt32_m2784653358_AdjustorThunk
GId:_Int16_TryParse_m1675418240
Boa:__ZN6prcoreL17RemapGenericFloatI18TexFormatARGBFloat15TexFormatRGHalfEEvPKNS_9InnerInfoE
AHi:_GUILayout_Height_m3349769634
mcb:__ZNSt3__26vectorI4PPtrI10MonoScriptE13stl_allocatorIS3_L18MemLabelIdentifier78ELi16EEE8__appendEj
MUe:_LayoutGroup_get_flexibleWidth_m2787597997
dug:_LayerMask_op_Implicit_m3296792737
iYb:__ZL22PrepareMeshRenderNodesILb1EEvR35RenderNodeQueuePrepareThreadContext
Rab:__ZN20LocalFileSystemPosix5TouchER13FileEntryData
Oic:__ZN9JSONWrite8TransferI13dynamic_arrayItLj2EEEEvRT_PKc17TransferMetaFlags
Ei:_emscripten_glDrawElements
jJd:_NumberFormatter_AppendDecimalString_m10636623
pog:_Bounds_get_max_m3756577669
g7c:_StandaloneInputModule_ProcessMouseEvent_m2923582521
CWh:__ZL59ParameterBuilder_t1137139675_CustomAttributesCacheGeneratorP21CustomAttributesCache
USj:_glVertexAttrib4fv__wrapper
SH:__ZN11UnityEngine15CloudWebService23WebRequestUploadHandlerD2Ev
_wc:__ZN20SpriteTilingProperty8TransferI14SafeBinaryReadEEvRT_
Edb:__ZL26Transfer_SimpleNativeClassI14SafeBinaryRead8GradientLb0EEvRK29SerializationCommandArgumentsR31RuntimeSerializationCommandInfo
XKg:__Z68RuntimeInvoker_Boolean_t97287965_Int32_t2950945753_SByte_t1669577662PFvvEPK10MethodInfoPvPS4_
dVf:_Array_InternalArray__ICollection_CopyTo_TisRaycastHit2D_t2279581989_m3542049333_gshared
YXd:_Assembly_GetExecutingAssembly_m4021024968
PRe:_InputField_ClampPos_m2625258136
A$i:__ZNK15dense_hashtableINSt3__24pairIK10KeyWrapperIPKcEP11Il2CppClassEES5_N6il2cpp5utils11StringUtils12StringHasherIS4_EEN14dense_hash_mapIS5_S8_SE_NS5_14EqualsComparerINSB_13VmStringUtils21CaseSensitiveComparerEEENS0_9allocatorIS9_EEE9SelectKeyESJ_SL_E10test_emptyEj
hke:_MessageFormatter_ReadMethodResponse_m1946725361
oNa:__ZN13RenderTexture23VirtualRedirectTransferER18StreamedBinaryReadILb0EE
lIc:_UNITY_tt_face_lookup_table
W2c:_BaseRaycaster_ToString_m2535186737
tfc:__ZN5Unity9rapidjson13GenericReaderINS0_4UTF8IcEES3_13JSONAllocatorE9ParseHex4INS0_25GenericInsituStringStreamIS3_EEEEjRT_
tta:__Z17ComputeMipmapSizeiii14GraphicsFormat
LDc:_cf2_stack_pushFixed
Gcd:_Dropdown_OnCancel_m1495594239
Xij:__ZNK15dense_hashtableINSt3__24pairIK10KeyWrapperINS1_IP11Il2CppClassjEEES4_EES6_N6il2cpp8metadata14ArrayClassHashEN14dense_hash_mapIS6_S4_SB_NS6_14EqualsComparerINSA_17ArrayClassCompareEEENS0_9allocatorIS8_EEE9SelectKeyESF_SH_E3endEv
dBd:_CollectionBase_OnValidate_m1606907366
jwg:_MonoBehaviour_StopCoroutineViaEnumerator_Auto_m3883784228
YLc:_TT_Get_MM_Blend
rN:__Z16realloc_internalPvjj10MemLabelId15AllocateOptionsPKci
B$g:__Z78RuntimeInvoker_Void_t1185182177_RuntimeObject_RuntimeObject_Single_t1397266774PFvvEPK10MethodInfoPvPS4_
wVc:__Z50CanvasRenderer_CUSTOM_CreateUIVertexStreamInternalP12Il2CppObjectS0_S0_S0_S0_S0_S0_S0_S0_S0_
A2:__ZN14PlayableOutput15PrepareTraverseERK9FrameData
Yrb:__ZL19RequireCorLibMethodPKcS0_S0_
uS:__ZNK5Unity9Component22GetTypeVirtualInternalEv
jCc:_UNITY_FT_Outline_Get_CBox
em:_emscripten_get_fullscreen_status
opa:__ZN6prcoreL26RemapGenericIntegerToFloatI17TexFormatARGB888817TexFormatRGBFloatEEvPKNS_9InnerInfoE
_fe:_MethodDictionary_SetMethodProperty_m3032369066
Dfj:__ZN6il2cpp2vm14TypeNameParser26ParseTypeArgumentsOptionalERi
aLb:__ZN15LODGroupManager27GarbageCollectCameraLODDataEv
c$g:__Z139RuntimeInvoker_Void_t1185182177_RuntimeObject_Color32_t2600501292_Int32_t2950945753_Int32_t2950945753_Single_t1397266774_Single_t1397266774PFvvEPK10MethodInfoPvPS4_
rOb:__ZN13ScreenManagerC2Ev
z3f:_Enumerator_System_Collections_IEnumerator_Reset_m3289381690_gshared
hcc:__ZN12GUIClipState20CalculateMouseValuesER10InputEvent
gjb:__Z18Transfer_BlittableI24GenerateTypeTreeTransferLb0E12PropertyNameEvRK29SerializationCommandArgumentsR31RuntimeSerializationCommandInfo
nia:__ZN7ApiGLES4InitERK14GfxContextGLESR16GfxDeviceLevelGL
zV:__ZNK11LightProbes14LightProbeData33GetLightProbeInterpolationWeightsERK8Vector3fRiR8Vector4fRf
UQd:_Stream_Dispose_m2589290611
Lhe:_ReturnMessage_get_LogicalCallContext_m2352570297
V3:__ZN11TypeManager36FatalErrorOnPersistentTypeIDConflictEiPKc
QJ:__ZN21UnityDefaultAllocatorI17LowLevelAllocatorED0Ev
DL:__ZN8Renderer15SetIsRenderableEb
ZPh:__ZL54IEnumerator_t1853284238_CustomAttributesCacheGeneratorP21CustomAttributesCache
Cpa:__Z14DecodeBC7BlockP9HDRColorAPKh
LLe:_BigInteger_op_RightShift_m2934036419
TXb:__ZNK24RendererAnimationBinding12GetPPtrValueERKN11UnityEngine9Animation10BoundCurveE
JXg:__Z95RuntimeInvoker_Boolean_t97287965_RuntimeObject_TextGenerationSettings_t1351628751_RuntimeObjectPFvvEPK10MethodInfoPvPS4_
Fud:_Boolean_System_IConvertible_ToSByte_m806999
Qud:_Boolean_System_IConvertible_ToUInt32_m2723177447_AdjustorThunk
g6g:__Z84RuntimeInvoker_Boolean_t97287965_RaycastResult_t3360306849_RaycastResult_t3360306849PFvvEPK10MethodInfoPvPS4_
aDj:_GC_new_proc_inner
mc:invoke_fiiffi
JIe:_MSCompatUnicodeTable_BuildTailoringTables_m1316979344
Hcb:__Z35Transfer_Blittable_FixedBufferFieldI14SafeBinaryReadiEvRK29SerializationCommandArgumentsR31RuntimeSerializationCommandInfo
SBb:__ZNK25CameraStackRenderingState21IsRenderingLastCameraEv
r$f:_EqualityComparer_1_System_Collections_IEqualityComparer_Equals_m1538289377_gshared
Oma:__ZL24stbir__filter_catmullromff
pwc:__ZN10ClipperLib7Clipper8AddOutPtEPNS_5TEdgeERKNS_8IntPointE
GOc:__ZN20TextRenderingPrivate15GetFormatStringER11UTF16StringR13dynamic_arrayINS_16TextFormatChangeELj4EE
H6i:__ZN6il2cpp6icalls8mscorlib6SystemL16CheckMemberMatchI9EventInfoNS_5utils10functional6FilterINSt3__212basic_stringIcNS8_11char_traitsIcEENS8_9allocatorIcEEEENS5_13VmStringUtils21CaseSensitiveComparerEEEEEbPKT_PK11Il2CppClassSN_iRKT0_
g0g:__Z83RuntimeInvoker_Boolean_t97287965_SpriteStateU26_t2382775785_SpriteState_t1362986479PFvvEPK10MethodInfoPvPS4_
SSf:_Array_LastIndexOf_TisRuntimeObject_m1677937501_gshared
kNb:__Z23ValidateScriptComponentP10MonoScriptPN4core12basic_stringIcNS1_20StringStorageDefaultIcEEEE
Sri:__ZL68Selectable_t3250028441_CustomAttributesCacheGenerator_m_InteractableP21CustomAttributesCache
DXa:__ZNSt3__215__inplace_mergeIRNS_4lessI4PPtrI11SpriteAtlasEEENS_11__wrap_iterIPS4_EEEEvT0_SA_SA_T_NS_15iterator_traitsISA_E15difference_typeESE_PNSD_10value_typeEi
k:ABORT
L1e:_Text_OnDisable_m1806889406
tia:__ZN26SinglePassStereoSupportExt27InitSinglePassStereoSupportEP21ISinglePassStereoImplP9GfxDevice
g5c:_PointerEventData_set_button_m2912797404
HJ:__ZNSt3__23mapIN19CloudServiceHandler11ServiceTypeEPS1_NS_4lessIS2_EE13stl_allocatorINS_4pairIKS2_S3_EEL18MemLabelIdentifier88ELi16EEEixERS8_
oHc:_ft_get_adobe_glyph_index
jwc:__ZN10ClipperLib15GetLowermostRecEPNS_6OutRecES1_
wge:_MethodCall_get_GenericArguments_m1010093584
oFj:__ZNSt3__26__treeINS_12__value_typeINS_12basic_stringIcNS_11char_traitsIcEENS_9allocatorIcEEEEPFvvEEENS_19__map_value_compareIS7_SA_NS_4lessIS7_EELb1EEENS5_ISA_EEE25__emplace_unique_key_argsIS7_JRKNS_21piecewise_construct_tENS_5tupleIJOS7_EEENSL_IJEEEEEENS_4pairINS_15__tree_iteratorISA_PNS_11__tree_nodeISA_PvEEiEEbEERKT_DpOT0_
e9b:__Z47Register_UnityEngine_Texture_Internal_GetHeightv
iJf:_Single_ToString_m3947131094_AdjustorThunk
Dtb:__Z25scripting_field_get_flags17ScriptingFieldPtr
OIe:_MSCompatUnicodeTable_Level3_m1870873670
T7e:_X509ChainStatus_GetInformation_m245493206
CFg:_Vector3_Lerp_m407887542
Vph:_Collection_1__ctor_m2277581063_gshared
WAi:_MatchCollection__ctor_m4138850022
_kc:__ZN8JSONRead8TransferIyEEvRT_PKc17TransferMetaFlagsb
h7h:__ZL79X509Chain_t194917408_CustomAttributesCacheGenerator_X509Chain_Build_m1705729171P21CustomAttributesCache
ldb:__Z18Transfer_BlittableI14SafeBinaryReadLb0EtEvRK29SerializationCommandArgumentsR31RuntimeSerializationCommandInfo
o4i:__ZN6il2cpp2vm13MetadataCache24InitializeMethodMetadataEj
HK:__ZNK20DynamicHeapAllocatorI17LowLevelAllocatorE8ContainsEPKv
Rld:_HMAC_HashFinal_m1921180827
Aqf:_DateTime__ParseString_m2913931606
Pnj:__ZN6il2cpp2vm14PlatformInvoke36MarshalCppStringToCSharpStringResultEPKc
JIb:__ZN8Material23GetStencilWriteMaterialEv
Yra:__Z12GetBlockSize14GraphicsFormat
fNf:_Array_InternalArray__ICollection_Contains_TisIntPtr_t_m272531112_gshared
$ie:_RemotingProxy_get_TypeName_m4085898624
B0d:_GenericTypeParameterBuilder_not_supported_m3358960901
_Fa:__ZN10TagManager8TransferI24GenerateTypeTreeTransferEEvRT_
Clh:_Collection_1_ConvertItem_m169929357_gshared
INd:_MonoIO_GetCurrentDirectory_m762333289
o0b:__Z35AllocExtractMeshComponentFromScriptRK4Mesh30InternalScriptingShaderChannel34InternalScriptingVertexChannelTypei
yWf:_Dictionary_2_ContainsKey_m415531417_gshared
NFa:__ZN10TagManager23VirtualRedirectTransferER24GenerateTypeTreeTransfer
KVf:_Array_InternalArray__Insert_TisCustomAttributeNamedArgument_t287865710_m3526512389_gshared
Ima:__ZL23stbir__filter_trapezoidff
rE:__Z44Register_UnityEngine_AudioClip_get_ambisonicv
Pjg:_UInt32_System_IConvertible_ToBoolean_m1763673183
ZLb:__ZN23ScriptableRenderContextD2Ev
fUh:__ZL52ArrayList_t2718874744_CustomAttributesCacheGeneratorP21CustomAttributesCache
gjd:_SByte_System_IConvertible_ToUInt32_m4275534457
lwg:_MonoBehaviour_StopCoroutine_Auto_m820288890
Baj:__ZN15dense_hashtableINSt3__24pairIK10KeyWrapperINS1_IPK10MethodInfoP11Il2CppClassEEEjEES9_17ReflectionMapHashIS8_EN14dense_hash_mapIS9_jSD_NS9_14EqualsComparerINS0_8equal_toIS8_EEEENS0_9allocatorISB_EEE9SelectKeyESI_SK_E15insert_noresizeERKSB_
eRc:__Z32TextGenerator_CUSTOM_Dispose_cppP12Il2CppObject
mlj:__ZN6il2cpp6icalls8mscorlib6System19ExtractWidenedValueE14Il2CppTypeEnumPv
VDf:_SHA256Managed_HashFinal_m2914312286
byb:__ZN12GPUFencePoolC2Ev
ICj:_GC_invoke_finalizers
ZKf:_String_Format_m2556382932
$Xi:__ZL14adjustScale128PyS_i
Oji:__ZL59EventType_t3528516131_CustomAttributesCacheGenerator_ignoreP21CustomAttributesCache
ydb:__Z18Transfer_BlittableI14SafeBinaryReadLb0E8BitFieldEvRK29SerializationCommandArgumentsR31RuntimeSerializationCommandInfo
oOh:_Array_InternalArray__get_Item_TisTimeSpan_t881159249_m1885583191_gshared
qBf:_Guid__ctor_m3421080095
DV:__ZNK10GameObject25QueryComponentByExactTypeEPKN5Unity4TypeE
vle:_U3CGetEnumeratorU3Ec__Iterator0_System_Collections_Generic_IEnumeratorU3CTU3E_get_Current_m52354244_gshared
$T:__ZNK9ShaderLab22ShaderStencilStateDesc17ToGfxStencilStateEPK19ShaderPropertySheetS3_RK14GfxRasterStateR15GfxStencilState
Jph:_Collection_1_Remove_m2372638279_gshared
CZe:_U3CClickRepeatU3Ec__Iterator0_MoveNext_m2800364313
oJc:_tt_cmap0_char_next
Dpa:__Z15DecodeBC6HBlockP9HDRColorAPKh
Fog:_Camera_get_farClipPlane_m538536689
QTb:__Z13RegisterClassI10GUIElementEvv
Okd:_DSA_Create_m1220983153
PCj:_GC_malloc_uncollectable
Cnd:_Array_Clone_m2672907798
tbb:__ZNK16MemoryFileSystem6ParentERK13FileEntryDataRN4core12basic_stringIcNS3_20StringStorageDefaultIcEEEE
kSd:_SynchronizedWriter_Write_m1297715977
Ydd:_Graphic_get_rectTransform_m1167152468
y0:__ZN15LODGroupManagerD2Ev
tke:_ObjectReader_ReadRefTypeObjectInstance_m3311150386
cmc:__ZN8JSONRead21TransferSTLStyleArrayI13dynamic_arrayIN4math12int2_storageELj4EEEEvRT_17TransferMetaFlags
HZg:__Z115RuntimeInvoker_Boolean_t97287965_RuntimeObject_RuntimeObject_Single_t1397266774_SByte_t1669577662_Int32_t2950945753PFvvEPK10MethodInfoPvPS4_
Fji:__ZL62EventType_t3528516131_CustomAttributesCacheGenerator_mouseMoveP21CustomAttributesCache
bLe:_BigInteger_op_Multiply_m3801644593
aug:_DefaultValueAttribute_Equals_m443523471
XCa:__ZN12IFileAdapter9SetLengthER13FileEntryDatay
Vm:FUNCTION_TABLE_fif
Pc:_Mix_PlayMusic
Tof:_DateTime_System_IConvertible_ToSByte_m4130251280
uqg:_CullingGroup_SendEvents_m2491312335
jFc:_cff_cmap_encoding_init
i0c:__Z34GetUnityWebRequestScriptingClassesv
RQj:___cxa_pure_virtual__wrapper
kKd:_Int32_System_IConvertible_ToSByte_m3133688512_AdjustorThunk
MMe:_BlockProcessor_Finalize_m3954108481
owb:__ZN19RuntimeSceneManager24PrepareNewBootstrapSceneEv
YYg:__Z57RuntimeInvoker_Void_t1185182177_RaycastResult_t3360306849PFvvEPK10MethodInfoPvPS4_
sog:_Bounds_op_Equality_m3322991400
Z6c:_StandaloneInputModule_Process_m309156323
X9i:__ZNK15dense_hashtableINSt3__24pairIK10KeyWrapperIPK10Il2CppTypeEjEES6_N6il2cpp8metadata14Il2CppTypeHashEN14dense_hash_mapIS6_jSB_NS6_14EqualsComparerINSA_26Il2CppTypeEqualityComparerEEENS0_9allocatorIS8_EEE9SelectKeyESF_SH_E12test_deletedEj
mya:__ZN10SpookyHash7Hash128EPKvjPyS2_
tKb:__ZL60CombineDirectionalShadowCasterCullingIndexListsAndDestroyJobP20ShadowCullingJobData
wBd:_Hashtable__ctor_m3890751112
hFg:_Vector2_ToString_m1205609053_AdjustorThunk
tGc:_otv_MarkBasePos_validate
u8:__ZN9ShaderLab18SerializedPropertyC2ERKS0_
oCc:_cff_driver_init
COi:__ZL25UnresolvedVirtualCall_157P12Il2CppObjectffPK10MethodInfo
D$a:__ZN14SpriteRenderer10SmartResetEv
pfg:_ThreadPool_QueueUserWorkItem_m1526970260
DWb:__ZN16ReflectionProbes20DidChangeActiveSceneEP10UnitySceneS1_
WKf:_String_ToUpperInvariant_m2531236323
tWa:__ZN16SpriteRenderData8TransferI14SafeBinaryReadEEvRT_
FQj:_emscripten_glVertexAttrib3f__wrapper
Ckd:_DESTransform_GetStrongKey_m1464830895
snd:_RijndaelTransform_Encrypt192_m3191066202
Wze:_Enumerator_Reset_m1314900927_gshared
Oab:__ZN20LocalFileSystemPosix4CopyER13FileEntryDataS1_
O0i:__ZNK15dense_hashtableI10KeyWrapperIPK19Il2CppGenericMethodES4_N6il2cpp8metadata23Il2CppGenericMethodHashEN14dense_hash_setIS4_S7_NS4_14EqualsComparerINS6_26Il2CppGenericMethodCompareEEENSt3__29allocatorIS4_EEE8IdentityESB_SE_E3endEv
DIb:__ZL31SetRenderStateForStencilMarkingR9GfxDeviceR17ShaderPassContextjj
ADa:__ZN20ArchiveStorageReader20FillChunkCachedBlockEPNS_11CachedBlockE
wWf:_Dictionary_2_Add_m653869716_gshared
ZQd:_StreamAsyncResult__ctor_m3118856368
UA:__ZN10AudioMixer16ResumeProcessingEv
aed:_Graphic_OnBeforeTransformParentChanged_m4229077069
tfb:__ZNSt3__26vectorI17AnimationCurveTplIfE13stl_allocatorIS2_L18MemLabelIdentifier1ELi16EEE7reserveEj
hrg:_Display_GetRenderingExtImpl_m2069813991
iUc:__ZN2UI13CanvasManager21EmitGeometryForCameraEP6Camera
TP:__Z31AudioFilterReadValidateCallback18ScriptingMethodPtr17ScriptingClassPtrP6Object
GQe:_InputField_SetDrawRangeToContainCaretPosition_m1009661083
j2b:__ZN23TransformChangeDispatch46GetAndClearChangedTransformsForMultipleSystemsEyR13dynamic_arrayI23TransformAccessReadOnlyLj4EERS0_IyLj8EEPN9profiling6MarkerE
G9:__ZN9ShaderLab16SerializedTagMap8TransferI19StreamedBinaryWriteILb0EEEEvRT_
vQd:_MonoIO_get_PathSeparator_m4045322458
haf:_X509SubjectKeyIdentifierExtension_FromHex_m1011249985
Pxc:__ZN17Physics2DSettings16CheckConsistencyEv
cmj:__ZN6il2cpp6icalls8mscorlib6System9Threading6Thread25SetCachedCurrentUICultureEP12Il2CppThreadP12Il2CppObject
grd:_ArithmeticException__ctor_m479063094
uke:_ObjectReader_ReadObjectInstance_m3952621118
eIc:_UNITY_FT_Bitmap_Convert
uKb:__Z22CullDirectionalShadowsR9IndexListPK9SceneNodePK4AABBR22DirectionalCullContext
GYd:_Default_BindToMethod_m490530316
PKd:_Int32_ToString_m2507389746
u6e:_X509KeyUsageExtension_ToString_m3542316380
bnd:_RijndaelManaged__ctor_m1562735454
Oif:_SslCipherSuite__ctor_m1470082018
o3i:__ZN15dense_hashtableINSt3__24pairIK10KeyWrapperIPK11Il2CppClassEPKcEES6_N6il2cpp5utils11PointerHashIS3_EEN14dense_hash_mapIS6_S9_SE_NS6_14EqualsComparerINS0_8equal_toIS5_EEEENS0_9allocatorISA_EEE9SelectKeyESJ_SL_E4findERS7_
WVe:_LayoutUtility_U3CGetMinHeightU3Em__4_m2382889764
Bkg:_UInt32_ToString_m2574561716_AdjustorThunk
DI:__ZN11UnityEngine15CloudWebService14RestDownloader7OnAbortEv
tBj:_alloc_mark_stack
Xz:__ZNK11AudioSource22GetTypeVirtualInternalEv
emd:_HMACSHA384__cctor_m3009390673
lga:__ZNK13GfxDeviceGLES18GetDefaultRTFormatEv
yLc:_UNITY_FT_Get_Glyph_Name
sV:__Z13VFormatBufferPciPKcPi
Wjb:__Z19TransferField_ArrayI24GenerateTypeTreeTransfer27Converter_SimpleNativeClassI8GradientEEvRK23StaticTransferFieldInfoR31RuntimeSerializationCommandInfoRT0_
Mvi:_TlsCipherSuite__ctor_m3580955828
X6f:_Enumerator_System_Collections_IEnumerator_Reset_m2355925297_AdjustorThunk
bG:__ZN11UnityEngine15CloudWebService16SessionContainer16MarkAsDispatchedERKN4core12basic_stringIcNS2_20StringStorageDefaultIcEEEE
boe:_InternalEnumerator_1_System_Collections_IEnumerator_get_Current_m2667908392_gshared
GDb:__Z16CopyActiveLightsRK12ActiveLightsRS_
Gbc:__ZN16memory_pool_implILi28EE15AutoPoolWrapper10InitializeEPv
r9g:_List_1_System_Collections_IList_IndexOf_m3921550135_gshared
_xc:__ZN17Physics2DSettings8TransferI19StreamedBinaryWriteILb0EEEEvRT_
FOf:_Array_InternalArray__ICollection_Remove_TisUInt64_t4134040092_m2664745791_gshared
P9b:__Z26Transform_CUSTOM_IsChildOfP12Il2CppObjectS0_
dCi:_PatternLinkStack_SetCurrent_m366511098
CGj:__ZNSt3__26vectorINS_12basic_stringIDsNS_11char_traitsIDsEENS_9allocatorIDsEEEENS4_IS6_EEE18__construct_at_endEj
Jpg:_Color32__ctor_m4150508762_AdjustorThunk
idg:_UTF7Decoder__ctor_m546843796
_vf:_Double_System_IConvertible_ToUInt32_m271206838_AdjustorThunk
xda:__ZNK13GfxDeviceGLES11GetViewportEv
e1b:__ZN14AsyncOperation26ClearCachedScriptingObjectEv
Tba:__ZNK9ShaderLab11ShaderState34ShouldRemoveAnyUnsupportedProgramsEv
vLc:_UNITY_tt_face_load_cvt
Xth:_ReadOnlyCollection_1_System_Collections_IList_Add_m1881324749_gshared
j4i:__ZL32InitializeCustomAttributesCachesPv
eEa:__ZN20ArchiveStorageReaderD0Ev
f5:__ZN6Shader23VirtualRedirectTransferER19StreamedBinaryWriteILb0EE
Q$c:__ZN19TransportJavaScript7PrepareEv
$eh:_List_1_System_Collections_IList_IndexOf_m1088859899_gshared
_Fi:_Uri__ctor_m3848281005
nkc:__Z35Transfer_Blittable_FixedBufferFieldI8JSONReadaEvRK29SerializationCommandArgumentsR31RuntimeSerializationCommandInfo
Uab:__ZNK20LocalFileSystemPosix20GetApplicationFolderEv
kid:_StreamingContext_Equals_m2722903674_AdjustorThunk
dG:__ZN11UnityEngine15CloudWebService14DataDispatcher31SetupSessionContainerToDispatchEv
Erb:__Z29Transfer_Blittable_ArrayFieldI18StreamedBinaryReadILb0EE8Vector3fEvRT_R9ArrayInfoRK23StaticTransferFieldInfo
lkd:_CspParameters__ctor_m1928090281
XOa:__ZN9ShaderLab11shaderprops9GetVectorEPK19ShaderPropertySheetS3_NS_16FastPropertyNameE
vw:__ZN4FMOD12ChannelGroup10getDSPHeadEPPNS_3DSPE
bvc:__ZN10Collider2D9SetOffsetERK8Vector2f
Rv:__ZN12AudioManager17MainThreadCleanupEv
QGf:_Evidence_CopyTo_m872435527
Jpd:_SecurityParser_OnEndElement_m2088612360
TR:__ZNK6Camera18ScreenToWorldPointERK8Vector3f
Rlj:__ZN6il2cpp6icalls8mscorlib6System9Threading6Thread11GetDomainIDEv
uja:__ZNK13TranslateGLES13GetFormatDescE14GraphicsFormat
fBa:__ZN17ArchiveFileSystemD0Ev
CCi:_BackslashNumber_ResolveReference_m4176908213
Xpe:_InternalEnumerator_1_System_Collections_IEnumerator_get_Current_m888718134_AdjustorThunk
Jzd:_SynchronizedArrayListWrapper_IndexOf_m1028529531
ced:_GraphicRegistry_UnregisterGraphicForCanvas_m2540204166
sHb:__ZN14qsort_internal5QSortIP20ShadowCasterSortDatai26ShadowCasterSortDataSorterEEvT_S4_T0_T1_
OI:__ZN11UnityEngine15CloudWebService19SessionEventManager5StartERKN4core12basic_stringIcNS2_20StringStorageDefaultIcEEEEii
Ecc:__ZN16GUIKeyboardState16SaveFromGUIStateER8GUIState
ofb:__Z22TransferField_NonArrayI14SafeBinaryRead27Converter_SimpleNativeClassI8GradientEEvRK23StaticTransferFieldInfoR31RuntimeSerializationCommandInfoRT0_
Ef:_emscripten_glBufferData
HGh:_UnityEvent_2_FindMethod_Impl_m2569180594_gshared
KEb:__Z25DoForwardShaderRenderLoopRK17RenderLoopContextR13dynamic_arrayI16RenderObjectDataLj4EERK11CullResultsbbbN6Camera10RenderFlagE
aUc:__ZZN2UI23InitializeCanvasManagerEvEN53UIEventsCanvasManagerEmitOffScreenGeometryRegistrator7ForwardEv
If:_glUniform3iv
ewg:_Mesh_RecalculateBounds_m39931642
_wg:_Plane__ctor_m2890438515
wHi:_GUI_get_skin_m1874615010
fxc:__ZN20SpriteTilingProperty8TransferI18StreamedBinaryReadILb0EEEEvRT_
edh:_List_1_System_Collections_IList_Contains_m453976393_gshared
Ygc:__Z18Transfer_BlittableI9JSONWriteLb0E9BoundsIntEvRK29SerializationCommandArgumentsR31RuntimeSerializationCommandInfo
gig:_Type_GetMethod_m1197120913
xKj:_fwrite
P9d:_COMException__ctor_m3707984232
YZf:_DefaultComparer_Equals_m962817516_gshared
yVg:__Z107RuntimeInvoker_Void_t1185182177_Single_t1397266774_Single_t1397266774_Single_t1397266774_Single_t1397266774PFvvEPK10MethodInfoPvPS4_
ssb:__ZN13MonoBehaviourD0Ev
wTc:__ZN2UI6Canvas18UpdateEventIndexesEv
ffj:__ZN14dense_hash_mapI10KeyWrapperINSt3__24pairIPK9FieldInfoP11Il2CppClassEEEj17ReflectionMapHashIS8_ENS9_14EqualsComparerINS1_8equal_toIS8_EEEENS1_9allocatorINS2_IKS9_jEEEEE13set_empty_keyERSH_
TJi:_SymmetricTransform_CTS_m764800021
aKj:_pipe
Dxi:_SubjectAltNameExtension_ToString_m3628154311
Usg:_RenderPipelineManager_get_currentPipeline_m1638613344
kVi:_CanvasRenderer_SetPopMaterial_m2720611463
Abc:__Z54Register_UnityEngine_Rigidbody2D_set_velocity_Injectedv
vnc:__ZNK12b2MotorJoint10GetAnchorBEv
I7b:__Z50RectTransform_CUSTOM_INTERNAL_set_anchoredPositionP12Il2CppObjectRK13Vector2fIcall
j8:__ZNSt3__26vectorIN9ShaderLab19SerializedSubShaderENS_9allocatorIS2_EEE6resizeEj
ANh:_LayoutGroup_SetProperty_TisVector2_t2156229523_m2721164497_gshared
RAa:__ZN4FileC2Ev
WRg:__Z81RuntimeInvoker_Void_t1185182177_RuntimeObject_Double_t594665363_Int32_t2950945753PFvvEPK10MethodInfoPvPS4_
FMe:_BitConverterLE_UIntFromBytes_m3974925535
Hhg:_Type_GetTypeFromHandle_m1620074514
Iaj:__ZN15dense_hashtableINSt3__24pairIK10KeyWrapperINS1_IPK10MethodInfoP11Il2CppClassEEEjEES9_17ReflectionMapHashIS8_EN14dense_hash_mapIS9_jSD_NS9_14EqualsComparerINS0_8equal_toIS8_EEEENS0_9allocatorISB_EEE9SelectKeyESI_SK_E12maybe_shrinkEv
AFa:__ZN14BatchAllocator16AllocateInternalEPPvijjj
rtg:_GameObject_SendMessage_m3720186693
hUb:__Z13RegisterClassI6SpriteEvv
LOf:_Array_InternalArray__ICollection_Remove_TisKeyframe_t4206410242_m3222074551_gshared
_qd:_ArgumentException_get_Message_m520762021
rne:_InternalEnumerator_1_System_Collections_IEnumerator_get_Current_m1641466962_AdjustorThunk
h0i:__ZN14dense_hash_setI10KeyWrapperIPK17Il2CppGenericInstEN6il2cpp8metadata21Il2CppGenericInstHashENS4_14EqualsComparerINS6_24Il2CppGenericInstCompareEEENSt3__29allocatorIS4_EEEC2EjRKS7_RKSA_
l2e:_HybridDictionary_Switch_m3818192922
KAj:_min_bytes_allocd
uob:__ZN17AnimationCurveTplIfE15InvalidateCacheEv
N$e:_Selectable_Awake_m2577497063
hRf:_Array_compare_TisUIVertex_t4057497605_m3950502696_gshared
Vac:__Z29Mesh_Get_Custom_PropCanAccessP12Il2CppObject
bXa:__ZN6Sprite8TransferI19StreamedBinaryWriteILb0EEEEvRT_
Rze:_Enumerator_System_Collections_IEnumerator_get_Current_m2979767597_gshared
GUf:_Array_InternalArray__ICollection_CopyTo_TisLabelData_t360167391_m175414846_gshared
_Ke:_BigInteger_op_Implicit_m378428706
Pyc:__ZN10Collider2D27UpdateColliderMaterialStateEv
Dwg:_PlayerConnection_DisconnectedCallback_m1697017309
u4a:__Z14resize_trimmedINSt3__26vectorIi13stl_allocatorIiL18MemLabelIdentifier13ELi16EEEEEvRT_j
rsh:_ReadOnlyCollection_1_System_Collections_IList_Insert_m3464093077_gshared
Kwf:_Enum_System_IConvertible_ToDateTime_m3823814707
Co:FUNCTION_TABLE_iiiiiiiffiiiiiiiiiffffiiii
gwf:_Double_CompareTo_m3151899116_AdjustorThunk
lWd:_NumberFormatter_Init_m2982613221
oDc:_cf2_getMaxstack
K$d:_EnumBuilder_GetCustomAttributes_m166600193
gKi:_Check_Source_m4098695967
pCg:_SpaceAttribute__ctor_m2972541600
UFd:_Convert_ToInt32_m2128774575
Aye:_DefaultComparer_Compare_m297694671_gshared
kFe:_Enumerator_System_Collections_IEnumerator_Reset_m2917956982_gshared
BEc:_cff_parser_run
GCj:_GC_notify_or_invoke_finalizers
Juj:__ZN6il2cpp2os6Thread5SleepEjb
jKf:_String_Compare_m1293271421
$Jd:_Int32_System_IConvertible_ToDateTime_m1824716955_AdjustorThunk
EQj:_emscripten_glUniform3f__wrapper
On:FUNCTION_TABLE_viiiifii
oWf:_Dictionary_2_Init_m1051918563_gshared
l8g:_List_1_set_Item_m3289315279_gshared
vKd:_Int32_CompareTo_m2864982090
qxj:__ZN15dense_hashtableINSt3__24pairIK10KeyWrapperIPK19Il2CppGenericMethodEP10MethodInfoEES6_N6il2cpp8metadata23Il2CppGenericMethodHashEN14dense_hash_mapIS6_S9_SD_NS6_14EqualsComparerINSC_26Il2CppGenericMethodCompareEEENS0_9allocatorISA_EEE9SelectKeyESH_SJ_E4findERS7_
UFa:__ZN10TagManager23AddDefaultLayerIfNeededEv
hIa:__ZN10FlareLayer12AddToManagerEv
J1:__ZN18AsyncUploadManagerC2E10MemLabelId
jkj:__ZNK15dense_hashtableINSt3__24pairIK10KeyWrapperINS1_IP11Il2CppClassjEEES4_EES6_N6il2cpp8metadata14ArrayClassHashEN14dense_hash_mapIS6_S4_SB_NS6_14EqualsComparerINSA_17ArrayClassCompareEEENS0_9allocatorIS8_EEE9SelectKeyESF_SH_E12test_deletedEj
L1a:__ZN13BuildSettings23VirtualRedirectTransferER24GenerateTypeTreeTransfer
Mjb:__ZN24GenerateTypeTreeTransfer21TransferSTLStyleArrayINSt3__26vectorI8GUIStyle13stl_allocatorIS3_L18MemLabelIdentifier1ELi16EEEEEEvRT_17TransferMetaFlags
YFe:_Enumerator_get_Current_m926428745_AdjustorThunk
bEc:_cf2_arrstack_clear
zjc:__Z18Transfer_BlittableI8JSONReadLb1E8Vector2fEvRK29SerializationCommandArgumentsR31RuntimeSerializationCommandInfo
vDa:__ZN20ArchiveStorageReader15ReadFromStorageEyyPvPy
xwf:_Double_ToString_m1051753975
$sc:__ZNSt3__27__sort4IRN14Raycast2DQuery31RaycastHitsByFractionComparitorEP12RaycastHit2DEEjT0_S6_S6_S6_T_
BSc:__ZN2UI14CanvasRenderer23VirtualRedirectTransferER24GenerateTypeTreeTransfer
fAb:__Z16PresentAfterDrawN9GfxDevice11PresentModeE
Qka:__ZN10DynamicVBO19FillQuadIndexBufferER21DynamicVBOChunkHandle
Ayi:_PKCS12_Clone_m2085085101
xuc:__ZN18PlatformEffector2D21ContactUpdateCallbackEf
oyj:__ZN6il2cpp2vm6String8NewUtf16ERKNS_5utils10StringViewIDsEE
Fff:_MD5SHA1__ctor_m4081016482
OSj:_glGenFramebuffers__wrapper
nVj:_glBindBufferBase__wrapper
YUe:_LayoutGroup_GetAlignmentOnAxis_m1696038011
JZ:__ZN23TransformChangeDispatch15InitializeClassEPv
bFb:__ZN22MotionVectorRenderLoop16PerformRenderingER8JobFence
qUj:_glTexSubImage2D__wrapper
kI:__ZN11UnityEngine15CloudWebService18RestFileDownloader13OnReceiveDataEPKvj
rKc:_UNITY_TT_RunIns
uKc:_Current_Ppem
Xfc:__ZN5Unity9rapidjson6WriterI16TempBufferWriterNS0_4UTF8IcEES4_13JSONAllocatorE10StartArrayEv
sth:_ReadOnlyCollection_1_System_Collections_IEnumerable_GetEnumerator_m610559569_gshared
i3f:_GenericEqualityComparer_1_Equals_m3279253448_gshared
xPj:dynCall_iiiiiiiii
_4:__ZN6ShaderD0Ev
qTb:__ZN18BackgroundJobQueue19ScheduleJobInternalEPFvPvES0_RKNS_8JobFenceE
Hrj:__ZN6il2cpp2gc8GCHandle9GetTargetEj
EAb:__ZN25CameraStackRenderingState18EndStereoRenderingEv
wab:__ZN20LocalFileSystemPosix9SetLengthER13FileEntryDatay
rMd:_IntPtr_op_Explicit_m1593085246
aoi:__ZL64StandaloneInputModule_t2760469101_CustomAttributesCacheGeneratorP21CustomAttributesCache
KGj:__ZN6il2cpp5utils25NativeDelegateMethodCache17GetNativeDelegateEPFvvE
GKa:__Z27ConvertSubMeshesToTrianglesItEvR13dynamic_arrayI7SubMeshLj4EERS0_IhLj1EE
fk:_emscripten_glGetProgramiv
T2a:__ZN26PlayerSettingsSplashScreen8TransferI24GenerateTypeTreeTransferEEvRT_
toa:__ZN6prcoreL17RemapGenericFloatI18TexFormatRGBAFloat14TexFormatRHalfEEvPKNS_9InnerInfoE
Axf:_Environment_get_Platform_m520224871
nwf:_FormatException__ctor_m1479314061
Eg:_glScissor
Zzf:_CultureInfo_insert_into_shared_tables_m4239017467
cZc:__ZNSt3__26__treeINS_12__value_typeIN4core12basic_stringIcNS2_20StringStorageDefaultIcEEEE14CallbackArray2IRKS6_R8JSONReadEEENS_19__map_value_compareIS6_SD_NS_4lessIS6_EELb1EEE13stl_allocatorISD_L18MemLabelIdentifier6ELi16EEE7destroyEPNS_11__tree_nodeISD_PvEE
pVi:_CanvasRenderer_SplitUIVertexStreamsInternal_m3280623346
sWe:_CullStateChangedEvent__ctor_m4089558259
$vi:_TlsClientSettings_set_ClientCertificate_m3374228612
dQd:_MemoryStream_Read_m337792459
JVf:_Array_InternalArray__Insert_TisRuntimeObject_m1619219378_gshared
ORd:_StreamWriter_LowLevelWrite_m1318762026
PVd:_MulticastDelegate_GetHashCode_m3864330728
Eeh:_List_1_Insert_m1643593161_gshared
oLg:__Z133RuntimeInvoker_Int32_t2950945753_RuntimeObject_RuntimeObject_Int32_t2950945753_Int32_t2950945753_RuntimeObject_ContextU26_t3937453398PFvvEPK10MethodInfoPvPS4_
_ea:__ZN13GfxDeviceGLES21RegisterNativeTextureE9TextureIDi16TextureDimension
r8b:__Z44Register_UnityEngine_Material_DisableKeywordv
pn:FUNCTION_TABLE_iiiiiiif
ZMg:__Z118RuntimeInvoker_Int32_t2950945753_IntPtr_t_RuntimeObject_Int32_t2950945753_Int32_t2950945753_MonoIOErrorU26_t1548853198PFvvEPK10MethodInfoPvPS4_
LVj:_emscripten_glUniform4fv__wrapper
ln:FUNCTION_TABLE_iiiiiiii
W3:__ZN4core8hash_mapIiP4RTTIN11TypeManager27HashFunctorPersistentTypeIDENSt3__28equal_toIiEEEixERKi
sbd:_DefaultControls_CreateUIElementRoot_m3904573408
wBc:__ZN19ControllerHitReportD2Ev
Rqe:_InternalEnumerator_1_System_Collections_IEnumerator_get_Current_m4189894603_gshared
tEj:__ZN6il2cpp2os11MutexHandle4WaitEv
$H:__ZN11UnityEngine15CloudWebService23WebRequestUploadHandler8GetBytesEv
Kqg:_Debug_INTERNAL_CALL_DrawLine_m3121803950
uIf:_Single_System_IConvertible_ToChar_m1898259383
fna:__ZN6prcoreL12RemapGenericI11TexFormatI817TexFormatARGB4444EEvPKNS_9InnerInfoE
kVf:_Array_InternalArray__ICollection_CopyTo_TisVector2_t2156229523_m4226925582_gshared
GBf:_Guid_Equals_m1866984197_AdjustorThunk
x2a:__ZNK14PlayerSettings22GetTypeVirtualInternalEv
Jvh:_ReadOnlyCollection_1_System_Collections_IList_Insert_m2216746332_gshared
QEd:_Convert_ToChar_m2261593104
Axc:__ZN16CircleCollider2D16CheckConsistencyEv
Opj:__ZN15dense_hashtableINSt3__24pairIK10KeyWrapperINS1_IPKcS4_EEEiEES6_24NamespaceAndNamePairHashN14dense_hash_mapIS6_iS9_NS6_14EqualsComparerI26NamespaceAndNamePairEqualsEENS0_9allocatorIS8_EEE9SelectKeyESD_SF_EC2ERKSI_j
pTh:__ZL61ComImportAttribute_t1295173782_CustomAttributesCacheGeneratorP21CustomAttributesCache
Zwf:_Enum_FormatSpecifier_X_m2932245600
C_d:_DerivedType_GetInterfaces_m2159651138
Qog:_Camera_ScreenToViewportPoint_m3569032523
l2:__ZN15DirectorManager12RegisterJobsEP13PlayableGraph
WDd:_Stack_Push_m2529252115
Ldc:__Z38Event_CUSTOM_Internal_GetMousePositionP12Il2CppObjectP13Vector2fIcall
JI:__ZN11UnityEngine15CloudWebService14DataDispatcher10InitializeERKN4core12basic_stringIcNS2_20StringStorageDefaultIcEEEEPvjRNS0_18ICloudJobSchedulerE
v$c:__ZN22CrashReportingSettingsC2Ev
jEc:_cff_free_glyph_data
Hkd:_DESTransform__cctor_m244488330
yce:_ConfigHandler_ParseElement_m3124222564
tLf:_String_CreateString_m3400201881
uYd:_AssemblyName_OnDeserialization_m3779987437
uJ:__ZN11UnityEngine15CloudWebService14DataDispatcher17PlayerLoopHandlerEv
pFd:_Convert_ToDouble_m1177445661
Yfd:_HorizontalOrVerticalLayoutGroup_set_childControlHeight_m1806657287
ibf:_Interpreter_GetString_m94448266
XAg:_RectTransform_set_offsetMin_m1512629941
yZc:__ZN11UnityEngine7Connect15AppRunningEventC2Ejjjj
Dmj:__ZN6il2cpp2vm9Exception23GetInvalidCastExceptionEPKc
KP:__Z26GetManagedAttributeManagerv
LHj:__ZN6il2cpp6icalls8mscorlib6System8DateTime16GetTimeMonotonicEv
Yta:__ZN19ComputeShaderKernelC2ERKS_
WKa:__ZN4Mesh14ClearSkinCacheEv
JJd:_NumberFormatter_InitDecHexDigits_m829694854
Ehc:__Z18Transfer_BlittableI9JSONWriteLb0EjEvRK29SerializationCommandArgumentsR31RuntimeSerializationCommandInfo
uFh:_UnityAction_2_BeginInvoke_m1769266175_gshared
e8i:__ZN6il2cpp2os4File10DeleteFileERKNSt3__212basic_stringIcNS2_11char_traitsIcEENS2_9allocatorIcEEEEPi
$9:__ZL15GetIndexForNameRNSt3__23mapIN4core12basic_stringIcNS1_20StringStorageDefaultIcEEEEiNS_4lessIS5_EENS_9allocatorINS_4pairIKS5_iEEEEEERSA_
Tg:__exit
Uz:__ZN11AudioSource13AwakeFromLoadE17AwakeFromLoadMode
Ctg:_Input_GetAxis_m4009438427
pMd:_IntPtr_op_Inequality_m3063970704
eXc:__ZN22BaseUnityConnectClient19OnEnterStateStoppedEv
Sub:__ZL31FindActiveTransformWithPathImplPKcR10GameObjectb
CRj:_glViewport__wrapper
ETe:_InputField_get_preferredWidth_m2499328890
Hsh:_ReadOnlyCollection_1_System_Collections_Generic_ICollectionU3CTU3E_Add_m3521523143_gshared
GPj:b5
xmf:_SendRecordAsyncResult__ctor_m425551707
vYh:__ZL57DispIdAttribute_t491906453_CustomAttributesCacheGeneratorP21CustomAttributesCache
zPj:b0
APj:b1
BPj:b2
XZa:__ZN4Mesh8TransferI24GenerateTypeTreeTransferEEvRT_
dHg:__Z128RuntimeInvoker_Boolean_t97287965_Int32U26_t1369213839_RuntimeObject_SByte_t1669577662_SByte_t1669577662_ExceptionU26_t3600731591PFvvEPK10MethodInfoPvPS4_
Yic:__ZN9JSONWrite8TransferI13dynamic_arrayI10ColorRGBAfLj4EEEEvRT_PKc17TransferMetaFlags
JPj:b8
KPj:b9
m5i:__ZN6il2cpp2vm21ThreadPoolCompartmentC2Ev
TPa:__Z14resize_trimmedINSt3__26vectorIN4core12basic_stringIcNS2_20StringStorageDefaultIcEEEE13stl_allocatorIS6_L18MemLabelIdentifier1ELi16EEEEEvRT_j
$F:__ZN11UnityEngine15CloudWebService16SessionContainer13DeleteArchiveERKN4core12basic_stringIcNS2_20StringStorageDefaultIcEEEE
Rwf:_Enum_System_IConvertible_ToSingle_m1234919892
Z4e:_IPv6Address_Parse_m3004687047
QMc:_Vertical_Sweep_Step
gaj:__ZN15dense_hashtableINSt3__24pairIK10KeyWrapperIPK10Il2CppTypeEjEES6_N6il2cpp8metadata14Il2CppTypeHashEN14dense_hash_mapIS6_jSB_NS6_14EqualsComparerINSA_26Il2CppTypeEqualityComparerEEENS0_9allocatorIS8_EEE9SelectKeyESF_SH_E9copy_fromERKSK_j
BFh:__ZN18VirtActionInvoker2I17Scene_t2348375561S0_E6InvokeEjP12Il2CppObjectS0_S0_
PI:__ZN19CloudServiceHandler17PauseEventHandlerEb
cTc:__ZN2UI6Canvas29EncapsulateChildrenMeshBoundsEv
fca:__ZN19ShaderPropertySheetD0Ev
NLh:_Array_Sort_TisVector3_t3722313464_TisVector3_t3722313464_m3923377973_gshared
LZf:_DefaultComparer_GetHashCode_m605456464_gshared
nCf:_RIPEMD160Managed_HHH_m2839246531
Djg:_UInt32_Parse_m2778221109
ojb:__Z18Transfer_BlittableI24GenerateTypeTreeTransferLb0EaEvRK29SerializationCommandArgumentsR31RuntimeSerializationCommandInfo
_Se:_InputField_ProcessEvent_m2195684349
qed:_Graphic_OnEnable_m3893553015
IF:__ZN11UnityEngine15CloudWebService18CloudServiceConfigD2Ev
Koa:__ZN6prcoreL17RemapGenericFloatI15TexFormatRGHalf15TexFormatRFloatEEvPKNS_9InnerInfoE
M8a:__ZN2UI13RectTransform8TransferI19StreamedBinaryWriteILb0EEEEvRT_
M0d:_GenericTypeParameterBuilder_GetPropertyImpl_m2584778600
uUd:_MonoCustomAttrs_IsDefinedInternal_m2193933235
J6d:_MonoMethod_get_IsGenericMethodDefinition_m3024870835
BDa:__ZN20ArchiveStorageReader18DestroyCachedBlockEPNS_11CachedBlockE
Gdj:__ZN15dense_hashtableINSt3__24pairIK10KeyWrapperIPK14Il2CppAssemblyEPK22Il2CppMonoAssemblyNameEES6_N6il2cpp5utils11PointerHashIS4_EEN14dense_hash_mapIS6_SA_SF_NS6_14EqualsComparerINS0_8equal_toIS5_EEEENS0_9allocatorISB_EEE9SelectKeyESK_SM_E9copy_fromERKSP_j
t7b:__Z67Register_UnityEngine_Quaternion_INTERNAL_CALL_Internal_FromEulerRadv
qaa:__ZN9ShaderLab4Pass24CreateFromSerializedPassERKNS_14SerializedPassEPK6Shader
i9b:__Z61Register_UnityEngine_Texture2D_INTERNAL_CALL_GetPixelBilinearv
Old:_HMAC_Dispose_m3665032088
xl:_emscripten_set_deviceorientation_callback
NXa:__ZNK14Texture2DArray22GetTypeVirtualInternalEv
fne:_InternalEnumerator_1_System_Collections_IEnumerator_get_Current_m1277470738_gshared
Wcj:__ZN6il2cpp2vm10Reflection15GetParamObjectsEPK10MethodInfoP11Il2CppClass
G2:__ZN8Playable16ProcessPlayStateERK19DirectorVisitorInfo
Vnd:_X501_ToString_m2278029064
Opi:__ZL80Graphic_t1660335611_CustomAttributesCacheGenerator_Graphic_OnFillVBO_m1026749972P21CustomAttributesCache
c1a:__ZN14SafeBinaryRead21TransferSTLStyleArrayI13dynamic_arrayI9InputAxisLj4EEEEvRT_17TransferMetaFlags
Bnj:__ZN6il2cpp2vm13LivenessState14TraverseObjectEP12Il2CppObjectPS1_
pa:invoke_viifiii
wNa:__ZNK13RenderTexture12IsMemorylessEv
yba:__ZN9ShaderLab20SerializedSubProgram15AddTextureParamEPKciib16TextureDimension
noc:__ZNK7b2Mat3315GetSymInverse33EPS_
s4a:__ZN14SafeBinaryRead21TransferSTLStyleArrayINSt3__26vectorIN30RuntimeInitializeOnLoadManager15ClassMethodInfoE13stl_allocatorIS4_L18MemLabelIdentifier13ELi16EEEEEEvRT_17TransferMetaFlags
zCi:_Parser_NewParseException_m686511029
BWi:_HumanBone_t2465339518_marshal_pinvoke
Uqi:__ZL96Mask_t1803652131_CustomAttributesCacheGenerator_Mask_OnSiblingGraphicEnabledDisabled_m2583294479P21CustomAttributesCache
wAh:_Comparison_1_Invoke_m941130260_gshared
Yhg:_Type_GetType_m3605423543
Zuh:_ReadOnlyCollection_1_System_Collections_Generic_IListU3CTU3E_set_Item_m375376101_gshared
AUd:_MonoEnumInfo__ctor_m3350651181_AdjustorThunk
Mla:__ZN4crnd12crn_unpacker22decode_alpha_selectorsEv
AYg:__Z98RuntimeInvoker_ContactFilter2D_t3805203441_Int32_t2950945753_Single_t1397266774_Single_t1397266774PFvvEPK10MethodInfoPvPS4_
YWg:__Z74RuntimeInvoker_Vector2_t2156229523_Vector2_t2156229523_Vector2_t2156229523PFvvEPK10MethodInfoPvPS4_
yyb:__ZN16GeometryJobTasksC2E10MemLabelId
j3b:__ZN9Scripting30CreateScriptableObjectWithTypeE28ScriptingSystemTypeObjectPtrb
jRg:__Z131RuntimeInvoker_Int32_t2950945753_RuntimeObject_Int32_t2950945753_RuntimeObject_RuntimeObject_SByte_t1669577662_Int32U26_t1369213839PFvvEPK10MethodInfoPvPS4_
Zca:__ZN13GfxDeviceGLES19SetUserBackfaceModeEb
ZGb:__ZN30ForwardShaderRenderLoopScratchD2Ev
hjg:_UInt16_System_IConvertible_ToInt64_m3635199533_AdjustorThunk
