Cc:_glClearStencil
Xig:_UInt16_System_IConvertible_ToChar_m2096055221_AdjustorThunk
$og:__ZN23InterfaceActionInvoker1IP18Camera_t4157153871E6InvokeEjP11Il2CppClassP12Il2CppObjectS1_
YOf:_Array_TrueForAll_TisRuntimeObject_m1084992726_gshared
pgh:_List_1_Contains_m2043664690_gshared
Qvj:__ZN6il2cpp2vm5Array13GetByteLengthEP11Il2CppArray
hJh:_Array_InternalArray__set_Item_TisDateTime_t3738529785_m1331437427_gshared
HJi:_KeyBuilder_get_Rng_m3373220441
K$c:__ZN15DownloadHandler7OnAbortEv
BGa:__Z30GetIntermediateRendererManagerv
qBh:_U3CCreateWhereIteratorU3Ec__Iterator1D_1_System_Collections_Generic_IEnumeratorU3CTSourceU3E_get_Current_m1909387290_gshared
Zla:__Z21SourceMipLevelForBlitiiii
aLa:__ZN31CanvasBatchIntermediateRenderer15AddAsRenderNodeER15RenderNodeQueueRK20DeprecatedSourceData
mgg:_TimeSpan_get_Hours_m550761902
Oli:__ZL95CanvasRenderer_t2598313366_CustomAttributesCacheGenerator_CanvasRenderer_SetMaterial_m824577244P21CustomAttributesCache
fki:__ZL72GUISkin_t1244372282_CustomAttributesCacheGenerator_m_verticalSliderThumbP21CustomAttributesCache
gdi:__ZL63PlayableOutputHandle_t4208053793_CustomAttributesCacheGeneratorP21CustomAttributesCache
oTd:_UnmanagedMemoryStream_Write_m930787521
MXc:__ZN11UnityEngine7Connect14AppUpdateEventD0Ev
jSh:__ZL66RuntimeArray_CustomAttributesCacheGenerator_Array_Sort_m3287581440P21CustomAttributesCache
_K:__ZdlPv
mr:__ZN11UnityEngine9Animation28GenericAnimationBindingCacheD2Ev
Ndg:_UTF8Encoding_GetHashCode_m641510078
mAi:_X509Store_LoadCrl_m1881903843
BLh:_Array_Sort_TisUICharInfo_t75501106_TisUICharInfo_t75501106_m722747892_gshared
sAd:_CaseInsensitiveComparer__ctor_m2101975011
ZKg:__Z67RuntimeInvoker_Byte_t1134296376_Int32_t2950945753_Int32_t2950945753PFvvEPK10MethodInfoPvPS4_
AWa:__ZNSt3__26vectorI13dynamic_arrayI8Vector2fLj4EENS_9allocatorIS3_EEEC2INS_11__wrap_iterIPS3_EEEET_SB_RKS5_PNS_9enable_ifIXaasr21__is_forward_iteratorISB_EE5valuesr16is_constructibleIS3_NS_15iterator_traitsISB_E9referenceEEE5valueEvE4typeE
CJg:__Z53RuntimeInvoker_UInt32_t2560061978_Decimal_t2948259380PFvvEPK10MethodInfoPvPS4_
SMb:__Z18RestoreRenderStateR20CameraRenderOldStateR17ShaderPassContext
knb:__Z18Transfer_BlittableI18StreamedBinaryReadILb1EELb1E5RectTIfEEvRK29SerializationCommandArgumentsR31RuntimeSerializationCommandInfo
cjb:__Z18Transfer_BlittableI24GenerateTypeTreeTransferLb0E11ColorRGBA32EvRK29SerializationCommandArgumentsR31RuntimeSerializationCommandInfo
Xrb:__Z25scripting_class_from_name17ScriptingImagePtrPKcS1_
TRf:_Array_InternalArray__IndexOf_TisKeyValuePair_2_t3699644050_m1021241249_gshared
_ej:__ZN14dense_hash_mapI10KeyWrapperINSt3__24pairIPK12PropertyInfoP11Il2CppClassEEEj17ReflectionMapHashIS8_ENS9_14EqualsComparerINS1_8equal_toIS8_EEEENS1_9allocatorINS2_IKS9_jEEEEE15set_deleted_keyERSH_
ztb:__Z29scripting_class_enum_basetype17ScriptingClassPtr
ogh:_List_1_Clear_m3097985365_gshared
OL:__ZNK12BaseRenderer18GetRenderNodeCountEv
Ppc:__ZN16PhysicsManager2D7RaycastERK3RayfiR12RaycastHit2D
RQi:__ZN30GenericInterfaceActionInvoker1IP24SingleU5BU5D_t1444911251E6InvokeEPK10MethodInfoP12Il2CppObjectS1_
T2d:_PropertyBuilder_get_CanWrite_m2657562188
qxe:_InternalEnumerator_1_get_Current_m1477715453_gshared
q5f:_Enumerator__ctor_m2827156589_AdjustorThunk
zab:__ZNK20LocalFileSystemPosix6ParentERK13FileEntryDataRN4core12basic_stringIcNS3_20StringStorageDefaultIcEEEE
UAg:_RectTransform_GetWorldCorners_m3553547973
Amh:_Collection_1_System_Collections_IList_Remove_m1476284619_gshared
xIe:_ContractionComparer__ctor_m3439667810
oVd:_MonoType_IsPrimitiveImpl_m2401722705
wDf:_SHA1CryptoServiceProvider__ctor_m4195188793
jqg:_CSSMeasureFunc_BeginInvoke_m3802154595
Hcd:_Dropdown_Hide_m504034854
Lza:__ZN17PersistentManager22CheckInstanceIDsLoadedEPii
xTa:__ZN9Texture2D25CreateScaledAndPaddedDataEPP17SharedTextureDataS2_
vFg:_Vector2_get_up_m2647420593
Dja:__ZN7ApiGLES17CopyBufferSubDataEjjlll
WUf:_Array_InternalArray__ICollection_CopyTo_TisUInt64_t4134040092_m691431926_gshared
emh:__ZN23InterfaceActionInvoker2Ii22OrderBlock_t1585977831E6InvokeEjP11Il2CppClassP12Il2CppObjectiS0_
R4e:_IPAddress_ToString_m1181734207
Ubg:_StringBuilder_Append_m1965104174
Yec:__ZN5Unity9rapidjson15GenericDocumentINS0_4UTF8IcEE13JSONAllocatorS4_E11ParseStreamILj1ES3_NS0_25GenericInsituStringStreamIS3_EEEERS5_RT1_
r_i:__ZNSt3__26vectorIPK10Il2CppTypeNS_9allocatorIS3_EEE7reserveEj
p$f:_EqualityComparer_1__cctor_m3766928733_gshared
ZEb:__ZN25CameraStackRenderingState20GetOrCreateBuiltinRTE24BuiltinRenderTextureTypeii17DepthBufferFormat19RenderTextureFormatj22RenderTextureReadWrite14VRTextureUsagei
dFh:_UnityAction_1_Invoke_m610765085_gshared
BC:__ZN11AudioModule26SetDefaultMicrophoneDriverEPv
gdf:_Kernel_modInverse_m652700340
UXa:__ZNK14Texture2DArray26CanReuploadDataToGfxDeviceEv
mJb:__ZN17PrePassRenderLoop14RenderBasePassEP13RenderTextureRK14LightingLayersR13dynamic_arrayI16RenderObjectDataLj4EERbR10MinMaxAABB
zEa:__ZN17GlobalGameManager23VirtualRedirectTransferER17RemapPPtrTransfer
tJc:_sfnt_stream_close
Ncc:__ZN5IMGUI18RepaintModalWindowER8GUIState
i2e:_HybridDictionary_get_IsSynchronized_m2987560362
kU:__ZNK15dense_hashtableINSt3__24pairIKN9ShaderLab7Program23ShaderKeywordSetAndHashEPKNS2_10SubProgramEEES4_NS3_24ShaderKeywordHashFunctorEN14dense_hash_mapIS4_S8_SA_NS0_8equal_toIS4_EE13stl_allocatorIS9_L18MemLabelIdentifier67ELi16EEE9SelectKeyESD_SG_E23find_position_with_hashERS5_j
Yyf:_CompareInfo_Finalize_m404687489
DWa:__Z23SetSpriteMeshIndexCountP14SharedMeshDataj
Qdg:_UTF8Decoder_GetChars_m1236346907
wDg:_TouchScreenKeyboard_Open_m231964201
JOa:__ZN7Texture13SetFilterModeEi
Cyg:_Quaternion_GetHashCode_m2636680144_AdjustorThunk
rxb:__ZNSt3__26vectorINS_4pairIiN17InstancingBatcher12PropertyTypeEEE13stl_allocatorIS4_L18MemLabelIdentifier1ELi16EEE21__push_back_slow_pathIKS4_EEvRT_
xii:__ZL99AudioSource_t3935305588_CustomAttributesCacheGenerator_AudioSource_t3935305588____clip_PropertyInfoP21CustomAttributesCache
pxj:__ZN6il2cpp8metadata13GenericMethod9GetMethodEPK19Il2CppGenericMethod
wq:__ZNSt3__26vectorIN4core12basic_stringIcNS1_20StringStorageDefaultIcEEEENS_9allocatorIS5_EEE7reserveEj
RYd:_Default_SelectProperty_m1220817815
bbe:_RemotingConfiguration_IsRemotelyActivatedClientType_m4117048589
WAg:_Transform_TransformPoint_m226827784
XHh:_ListPool_1_Get_m738675669_gshared
wda:__ZN13GfxDeviceGLES11SetViewportERK5RectTIiE
Td:_emscripten_glDepthRange
Mui:_SslStreamBase_BeginNegotiateHandshake_m4180435790
gPb:__ZNSt3__26vectorINS_4pairIN4core12basic_stringIcNS2_20StringStorageDefaultIcEEEES6_EE13stl_allocatorIS7_L18MemLabelIdentifier38ELi16EEE12__move_rangeEPS7_SC_SC_
G6:__Z14resize_trimmedINSt3__26vectorIN9ShaderLab20SerializedSubProgram12UAVParameterENS0_9allocatorIS4_EEEEEvRT_j
qfc:__ZN5Unity9rapidjson13GenericReaderINS0_4UTF8IcEES3_13JSONAllocatorE11ParseObjectILj1ENS0_25GenericInsituStringStreamIS3_EENS0_15GenericDocumentIS3_S4_S4_EEEEvRT0_RT1_
f7c:_StandaloneInputModule_GetRawMoveVector_m2737091079
h1b:__ZN13BuildSettings34ConvertScenePathToDisplayScenePathERKN4core12basic_stringIcNS0_20StringStorageDefaultIcEEEE
Pri:__ZL62Selectable_t3250028441_CustomAttributesCacheGenerator_m_ColorsP21CustomAttributesCache
uvi:_SslStreamBase_EndWrite_m4073224031
KR:__ZNSt3__218__insertion_sort_3IRNS_6__lessI14ObjectLoadDataS2_EEPS2_EEvT0_S6_T_
Jii:__ZL92Event_t2956885303_CustomAttributesCacheGenerator_Event_Internal_GetMousePosition_m1101229675P21CustomAttributesCache
w9g:_List_1_System_Collections_ICollection_get_SyncRoot_m1244917400_gshared
PFh:__ZN23InterfaceActionInvoker4IP12Il2CppObjectS1_S1_S1_E6InvokeEjP11Il2CppClassS1_S1_S1_S1_S1_
tla:__ZN4crndL20crnd_default_reallocEPvjPjbS0_
M4g:__Z54RuntimeInvoker_CustomAttributeNamedArgument_t287865710PFvvEPK10MethodInfoPvPS4_
jLj:__ZNSt3__212basic_stringIcNS_11char_traitsIcEENS_9allocatorIcEEEC2ERKS5_
tXa:__ZN18SpriteAtlasManager19AddRequestingSpriteE4PPtrI6SpriteE
Y8b:__Z33Texture_CUSTOM_Internal_GetHeightP12Il2CppObject
hji:__ZL102GUIStyle_t3956901511_CustomAttributesCacheGenerator_GUIStyle_INTERNAL_CALL_GetRectOffsetPtr_m152975056P21CustomAttributesCache
kA:__ZNK4PPtrI9AudioClipEptEv
GGe:_ValueCollection_System_Collections_ICollection_get_SyncRoot_m3381653267_gshared
U8c:_CanvasScaler_get_defaultSpriteDPI_m871626936
XLb:__ZN23ScriptableRenderContextC2Ev
vfd:_GridLayoutGroup_get_spacing_m2409263614
NGa:__ZN4PPtrI13RenderTextureE8TransferI18StreamedBinaryReadILb0EEEEvRT_
zFe:_Enumerator_MoveNext_m3051926902_gshared
t8f:_List_1_CheckIndex_m581273900_gshared
nLc:_UNITY_FT_Stream_GetChar
nGg:_WaitForSeconds_t1699091251_marshal_pinvoke
lIh:_ObjectPool_1_get_countAll_m819305395_gshared
Lnb:__Z18Transfer_BlittableI18StreamedBinaryReadILb1EELb1EdEvRK29SerializationCommandArgumentsR31RuntimeSerializationCommandInfo
Vbh:_List_1_ToArray_m190175978_gshared
Htb:__Z26BuildSerializationCacheFor17ScriptingClassPtrRb
i3c:_EventSystem_get_firstSelectedGameObject_m1576206896
Dra:__ZN7ApiGLES15BlitFramebufferEN2gl6HandleILNS0_10ObjectTypeE9EEENS0_15FramebufferReadES3_S3_iiiiiiiiNS0_15FramebufferTypeE
rhj:_il2cpp_class_get_name
BUg:__Z112RuntimeInvoker_RuntimeObject_RuntimeObject_RuntimeObject_RuntimeObject_RuntimeObject_RuntimeObject_RuntimeObjectPFvvEPK10MethodInfoPvPS4_
Fwe:_InternalEnumerator_1_System_Collections_IEnumerator_get_Current_m3553395619_AdjustorThunk
LUh:__ZL70AssemblyVersionCompatibility_t766556580_CustomAttributesCacheGeneratorP21CustomAttributesCache
$rd:_Array_SetValue_m3998268557
Ilc:__ZN8JSONRead8TransferI8Vector4fEEvRT_PKc17TransferMetaFlagsb
R9c:_ColorBlock_set_highlightedColor_m2089444414_AdjustorThunk
N0g:__Z59RuntimeInvoker_Boolean_t97287965_X509ChainStatus_t133602714PFvvEPK10MethodInfoPvPS4_
DAg:_RectTransform_INTERNAL_set_anchoredPosition_m939517950
Wkf:_Context_EndSwitchingSecurityParameters_m4148956166
rGc:_otv_PairPos_validate
F2h:__ZL63ThreadStateException_t3003788475_CustomAttributesCacheGeneratorP21CustomAttributesCache
v6i:__ZN6il2cpp6icalls8mscorlib6SystemL8IsStaticEPK12PropertyInfo
Yub:__Z9InitInputv
kej:__ZN30dense_hashtable_const_iteratorINSt3__24pairIK10KeyWrapperIPK22Il2CppGenericParameterEPK24MonoGenericParameterInfoEES6_N6il2cpp5utils11PointerHashIS4_EEN14dense_hash_mapIS6_SA_SF_NS6_14EqualsComparerINS0_8equal_toIS5_EEEENS0_9allocatorISB_EEE9SelectKeyESK_SM_E30advance_past_empty_and_deletedEv
akb:__Z29Transfer_Blittable_ArrayFieldI24GenerateTypeTreeTransfer11ColorRGBA32EvRT_R9ArrayInfoRK23StaticTransferFieldInfo
vaj:__ZN6il2cpp2gc19AppendOnlyGCHashMapINSt3__24pairIPK10MethodInfoP11Il2CppClassEEP22Il2CppReflectionMethod17ReflectionMapHashIS9_ENS2_8equal_toIS9_EEE3AddERKS9_SB_
Ebb:__ZN16MemoryFileSystem6DeleteER13FileEntryDatab
UNg:__Z81RuntimeInvoker_Void_t1185182177_RuntimeObject_Int64_t3736567304_Int32_t2950945753PFvvEPK10MethodInfoPvPS4_
E9f:_List_1_set_Item_m1979164443_gshared
hTf:_Array_InternalArray__ICollection_Add_TisLink_t3209266973_m77922316_gshared
pma:__ZL21BlitScaleStbImageImplRK14ImageReferenceRS_NS_10ColorSpaceE
Nud:_Boolean_System_IConvertible_ToUInt16_m3465173538_AdjustorThunk
Jsc:__ZNSt3__26__sortIR31RayHitsByInverseDepthComparitorP12RaycastHit2DEEvT0_S5_T_
GRe:_InputField_get_keyboardType_m1248105267
Veb:__Z29Transfer_Blittable_ArrayFieldI14SafeBinaryReadyEvRT_R9ArrayInfoRK23StaticTransferFieldInfo
sA:__ZN20SoundChannelInstance15setChannelGroupEPN4FMOD12ChannelGroupE
NAi:_Match__ctor_m2425511580
KVh:__ZL63FileNotFoundException_t225391025_CustomAttributesCacheGeneratorP21CustomAttributesCache
v9h:__ZL84Behaviour_t1437897464_CustomAttributesCacheGenerator_Behaviour_set_enabled_m20417929P21CustomAttributesCache
qc:invoke_vifffii
vqb:__Z35Transfer_Blittable_FixedBufferFieldI18StreamedBinaryReadILb0EEaEvRK29SerializationCommandArgumentsR31RuntimeSerializationCommandInfo
mmj:__ZN6il2cpp2vm9Exception27RaiseNullReferenceExceptionEv
CCa:__ZNK25MultiBlocksMemoryFileData5CloneEv
mqe:_InternalEnumerator_1_System_Collections_IEnumerator_Reset_m3873091784_AdjustorThunk
ZCj:_GC_add_ext_descriptor
M8i:__ZNK15dense_hashtableINSt3__24pairIK10KeyWrapperINS1_IPK14Il2CppAssemblyP11Il2CppClassEEEjEES9_17ReflectionMapHashIS8_EN14dense_hash_mapIS9_jSD_NS9_14EqualsComparerINS0_8equal_toIS8_EEEENS0_9allocatorISB_EEE9SelectKeyESI_SK_E23find_position_with_hashERSA_j
vNh:_LayoutGroup_SetProperty_TisSingle_t1397266774_m793506911_gshared
aEj:__ZN6il2cpp2os14WindowsRuntime22GetRestrictedErrorInfoEv
_jd:_CryptoConfig_CreateFromName_m1538277313
nih:_Queue_1__ctor_m263978079_gshared
HBa:__ZN17ArchiveFileSystem11CreateAsDirER13FileEntryData
kNj:dynCall_iiiiiiiiiiii
RRe:_InputField_set_caretPositionInternal_m3823580651
qZc:__ZN18UnityConnectClient16IsServiceEnabledEv
Lxa:__ZN22VertexDeclarationCacheD0Ev
F$e:_Selectable_set_interactable_m3105888815
mLa:__ZL26KeywordSetToStringDontSortRKNSt3__26vectorIN4core12basic_stringIcNS1_20StringStorageDefaultIcEEEENS_9allocatorIS5_EEEERS5_
hoa:__ZN6prcoreL17RemapGenericFloatI16TexFormatRGFloat17TexFormatRGBAHalfEEvPKNS_9InnerInfoE
zu:__ZN12AudioManager22CreateFMODSoundFromWWWEP10IWWWStream15FMOD_SOUND_TYPE17FMOD_SOUND_FORMATjjbbP10SampleClip
JXb:__ZNK32RendererMaterialAnimationBinding15GenerateBindingERKN4core12basic_stringIcNS0_20StringStorageDefaultIcEEEEbRN11UnityEngine9Animation14GenericBindingE
c8d:_TargetException__ctor_m4172127019
S_h:__ZL58BinaryFormatter_t3197753202_CustomAttributesCacheGeneratorP21CustomAttributesCache
Rah:_List_1_CheckCollection_m274117203_gshared
qmi:__ZL70EventSystem_t1003666588_CustomAttributesCacheGenerator_m_FirstSelectedP21CustomAttributesCache
fO:__ZN8Remapper23GetOrGenerateInstanceIDERK26SerializedObjectIdentifier
Dad:_ColorTween_get_startColor_m3792586410_AdjustorThunk
OBa:__ZN17FileSystemHandler10AtomicMoveER13FileEntryDataS1_
_a:invoke_iiiiiifffiiifii
RKg:__Z85RuntimeInvoker_Void_t1185182177_Int32_t2950945753_Int32_t2950945753_Int32_t2950945753PFvvEPK10MethodInfoPvPS4_
bke:_BinaryFormatter_get_SurrogateSelector_m2111882017
j9e:_X509Chain__ctor_m2878811474
xod:_X509CertificateCollection__ctor_m3365535796
KWd:_CustomInfo__ctor_m426096741
LPi:__ZL25UnresolvedVirtualCall_220P12Il2CppObjectfPK10MethodInfo
A3c:_EventSystem_ToString_m3779610692
OWa:__ZN6Sprite8TransferI24GenerateTypeTreeTransferEEvRT_
rie:_SoapTypeAttribute_get_IsInteropXmlType_m629667929
gac:__Z48Register_UnityEngine_Transform_SetAsFirstSiblingv
_Qa:__ZNK18DelayedCallManager22GetTypeVirtualInternalEv
RWa:__ZN7SubMesh8TransferI24GenerateTypeTreeTransferEEvRT_
YEi:_Literal_IsComplex_m4067122560
N7i:_NativeTypeAttribute__ctor_m133676646
vyb:__ZN19GfxThreadableDevice20SetShadersThreadableEPP10GpuProgramPPK20GpuProgramParametersPKPKh
oph:_Collection_1_System_Collections_IList_Contains_m296643274_gshared
hNd:_DirectoryInfo__ctor_m126519516
B4d:_MethodBase_GetMethodFromIntPtr_m3014201362
Gmh:__ZN21InterfaceFuncInvoker1I19Color32_t2600501292iE6InvokeEjP11Il2CppClassP12Il2CppObjecti
aEi:_Reference_get_CapturingGroup_m3861468528
yKg:__Z40RuntimeInvoker_TypeAttributes_t113483779PFvvEPK10MethodInfoPvPS4_
X1b:__ZN9Transform23SetSiblingIndexInternalEib
Dbh:_List_1_Clear_m1143167521_gshared
_Jc:_tt_size_request
lrh:_Collection_1_SetItem_m794903769_gshared
ADd:_Enumerator_MoveNext_m635366482
Mod:_X509Extension_Equals_m1222951829
t6g:__Z37RuntimeInvoker_Enumerator_t1789501480PFvvEPK10MethodInfoPvPS4_
mrj:__ZN6il2cpp8metadata15GenericMetadata15GetGenericClassEiPK17Il2CppGenericInst
Axd:_Char_GetTypeCode_m2433327340_AdjustorThunk
udb:__Z18Transfer_BlittableI14SafeBinaryReadLb0E10Matrix4x4fEvRK29SerializationCommandArgumentsR31RuntimeSerializationCommandInfo
Ysb:__Z24GetFixedBehaviourManagerv
WQh:__ZL69IntPtr_t_CustomAttributesCacheGenerator_IntPtr_op_Equality_m408849716P21CustomAttributesCache
r5i:__ZN6il2cpp2vm10ThreadPool4WaitEP17Il2CppAsyncResultPPv
M1e:_Text_UpdateGeometry_m3634850647
eqd:_Activator_CreateInstance_m94526014
zIj:_vfprintf
kdc:__ZN10GUIManager12AddGUIScriptER8ListNodeI13MonoBehaviourE
rwf:_NumberFormatInfo_get_PositiveInfinitySymbol_m1141345134
PDd:_Stack_Clear_m2010200235
zQa:__ZL13SortTexByNameRKNSt3__24pairIN9ShaderLab16FastPropertyNameEN18UnityPropertySheet11UnityTexEnvEEES7_
XCc:_cf2_getVStore
q5c:_PointerEventData_set_pointerPressRaycast_m1363193059
VCb:__ZN20DynamicPropertySheetD0Ev
Fae:_SafeHandle_Dispose_m4229010569
Bbc:__Z48Register_UnityEngine_CircleCollider2D_get_radiusv
xei:__ZL77RuntimePlatform_t4159857903_CustomAttributesCacheGenerator_OSXDashboardPlayerP21CustomAttributesCache
oY:__ZN35RegisterRuntimeInitializeAndCleanup8RegisterEPFvPvES2_iS0_
Cxi:_SubjectAltNameExtension_get_IPAddresses_m1641002124
x0d:_FieldBuilder_SetValue_m828035213
wIh:_Array_InternalArray__Insert_TisSingle_t1397266774_m3161726127_gshared
Uwh:_ReadOnlyCollection_1_System_Collections_IList_get_IsFixedSize_m733459177_gshared
gxc:__ZN4PPtrI17PhysicsMaterial2DE8TransferI18StreamedBinaryReadILb0EEEEvRT_
bBh:__ZN28GenericInterfaceFuncInvoker0IfE6InvokeEPK10MethodInfoP12Il2CppObject
rRh:__ZL72Enum_t4135868527_CustomAttributesCacheGenerator_Enum_ToObject_m121962870P21CustomAttributesCache
c9f:__ZN23InterfaceActionInvoker2IP24ObjectU5BU5D_t2843939325iE6InvokeEjP11Il2CppClassP12Il2CppObjectS1_i
kac:__Z21Object_CUSTOM_DestroyP12Il2CppObjectf
Nei:__ZL99SetupCoroutine_t2062820429_CustomAttributesCacheGenerator_SetupCoroutine_InvokeMoveNext_m3199342729P21CustomAttributesCache
jca:__ZN8Material26ResetAllCachedMaterialDataEP6Shader
MRg:__Z63RuntimeInvoker_Void_t1185182177_RuntimeObject_Int16_t2552820387PFvvEPK10MethodInfoPvPS4_
zLc:_UNITY_TT_Get_MM_Var
dle:_ObjectManager_AddFixup_m2154325362
Hye:_Comparer_1__cctor_m3761458313_gshared
vrf:_DateTimeOffset_CompareTo_m1350732322_AdjustorThunk
ba:invoke_diddi
iTc:__ZNK2UI6Canvas13GetRenderModeEv
dsg:_PersistentCall__ctor_m1217622171
YQf:_Array_compare_TisCustomAttributeTypedArgument_t2723150157_m1384644047_gshared
JPe:_StrongName_get_TokenAlgorithm_m1794722022
Fcb:__Z18Transfer_BlittableI14SafeBinaryReadLb0EiEvRK29SerializationCommandArgumentsR31RuntimeSerializationCommandInfo
d4i:__ZN6il2cpp2vm13MetadataCache30GetPropertyDefinitionFromIndexEi
PJi:_SymmetricTransform_Transform_m1683494363
Kzg:_Rect_Contains_m1232228501
SZc:__ZN22BaseUnityConnectClient17InitializeSessionERKN4core12basic_stringIcNS0_20StringStorageDefaultIcEEEES6_N19CloudServiceHandler13InitModeFlagsE
UXg:__Z74RuntimeInvoker_RuntimeObject_Int32_t2950945753_RuntimeObject_RuntimeObjectPFvvEPK10MethodInfoPvPS4_
Lgh:_List_1_get_Item_m200663048_gshared
She:_ReturnMessage_get_Exception_m3375728265
nTj:_emscripten_glDeleteBuffers__wrapper
kse:_InternalEnumerator_1_MoveNext_m3664960764_AdjustorThunk
A3b:__ZN13MonoBehaviour34StopCoroutineFromEnumeratorManagedE18ScriptingObjectPtr
j9g:_List_1__ctor_m1345008423_gshared
xJc:_gray_raster_reset
NTi:_objectRotate_OnCollisionEnter2D_m3917945325
BFg:_Vector3__ctor_m1719387948_AdjustorThunk
U4a:__ZN30RuntimeInitializeOnLoadManager8TransferI18StreamedBinaryReadILb0EEEEvRT_
Hqf:_DateTimeOffset__ctor_m2084804982
OHc:_UNITY_tt_face_load_pclt
rcb:__ZN9profiling17ScriptingProfiler31UpdateRegisteredScriptingEventsEv
a3b:__ZL34GetComponentsImplementationRecurseILb1ELi0ELi2EEbR10GameObjectbRK17CompareParametersRK39GetComponentsImplementation_ReturnValue
awc:__ZN10ClipperLib7Clipper24InsertLocalMinimaIntoAELEx
Uta:__ZN20ComputeShaderVariantD2Ev
yug:_Material_GetTexture_m3545614349
DIg:__Z64RuntimeInvoker_RuntimeObject_Int32_t2950945753_Int16_t2552820387PFvvEPK10MethodInfoPvPS4_
oMe:_ASN1_get_Length_m1923878580
ZTi:_playerBehavior_Update_m2157232042
l0f:_EqualityComparer_1__cctor_m4244842342_gshared
qCb:__ZNK6Camera18WorldToScreenPointERK8Vector3fPb
$Bg:_SendMouseEvents_DoSendMouseEvents_m2140870850
NBi:_PatternCompiler_EmitJump_m3915926156
Mqa:__Z18IsCompressedFormat14GraphicsFormat
Ahd:_SerializationEntry_get_Name_m1530029541_AdjustorThunk
E3e:_TypeConverterAttribute_GetHashCode_m948291090
Bgg:__Z33il2cpp_codegen_check_add_overflowxx
hN:__ZNSt3__227__insertion_sort_incompleteIRPFbRKN18AwakeFromLoadQueue4ItemES4_EPS2_EEbT0_S9_T_
NXg:__Z71RuntimeInvoker_Boolean_t97287965_AnimatorControllerPlayable_t1015767841PFvvEPK10MethodInfoPvPS4_
Fei:__ZL73RuntimePlatform_t4159857903_CustomAttributesCacheGenerator_MetroPlayerARMP21CustomAttributesCache
AMd:_InvalidOperationException__ctor_m1685032583
c2i:__ZN14dense_hash_mapI10KeyWrapperIN6il2cpp5utils13dynamic_arrayIPK10Il2CppTypeLj4EEEEPFvvENS1_8metadata19Il2CppSignatureHashENS8_14EqualsComparerINSB_22Il2CppSignatureCompareEEENSt3__29allocatorINSG_4pairIKS8_SA_EEEEE15set_deleted_keyERSJ_
hhg:_TimeSpan_op_Subtraction_m3592306516
j2f:_EqualityComparer_1_System_Collections_IEqualityComparer_GetHashCode_m1517903420_gshared
oUa:__ZN26EnlightenSystemInformation8TransferI14SafeBinaryReadEEvRT_
Z3a:__ZN24GenerateTypeTreeTransfer8TransferINSt3__26vectorIN15ResourceManager10DependencyE13stl_allocatorIS4_L18MemLabelIdentifier52ELi16EEEEEEvRT_PKc17TransferMetaFlags
oVi:_CanvasRenderer_SplitUIVertexStreams_m2753637362
IZg:__Z119RuntimeInvoker_Void_t1185182177_RuntimeObject_Single_t1397266774_Single_t1397266774_SByte_t1669577662_Int32_t2950945753PFvvEPK10MethodInfoPvPS4_
g$c:__ZN11UnityEngine15PlatformWrapper20SetPlayerPrefsUInt64ERKN4core12basic_stringIcNS1_20StringStorageDefaultIcEEEEy
c$a:__ZN12MeshRendererD0Ev
OD:__ZN12AudioManager35GetCurrentSpatializerDefinitionNameEv
BDg:_TouchScreenKeyboard_get_active_m4267591905
Idj:__ZNK15dense_hashtableINSt3__24pairIK10KeyWrapperIPK14Il2CppAssemblyEPK22Il2CppMonoAssemblyNameEES6_N6il2cpp5utils11PointerHashIS4_EEN14dense_hash_mapIS6_SA_SF_NS6_14EqualsComparerINS0_8equal_toIS5_EEEENS0_9allocatorISB_EEE9SelectKeyESK_SM_E8min_sizeEjj
Eh:_utime
qgi:__ZL56PlayableGraph_t3515989261_CustomAttributesCacheGeneratorP21CustomAttributesCache
eEi:_BalancingGroup_Compile_m2575117193
ngj:__ZNSt3__26vectorIN6il2cpp2vm17TypeNameParseInfoENS_9allocatorIS3_EEE8allocateEj
IAi:_Mark_get_Index_m3048692661_AdjustorThunk
uwi:_TlsServerSettings_get_CertificateRequest_m842655670
xn:FUNCTION_TABLE_viiiiif
lye:_DefaultComparer_Compare_m3931992727_gshared
Cn:FUNCTION_TABLE_viiiiii
hxe:_InternalEnumerator_1_System_Collections_IEnumerator_get_Current_m1847780851_AdjustorThunk
FIi:_GUILayoutUtility_get_spaceStyle_m3392862907
oKd:_Int32_System_IConvertible_ToType_m3009233912_AdjustorThunk
Iqf:_DateTimeOffset__ctor_m74032857
aig:_Type_type_is_assignable_from_m76737532
NWe:_MaskableGraphic_ParentMaskStateChanged_m1092090553
qJb:__ZN15LightmapSTCacheC2ER13BatchRendererR15RenderLoopStats
M4a:__ZNSt3__26vectorIN4core12basic_stringIcNS1_20StringStorageDefaultIcEEEE13stl_allocatorIS5_L18MemLabelIdentifier13ELi16EEE8__appendEj
WI:__ZN19CloudServiceHandler20StartEventDispatcherERKN11UnityEngine15CloudWebService18CloudServiceConfigERNS1_23WebRequestRestHeaderMapE
B5h:__ZL64MissingFieldException_t1989070983_CustomAttributesCacheGeneratorP21CustomAttributesCache
Nyh:_ReadOnlyCollection_1_System_Collections_Generic_ICollectionU3CTU3E_Add_m2369252587_gshared
Zqc:__ZN24b2ChainAndCapsuleContact8EvaluateEP10b2ManifoldRK11b2TransformS4_
Xwi:_ValidationResult_get_ErrorCode_m1533688152
D9b:__Z43Transform_CUSTOM_INTERNAL_get_localRotationP12Il2CppObjectP11Quaternionf
Dzf:_CultureInfo_get_Parent_m672689885
sDj:__ZN6il2cpp6icalls8mscorlib6System10Reflection4Emit13ModuleBuilder13RegisterTokenEP29Il2CppReflectionModuleBuilderP12Il2CppObjecti
rQg:__Z50RuntimeInvoker_Int64_t3736567304_SByte_t1669577662PFvvEPK10MethodInfoPvPS4_
E7e:_X509Certificate2_GetValueAsString_m1348462142
nji:__ZL87GUIStyle_t3956901511_CustomAttributesCacheGenerator_GUIStyle_SetDefaultFont_m1581452579P21CustomAttributesCache
tRj:_glGetShaderInfoLog__wrapper
Qke:_ObjectReader_ReadObjectGraph_m340866276
dEe:_Transform_1_EndInvoke_m2716226219_gshared
hi:_emscripten_glGetTexParameteriv
oXc:__ZN11UnityEngine7Connect15DeviceInfoEvent7GFXInfoD2Ev
QSj:_glGenTextures__wrapper
gjj:__ZN15dense_hashtableINSt3__24pairIK10KeyWrapperINS1_IP11Il2CppClassjEEES4_EES6_N6il2cpp8metadata14ArrayClassHashEN14dense_hash_mapIS6_S4_SB_NS6_14EqualsComparerINSA_17ArrayClassCompareEEENS0_9allocatorIS8_EEE9SelectKeyESF_SH_EC2EjRKSB_RKSF_RKSJ_
Ccg:_UnicodeEncoding_GetHashCode_m354003420
b7:__ZN9ShaderLab20SerializedSubProgram14ConstantBufferaSERKS1_
WTb:__Z13RegisterClassI4MeshEvv
Mhi:__ZL74SharedBetweenAnimatorsAttribute_t2857104338_CustomAttributesCacheGeneratorP21CustomAttributesCache
wxf:_Enum_Equals_m3617313991
dWg:__Z98RuntimeInvoker_Boolean_t97287965_PlayableOutputHandle_t4208053793_PlayableOutputHandle_t4208053793PFvvEPK10MethodInfoPvPS4_
Y$g:__Z74RuntimeInvoker_Boolean_t97287965_LineTypeU26_t2430394419_Int32_t2950945753PFvvEPK10MethodInfoPvPS4_
UI:__ZN11UnityEngine15CloudWebService19SessionEventManager4StopEv
cw:__ZN12AudioManager8TransferI19StreamedBinaryWriteILb0EEEEvRT_
g0e:_Slider_UpdateCachedReferences_m3259451627
j7h:__ZL63X509ChainStatusFlags_t1026973125_CustomAttributesCacheGeneratorP21CustomAttributesCache
EAi:_LinkStack_Pop_m4048583474
POg:__Z60RuntimeInvoker_Void_t1185182177_StreamingContext_t3711869237PFvvEPK10MethodInfoPvPS4_
Bob:__ZN18StreamedBinaryReadILb1EE21TransferSTLStyleArrayI13dynamic_arrayI11ColorRGBA32Lj4EEEEvRT_17TransferMetaFlags
_jj:__ZN15dense_hashtableINSt3__24pairIK10KeyWrapperINS1_IP11Il2CppClassjEEES4_EES6_N6il2cpp8metadata14ArrayClassHashEN14dense_hash_mapIS6_S4_SB_NS6_14EqualsComparerINSA_17ArrayClassCompareEEENS0_9allocatorIS8_EEE9SelectKeyESF_SH_E6insertERKS8_
cdd:_U3CShowU3Ec__AnonStorey1_U3CU3Em__0_m2340880019
t$e:_Selectable_OnSetProperty_m1693943217
p8f:_List_1_GetIndex_m2300811709_gshared
IXb:__ZNK32RendererMaterialAnimationBinding12GetPPtrValueERKN11UnityEngine9Animation10BoundCurveE
Gpb:__Z18Transfer_BlittableI18StreamedBinaryReadILb0EELb0E8Vector2fEvRK29SerializationCommandArgumentsR31RuntimeSerializationCommandInfo
VLf:_ASCIIEncoding_GetString_m58523364
Cxc:__ZN16CircleCollider2D10SmartResetEv
qLj:__ZNSt3__212basic_stringIcNS_11char_traitsIcEENS_9allocatorIcEEE21__grow_by_and_replaceEjjjjjjPKc
Rwi:_TlsStream_Flush_m3793197834
l9f:_List_1_GetIndex_m2832472557_gshared
hab:__ZN22LocalFileSystemHandler9MakeLocalER13FileEntryDatab
Pyj:__ZN6il2cpp2vm8Profiler10AllocationEP12Il2CppObjectP11Il2CppClass
Ipi:__ZL61Graphic_t1660335611_CustomAttributesCacheGenerator_m_MaterialP21CustomAttributesCache
WPc:__ZNSt3__23mapIN20TextRenderingPrivate7FontRefENS1_6OSFontENS_4lessIS2_EENS_9allocatorINS_4pairIKS2_S3_EEEEEixERS8_
q4:__Z13FormatOrderedPKcz
f7i:__ZN6il2cpp2vm8basepathEPKc
o8e:_X509Chain_GetAuthorityKeyIdentifier_m614536199
uNc:__ZN14SafeBinaryRead21TransferSTLStyleArrayI10vector_mapINSt3__24pairIttEEfN20TextRenderingPrivate8FontImpl14KerningCompareENS2_9allocatorINS3_IS4_fEEEEEEEvRT_17TransferMetaFlags
Jjf:_TlsServerFinished__ctor_m1445633918
VFa:__ZN13dynamic_arrayI17SortingLayerEntryLj4EE6insertEPS0_jRKS0_
Gei:__ZL68RuntimePlatform_t4159857903_CustomAttributesCacheGenerator_WP8PlayerP21CustomAttributesCache
mOe:_PKCS1_RSASP1_m3912327535
bJb:__ZN25DeferredRenderLoopScratchD0Ev
nMi:__ZL24UnresolvedVirtualCall_34P12Il2CppObjectPK10MethodInfo
V4c:_PhysicsRaycaster_Raycast_m776323695
VEg:_UnityException__ctor_m1456865679
jni:__ZL92PointerEventData_t3807901092_CustomAttributesCacheGenerator_U3CscrollDeltaU3Ek__BackingFieldP21CustomAttributesCache
l6:__ZN15dense_hashtableINSt3__24pairIKiN4core17string_with_labelILi1EEEEEi18SInt32HashFunctionN14dense_hash_mapIiS5_S7_NS0_8equal_toIiEE13stl_allocatorIS6_L18MemLabelIdentifier1ELi16EEE9SelectKeyESA_SD_E9copy_fromERKSG_j
pZd:_CustomAttributeNamedArgument_GetHashCode_m2317130892
u3a:__ZN15ResourceManagerD0Ev
j0f:_EqualityComparer_1_get_Default_m990790318_gshared
yje:_WellKnownClientTypeEntry_ToString_m1119458503
xU:__ZN22CreateGpuProgramOutputD2Ev
Ofh:_List_1_get_Item_m1378751541_gshared
Zkb:__Z18Transfer_BlittableI19StreamedBinaryWriteILb0EELb1EsEvRK29SerializationCommandArgumentsR31RuntimeSerializationCommandInfo
X$h:__ZL52HMACSHA512_t923916539_CustomAttributesCacheGeneratorP21CustomAttributesCache
VGe:_ValueCollection_CopyTo_m2188334703_gshared
SAg:__ZN23InterfaceActionInvoker1IP25RectTransform_t3704657025E6InvokeEjP11Il2CppClassP12Il2CppObjectS1_
yDf:_SHA1CryptoServiceProvider_Finalize_m1793183797
N4h:__ZL78Convert_t2465617642_CustomAttributesCacheGenerator_Convert_ToUInt64_m409548990P21CustomAttributesCache
Q3f:_HashSet_1_System_Collections_Generic_ICollectionU3CTU3E_CopyTo_m408073502_gshared
$ff:_EncryptedPrivateKeyInfo_get_EncryptedData_m491452551
s9a:__ZN12HandlerChain4OpenER13FileEntryData14FilePermission16FileAutoBehavior
A3g:__Z72RuntimeInvoker_Void_t1185182177_Int32_t2950945753_RaycastHit_t1056001966PFvvEPK10MethodInfoPvPS4_
n4h:__ZL79Convert_t2465617642_CustomAttributesCacheGenerator_Convert_ToUInt16_m1147931813P21CustomAttributesCache
zaj:__ZN15dense_hashtableINSt3__24pairIK10KeyWrapperINS1_IPK10MethodInfoP11Il2CppClassEEEjEES9_17ReflectionMapHashIS8_EN14dense_hash_mapIS9_jSD_NS9_14EqualsComparerINS0_8equal_toIS8_EEEENS0_9allocatorISB_EEE9SelectKeyESI_SK_E6insertERKSB_
Ddg:_UTF8Encoding_GetCharCount_m2272165989
Zrd:_Array_SetValue_m394135409
cR:__ZN14FileCacherReadD2Ev
t6a:__ZN13RendererScene23UpdatePreviousFrameDataEii
SKf:_String_Remove_m562998446
b5b:__Z50Register_UnityEngine_CullingGroup_FinalizerFailurev
fPh:_Mesh_GetAllocArrayFromChannel_TisVector2_t2156229523_m1057679375_gshared
lGf:_SecurityPermission_IsSubsetOf_m545000671
bIa:__ZNK4PPtrI5FlareEcvPS0_Ev
iLj:__ZNKSt3__221__basic_string_commonILb1EE20__throw_out_of_rangeEv
Dqg:_Cursor_get_lockState_m2828192107
iLg:__Z78RuntimeInvoker_Boolean_t97287965_RuntimeObject_RuntimeObject_Int32_t2950945753PFvvEPK10MethodInfoPvPS4_
$6i:_UpdatedEventHandler_Invoke_m1320302085
rpj:__ZNK15dense_hashtableINSt3__24pairIK10KeyWrapperIP14Il2CppIUnknownEjEES5_N6il2cpp5utils11PointerHashIS3_EEN14dense_hash_mapIS5_jSB_NS5_14EqualsComparerINS0_8equal_toIS4_EEEENS0_9allocatorIS7_EEE9SelectKeyESG_SI_E12test_deletedERK24dense_hashtable_iteratorIS7_S5_SB_SK_SG_SI_E
Rt:__ZN9AudioClip23VirtualRedirectTransferER18StreamedBinaryReadILb0EE
kgh:_List_1_AddEnumerable_m2724989594_gshared
paa:__ZNSt3__26vectorIPN9ShaderLab9SubShaderENS_9allocatorIS3_EEE21__push_back_slow_pathIKS3_EEvRT_
mhh:_List_1_Contains_m2043463915_gshared
LYg:__Z82RuntimeInvoker_Vector2_t2156229523_Vector2_t2156229523_RuntimeObject_RuntimeObjectPFvvEPK10MethodInfoPvPS4_
uva:__ZN18GlslGpuProgramGLESC2ERK13dynamic_arrayIhLj1EER22CreateGpuProgramOutput
lbc:__Z70Register_UnityEngine_Playables_PlayableHandle_GetPlayableType_Injectedv
dxb:__ZNK4PPtrI23ShaderVariantCollectionEcvPS0_Ev
Ty:__ZN5audio5mixer22UpdateAudioMixerMemoryERKNS0_18AudioMixerConstantERNS0_16AudioMixerMemoryEfPN4FMOD6SystemEf
Jj:_glCopyTexSubImage2D
QXb:__ZNK24RendererAnimationBinding13GetFloatValueERKN11UnityEngine9Animation10BoundCurveE
RH:__ZNK15DownloadHandler14HasPendingDataEv
m4e:_HttpWebRequest_get_Address_m1609525404
_Eg:_UnitySynchronizationContext_ExecuteTasks_m1310741010
eCf:_RIPEMD160Managed_CompressFinal_m497690796
AOb:__ZN18ScreenManagerWebGL13SetShowCursorEb
Joe:_InternalEnumerator_1_MoveNext_m1773160976_gshared
wyb:__ZN13DrawImmediateC2ER9GfxDevice
KIj:_frexp
uUc:__ZN2UI13CanvasManager14GetRenderOrderEPKNS_6CanvasE
qdb:__Z18Transfer_BlittableI14SafeBinaryReadLb0E5RectTIfEEvRK29SerializationCommandArgumentsR31RuntimeSerializationCommandInfo
LLd:_NumberFormatter_NumberToString_m2562899600
gej:__ZNK15dense_hashtableINSt3__24pairIK10KeyWrapperIPK22Il2CppGenericParameterEPK24MonoGenericParameterInfoEES6_N6il2cpp5utils11PointerHashIS4_EEN14dense_hash_mapIS6_SA_SF_NS6_14EqualsComparerINS0_8equal_toIS5_EEEENS0_9allocatorISB_EEE9SelectKeyESK_SM_E5beginEv
OEf:_SymmetricAlgorithm_get_FeedbackSize_m3666584308
zGc:_otv_u_C_x_Ox
jia:__ZN14GfxContextGLES14GetFramebufferEv
ETj:_emscripten_glGenVertexArrays__wrapper
rmg:_Version_Clone_m1749041863
QCe:_ShimEnumerator_get_Key_m4155849607_gshared
Uma:__ZN6prcoreL21CreateRemapAnyBlitterE13TextureFormatS0_
xgf:_RSAManaged_ExportParameters_m1754454264
Y0b:__ZN17AnimationCurveTplIfE16StripInvalidKeysEv
_ud:_Boolean_Equals_m535526264_AdjustorThunk
G5g:__Z71RuntimeInvoker_KeyValuePair_2_t71524366_Int32_t2950945753_RuntimeObjectPFvvEPK10MethodInfoPvPS4_
pTc:__ZNK2UI6Canvas17GetSortingLayerIDEv
Mud:_Convert_ToUInt16_m3116648921
bRh:__ZL40UIntPtr_t_CustomAttributesCacheGeneratorP21CustomAttributesCache
Wsc:__ZN14Raycast2DQuery8RunQueryEb
OTb:__Z13RegisterClassI17GlobalGameManagerEvv
pW:__ZN8Renderer24SetupNewRendererForSceneEv
Xhg:_Type_internal_from_name_m1721940673
ZLh:_Array_swap_TisCustomAttributeTypedArgument_t2723150157_TisCustomAttributeTypedArgument_t2723150157_m365781156_gshared
tge:_RemotingServices_GetMethodBaseFromName_m3194612939
Sjc:__Z35Transfer_Blittable_FixedBufferFieldI8JSONReadtEvRK29SerializationCommandArgumentsR31RuntimeSerializationCommandInfo
ZHa:__ZN4PPtrI7TextureE8TransferI14SafeBinaryReadEEvRT_
lWa:__ZNK6Sprite22GetTypeVirtualInternalEv
A1c:__ZN13RuntimeStaticINSt3__26vectorI23UnityVRDeviceDefinition13stl_allocatorIS2_L18MemLabelIdentifier90ELi16EEEELb0EE13StaticDestroyEPv
wn:FUNCTION_TABLE_iiiiiiiiiiiiii
D$c:__ZN19UnityConnectService18OnPlayerQuitStaticEPS_
qHc:_UNITY_tt_get_cmap_info
Snf:_SslClientStream_RaiseServerCertificateValidation_m3477149273
ckb:__Z29Transfer_Blittable_ArrayFieldI24GenerateTypeTreeTransfer5RectTIiEEvRT_R9ArrayInfoRK23StaticTransferFieldInfo
TLa:__ZN16ReflectionProbes8ScheduleEN18ReflectionProbeJob7JobTypeEP15ReflectionProbei
Njf:_ClientSessionInfo_KeepAlive_m1020179566
zTc:__ZN13dynamic_arrayIN2UI13UIInstructionELj4EE12emplace_backEv
Dhh:_List_1_ToArray_m4056539300_gshared
WUh:__ZL51Calendar_t1661121569_CustomAttributesCacheGeneratorP21CustomAttributesCache
rAa:__Z18IsDirectoryCreatedRKN4core12basic_stringIcNS_20StringStorageDefaultIcEEEE
_Ff:_String_FormatHelper_m3913915042
Buc:__ZN18PlatformEffector2D19RecalculateContactsEv
oSc:__ZN2UI13CanvasManagerD2Ev
WYd:_ConstructorInfo__cctor_m1016079270
n$i:__ZN15dense_hashtableINSt3__24pairIK10KeyWrapperIPKcEP11Il2CppClassEES5_N6il2cpp5utils11StringUtils12StringHasherIS4_EEN14dense_hash_mapIS5_S8_SE_NS5_14EqualsComparerINSB_13VmStringUtils21CaseSensitiveComparerEEENS0_9allocatorIS9_EEE9SelectKeyESJ_SL_E15set_deleted_keyERKS9_
KZg:__Z38RuntimeInvoker_ContentType_t1787303396PFvvEPK10MethodInfoPvPS4_
Spd:_AttrListImpl_get_Names_m977594476
$_h:__ZL53IFormatter_t3549834567_CustomAttributesCacheGeneratorP21CustomAttributesCache
xPc:_UNITY_FT_GlyphLoader_Done
kji:__ZL89GUIStyle_t3956901511_CustomAttributesCacheGenerator_GUIStyle_get_stretchWidth_m3556443132P21CustomAttributesCache
W7d:_Pointer_Box_m389276611
otc:__ZN19OverlapPointQuery2D14InitializeAABBER6b2AABB
rvf:_StackTrace_get_FrameCount_m344690939
bTd:_UnexceptionalStreamWriter_Write_m363195622
QKb:__ZNK21IntermediateRenderers16GetBoundingBoxesEv
UPc:__ZN20TextRenderingPrivate25ReadFontFileAndAddToCacheERKN4core12basic_stringIcNS0_20StringStorageDefaultIcEEEE
rIc:_tt_cmap14_char_var_index
Eqb:__Z35Transfer_Blittable_FixedBufferFieldI18StreamedBinaryReadILb0EEdEvRK29SerializationCommandArgumentsR31RuntimeSerializationCommandInfo
lXi:_Physics2D_Raycast_m1700114981
ESe:_Selectable_OnPointerDown_m1086067264
CMc:_psh_globals_new
wcd:_Dropdown_SetupTemplate_m628218778
Wdg:_Thread_GetCompressedStack_m2923422412
khf:__ZN28GenericInterfaceFuncInvoker2IbP26X509Certificate_t713131622P22Int32U5BU5D_t385246372E6InvokeEPK10MethodInfoP12Il2CppObjectS1_S3_
Qzd:_SynchronizedArrayListWrapper_CopyTo_m4207791406
D6e:_X509BasicConstraintsExtension_ToString_m1809935297
Ica:__ZN9GfxDevice20SetMaxBufferedFramesEi
IHh:_TweenRunner_1_StartTween_m1055628540_gshared
Hmc:__ZN10Collider2D19WakeAllBodyContactsEv
hNh:_GameObject_GetComponents_TisRuntimeObject_m1246177135_gshared
Qy:__ZN24AudioScriptBufferManagerD2Ev
ANj:dynCall_vdd
MTd:_MethodAccessException__ctor_m3542088436
FQb:__Z23ConvertIntegerToTypePtrIsEbPvR14SafeBinaryRead
Bfh:_List_1_Insert_m2958195960_gshared
npc:__ZN12b2MouseJoint11ShiftOriginERK6b2Vec2
Byd:_ArrayListWrapper_get_Capacity_m51087796
jUe:_LayoutElement_get_minHeight_m4160507569
A$f:_EqualityComparer_1_System_Collections_IEqualityComparer_GetHashCode_m2230215241_gshared
Psi:__ZL60ContentSizeFitter_t3850442145_CustomAttributesCacheGeneratorP21CustomAttributesCache
YBd:_Hashtable_Contains_m2145146412
T8h:__ZL64UnmarshalledAttribute_t1517743549_CustomAttributesCacheGeneratorP21CustomAttributesCache
Y$b:__ZN4Mesh24UpdateSubMeshVertexRangeEi
J8i:__ZNK15dense_hashtableINSt3__24pairIK10KeyWrapperINS1_IPK14Il2CppAssemblyP11Il2CppClassEEEjEES9_17ReflectionMapHashIS8_EN14dense_hash_mapIS9_jSD_NS9_14EqualsComparerINS0_8equal_toIS8_EEEENS0_9allocatorISB_EEE9SelectKeyESI_SK_E12test_deletedEj
YFj:__ZN6il2cpp2os9FastMutex4LockEv
AId:_Int32_FindCurrency_m3541026887
scf:_Interval_CompareTo_m3282557545
BUj:_pthread_cond_wait__wrapper
oIb:__ZNK14RenderSettings19GetFlatAmbientColorEv
uma:__ZN6prcoreL10inner_flipILj4EEEvPhS1_j
c2a:__ZN18StreamedBinaryReadILb0EE21TransferSTLStyleArrayI10vector_mapIPKN5Unity4TypeE7Hash128NSt3__24lessIS6_EENS8_9allocatorINS8_4pairIS6_S7_EEEEEEEvRT_17TransferMetaFlags
qsi:__ZL58Text_t1901882714_CustomAttributesCacheGenerator_m_FontDataP21CustomAttributesCache
T0d:_GenericTypeParameterBuilder_IsPrimitiveImpl_m1952010459
Hth:_ReadOnlyCollection_1_CopyTo_m3474153465_gshared
nnd:_RijndaelManagedTransform_TransformBlock_m1610137419
bac:__Z40Register_UnityEngine_Transform_SetParentv
Z0h:__ZL94WindowsIdentity_t2948242406_CustomAttributesCacheGenerator_WindowsIdentity_Dispose_m3466258450P21CustomAttributesCache
aYa:__ZN14Texture2DArray17UploadToGfxDeviceEv
Lx:__Z14FMODMemoryFreePvjPKc
Udi:__ZL100RectTransform_t3704657025_CustomAttributesCacheGenerator_RectTransform_INTERNAL_get_rect_m3130887130P21CustomAttributesCache
T6f:_Enumerator__ctor_m2029608698_gshared
Yrg:_NetFxCoreExtensions_GetMethodInfo_m444570327
tGb:__Z14SetSHConstantsR13BatchRendererR17ShaderPassContextRK20SphericalHarmonicsL2b
zwd:_Char_System_IConvertible_ToDecimal_m3534906463
CDc:_cf2_glyphpath_moveTo
lfh:_List_1_AddCollection_m1469681717_gshared
MTh:__ZL86MSCompatUnicodeTable_t1453885583_CustomAttributesCacheGenerator_U3CU3Ef__switchU24map4P21CustomAttributesCache
Ruc:__ZNK13BoxCollider2D22GetTypeVirtualInternalEv
PCg:_StackTraceUtility_SetProjectFolder_m830524047
akf:_ClientSessionInfo_Finalize_m2165787049
fdc:__ZN5IMGUI14GUIWindowStateD2Ev
Zif:_ClientContext_Clear_m1774063253
i0b:__ZN4Mesh17SetIndicesComplexEPKvjj16GfxPrimitiveTypeij
Zpf:_DateTime_AddSeconds_m332574389_AdjustorThunk
IEg:_RequestAtlasCallback_Invoke_m378128467
Hvd:_Byte_System_IConvertible_ToSByte_m1869482168
hOg:__Z99RuntimeInvoker_RuntimeObject_RuntimeObject_RuntimeObject_StreamingContext_t3711869237_RuntimeObjectPFvvEPK10MethodInfoPvPS4_
gtg:_GameObject_Internal_AddComponentWithType_m3797731663
pm:_emscripten_glIsTexture
Wk:_emscripten_glHint
hKi:_Check_SourceAndPredicate_m2332465641
Bzc:__ZZN10Collider2D15InitializeClassEvEN30FunctorImpl_98kDidAddComponent4CallEPviR11MessageData
MXg:__Z67RuntimeInvoker_Boolean_t97287965_TextGenerationSettings_t1351628751PFvvEPK10MethodInfoPvPS4_
lLc:_ft_var_readpackeddeltas
pHf:_String_op_Inequality_m215368492
ZYf:_Dictionary_2_Clear_m1938428402_gshared
Tki:__ZL110Physics2D_t1528932956_CustomAttributesCacheGenerator_Physics2D_INTERNAL_CALL_GetRayIntersectionAll_m1016589977P21CustomAttributesCache
gnb:__Z35Transfer_Blittable_FixedBufferFieldI18StreamedBinaryReadILb1EEtEvRK29SerializationCommandArgumentsR31RuntimeSerializationCommandInfo
dkg:_UInt32_System_IConvertible_ToInt64_m2261037378
sm:_SDL_UpperBlit
PLa:__Z35GetTextureDecodeValuesWithIntensity16TextureUsageMode17TextureColorSpace10ColorSpacef
WNf:_Array_InternalArray__ICollection_Remove_TisChar_t3634460470_m4143749387_gshared
Kyb:__ZN15dense_hashtableINSt3__24pairIK9TextureIDiEES2_14GfxGenericHashIS2_EN14GfxDoubleCacheIS2_iS6_NS0_8equal_toIS2_EEN31GfxDoubleCacheConcurrencyPolicy11LocklessGetE42GfxDoubleCacheDefaultEmptyDeletedGeneratorIS2_EE9SelectKeyES9_13stl_allocatorIS4_L18MemLabelIdentifier24ELi16EEE14squash_deletedEv
Tej:__ZN15dense_hashtableINSt3__24pairIK10KeyWrapperINS1_IPK9EventInfoP11Il2CppClassEEEjEES9_17ReflectionMapHashIS8_EN14dense_hash_mapIS9_jSD_NS9_14EqualsComparerINS0_8equal_toIS8_EEEENS0_9allocatorISB_EEE9SelectKeyESI_SK_E15set_deleted_keyERKSB_
_bj:__ZN15dense_hashtableINSt3__24pairIK10KeyWrapperINS1_IPK12PropertyInfoP11Il2CppClassEEEjEES9_17ReflectionMapHashIS8_EN14dense_hash_mapIS9_jSD_NS9_14EqualsComparerINS0_8equal_toIS8_EEEENS0_9allocatorISB_EEE9SelectKeyESI_SK_ED2Ev
xTi:_enemyBehavior_Move_m3992264582
ipc:__ZNK12b2MouseJoint10GetAnchorAEv
zag:_Encoding_GetBytes_m3823106599
rpf:_GregorianCalendar__ctor_m979779718
rnf:_SslClientStream__ctor_m2402546929
etb:__ZN14SafeBinaryRead20OverrideRootTypeNameEPKc
L2e:_DictionaryNodeEnumerator_get_Entry_m2309234501
sYi:__ZNK10KeyWrapperIPK22Il2CppGenericParameterE14EqualsComparerINSt3__28equal_toIS2_EEEclERKS3_SA_
gR:__ZN14FileCacherRead16UnlockCacheBlockEj
e6f:_Enumerator_Dispose_m951715887_AdjustorThunk
Zki:__ZL57ContactPoint2D_t3390240644_CustomAttributesCacheGeneratorP21CustomAttributesCache
Upe:_InternalEnumerator_1_System_Collections_IEnumerator_Reset_m521819017_AdjustorThunk
aOd:_IsolatedStorageException__ctor_m1022659452
tZ:__ZN10InstancingL21OnGraphicsCapsChangedEv
sYh:__ZL61ClassInterfaceType_t4029497327_CustomAttributesCacheGeneratorP21CustomAttributesCache
Wfg:_WaitHandle_get_Handle_m3260446580
$6f:_Enumerator_VerifyState_m1745883925_AdjustorThunk
Oc:_emscripten_glUniform1f
VCd:_SortedList__ctor_m1261191695
dTb:__ZN13dynamic_arrayIS_I8Vector2fLj4EELj4EE18resize_initializedEjRKS1_12ResizePolicy
fzh:_ReadOnlyCollection_1_System_Collections_IList_get_IsReadOnly_m165706550_gshared
rJg:__Z75RuntimeInvoker_Int32_t2950945753_DecimalU26_t3714369516_Int64U26_t200113976PFvvEPK10MethodInfoPvPS4_
aQc:__Z20ParseImageParametersR11UTF16StringRiRN20TextRenderingPrivate16TextFormatChangeE
Esi:__ZL55CanvasScaler_t2767979955_CustomAttributesCacheGeneratorP21CustomAttributesCache
wqh:_Collection_1_RemoveItem_m2942561924_gshared
Tc:_emscripten_glUniform1i
Aib:__Z18Transfer_BlittableI24GenerateTypeTreeTransferLb1EN4math12int3_storageEEvRK29SerializationCommandArgumentsR31RuntimeSerializationCommandInfo
JYe:__Z14bankers_roundff
f8:__ZN9ShaderLab16SerializedTagMapaSERKS0_
lG:__ZN11UnityEngine15CloudWebService16SessionContainer20RestoreSessionHeaderERKN4core12basic_stringIcNS2_20StringStorageDefaultIcEEEES8_RNS0_13SessionHeaderE
X0c:__ZN22UnityWebRequestManager13BackendRetainEv
Q1b:__ZN8Material28ApplyMaterialPropertyDrawersEv
iFj:__ZN6il2cpp2os12Cryptography23GetCryptographyProviderEv
ZYi:__ZN24dense_hashtable_iteratorINSt3__24pairIK10KeyWrapperIPK22Il2CppGenericParameterEP11Il2CppClassEES6_N6il2cpp5utils11PointerHashIS4_EEN14dense_hash_mapIS6_S9_SE_NS6_14EqualsComparerINS0_8equal_toIS5_EEEENS0_9allocatorISA_EEE9SelectKeyESJ_SL_E30advance_past_empty_and_deletedEv
ws:__ZN11UnityEngine9Animation27CreateAvatarBindingConstantER9TransformPKN7mecanim9animation14AvatarConstantERNS3_6memory9AllocatorE
I3e:_MonoTODOAttribute__ctor_m1298576268
tWe:_MaskableGraphic_get_onCullStateChanged_m3331479633
xNg:__Z151RuntimeInvoker_RuntimeObject_Int32_t2950945753_RuntimeObject_ObjectU5BU5DU26_t712384779_RuntimeObject_RuntimeObject_RuntimeObject_ObjectU26_t2146539884PFvvEPK10MethodInfoPvPS4_
g9c:_CanvasUpdateRegistry__ctor_m2005397069
ubi:__ZL77Input_t1431474628_CustomAttributesCacheGenerator_Input_GetAxisRaw_m2316819917P21CustomAttributesCache
uP:__ZN14MessageHandler3GetEv
q5d:_MonoMethodInfo_GetCallingConvention_m3156036493
Fka:__ZN10DynamicVBO9DrawChunkERK21DynamicVBOChunkHandle17ShaderChannelMaskS3_P17VertexDeclarationPKNS_10DrawParamsEi
ZUe:_LayoutGroup_SetLayoutInputForAxis_m2458344630
fd:_emscripten_glAttachShader
Hca:__ZN9GfxDevice13SetActiveTierE12GraphicsTier
Ygd:_Image__cctor_m1927508576
Feg:_SendOrPostCallback_EndInvoke_m2485163446
x8:__ZNSt3__26vectorIN4core12basic_stringIcNS1_20StringStorageDefaultIcEEEENS_9allocatorIS5_EEE6assignIPS5_EENS_9enable_ifIXaasr21__is_forward_iteratorIT_EE5valuesr16is_constructibleIS5_NS_15iterator_traitsISC_E9referenceEEE5valueEvE4typeESC_SC_
fFj:__ZN6il2cpp6icalls8mscorlib6System21CurrentSystemTimeZone15GetTimeZoneDataEiPP11Il2CppArrayS6_
PAe:_Enumerator__ctor_m1195706188_gshared
rQh:__ZL76String_t_CustomAttributesCacheGenerator_String_Concat_m1809518182____values0P21CustomAttributesCache
Zcb:__Z18Transfer_BlittableI14SafeBinaryReadLb0E11QuaternionfEvRK29SerializationCommandArgumentsR31RuntimeSerializationCommandInfo
Ouc:__ZN13BoxCollider2D16CheckConsistencyEv
mqb:__Z18Transfer_BlittableI18StreamedBinaryReadILb0EELb1E12PropertyNameEvRK29SerializationCommandArgumentsR31RuntimeSerializationCommandInfo
MK:_tlsf_walk_heap
mNg:__Z49RuntimeInvoker_Void_t1185182177_OpCode_t123070264PFvvEPK10MethodInfoPvPS4_
nkj:__ZNK15dense_hashtableINSt3__24pairIK10KeyWrapperIP11Il2CppClassES4_EES5_N6il2cpp8metadata16SZArrayClassHashEN14dense_hash_mapIS5_S4_SA_NS5_14EqualsComparerINS9_19SZArrayClassCompareEEENS0_9allocatorIS7_EEE9SelectKeyESE_SG_E10test_emptyERK24dense_hashtable_iteratorIS7_S5_SA_SI_SE_SG_E
GWg:__Z69RuntimeInvoker_Void_t1185182177_Int32_t2950945753_HitInfo_t3229609740PFvvEPK10MethodInfoPvPS4_
Chi:__ZL59AnimatorClipInfo_t3156717155_CustomAttributesCacheGeneratorP21CustomAttributesCache
$Gd:_Convert_ToUInt32_m3592050311
mb:invoke_vif
YMh:_Component_GetComponents_TisRuntimeObject_m2416546752_gshared
nb:invoke_vid
Nte:_InternalEnumerator_1__ctor_m2202456613_AdjustorThunk
ALj:__ZNSt3__212basic_stringIcNS_11char_traitsIcEENS_9allocatorIcEEE6insertEjPKc
ob:invoke_vii
RBb:__ZNK12ImageFilters8DoRenderER17ShaderPassContextP13RenderTextureS3_RKNSt3__26vectorI11ImageFilterNS4_9allocatorIS6_EEEE
bza:__ZN12TLSAllocatorI14StackAllocatorE16ThreadInitializeEP13BaseAllocator
MOg:__Z82RuntimeInvoker_Boolean_t97287965_SByte_t1669577662_RuntimeObject_SByte_t1669577662PFvvEPK10MethodInfoPvPS4_
gda:__ZN9GfxDevice32UpdateStereoViewProjectionMatrixE21MonoOrStereoscopicEye
jVc:__Z41CanvasRenderer_CUSTOM_DisableRectClippingP12Il2CppObject
KWf:_Dictionary_2__ctor_m1324730059_gshared
XUd:_MonoType_GetConstructorImpl_m441167626
CTi:_equiationGravity_OnCollisionEnter2D_m83784401
Ebd:_DefaultControls_CreateRawImage_m4219873755
Vkh:_Collection_1_IsFixedSize_m3709118201_gshared
nDa:__ZN25SingleBlockMemoryFileDataD0Ev
iza:__ZNSt3__26vectorI14ConstantStringNS_9allocatorIS1_EEE6assignINS_11__wrap_iterIPS1_EEEENS_9enable_ifIXaasr21__is_forward_iteratorIT_EE5valuesr16is_constructibleIS1_NS_15iterator_traitsISA_E9referenceEEE5valueEvE4typeESA_SA_
jzh:_ReadOnlyCollection_1_CopyTo_m586367390_gshared
gG:__ZN11UnityEngine15CloudWebService16SessionContainer21ConvertFromFolderTimeERKN4core12basic_stringIcNS2_20StringStorageDefaultIcEEEEPjPt
Gjd:_CodeAccessPermission_Equals_m1555575992
Keb:__ZNSt3__26vectorI8GUIStyle13stl_allocatorIS1_L18MemLabelIdentifier1ELi16EEE7reserveEj
iuh:_ReadOnlyCollection_1_Contains_m3869904379_gshared
dmj:__ZN6il2cpp6icalls8mscorlib6System9Threading6Thread27GetSerializedCurrentCultureEP12Il2CppThread
xkf:_Context_set_ReadSequenceNumber_m2154909392
ind:_RijndaelTransform_SubByte_m3037693507
YRb:__Z31CalculateHierarchyTransformType23TransformAccessReadOnly
jUb:__Z13RegisterClassI11TimeManagerEvv
Cx:__ZN4FMOD8ChannelI11setPositionEjj
Ptg:_Input_INTERNAL_CALL_GetTouch_m3481893561
xxc:__ZN10Collider2D12SetPolygon2DEP9Polygon2D
aBj:_GC_set_fl_marks
z4a:__ZNSt3__26vectorIN30RuntimeInitializeOnLoadManager15ClassMethodInfoE13stl_allocatorIS2_L18MemLabelIdentifier13ELi16EEE7reserveEj
jda:__ZN9GfxDevice17SetStereoViewportE15StereoscopicEyeRK5RectTIiE
N3:__ZN17BaseObjectManager13StaticDestroyEPv
$Ui:_CanvasRenderer_INTERNAL_CALL_GetColor_m597074473
Tye:_Comparer_1__cctor_m3891417387_gshared
odg:_UTF7Decoder_GetChars_m3413809261
fci:__ZL81Shader_t4151988712_CustomAttributesCacheGenerator_Shader_PropertyToID_m1030499873P21CustomAttributesCache
zRh:__ZL70RuntimeArray_CustomAttributesCacheGenerator_Array_get_Rank_m3448755881P21CustomAttributesCache
O$d:_EnumBuilder_GetEvent_m4074915332
Dh:_sysconf
eEg:_Vector3_get_forward_m3100859705
uw:__ZN4FMOD6Reverb13setPropertiesEPK22FMOD_REVERB_PROPERTIES
sjj:__ZN15dense_hashtableINSt3__24pairIK10KeyWrapperIP11Il2CppClassES4_EES5_N6il2cpp8metadata16SZArrayClassHashEN14dense_hash_mapIS5_S4_SA_NS5_14EqualsComparerINS9_19SZArrayClassCompareEEENS0_9allocatorIS7_EEE9SelectKeyESE_SG_E5clearEv
CDb:__ZN9DepthPass13PrepareSubsetEjRK10RenderNodeifRK17ShaderReplaceData
ZJf:_String_IndexOf_m3406607758
k7:__ZN9ShaderLab20SerializedSubProgram16TextureParameter8TransferI14SafeBinaryReadEEvRT_
p0b:__Z35SetMeshComponentFromArrayFromScriptR4Mesh30InternalScriptingShaderChannel34InternalScriptingVertexChannelTypei17ScriptingArrayPtri
q1b:__Z18ExtractTagThrowingR11ICallString
B9:__ZN4PPtrI6ShaderE8TransferI19StreamedBinaryWriteILb0EEEEvRT_
yTf:_Array_InternalArray__ICollection_Add_TisCustomAttributeNamedArgument_t287865710_m4157175270_gshared
pq:__ZN4core20StringStorageDefaultIcE6assignEPKcj
ilg:_UInt64_System_IConvertible_ToUInt64_m2135047981_AdjustorThunk
zdf:_BigInteger_ModPow_m3776562770
ysj:__ZN15dense_hashtableINSt3__24pairIK10KeyWrapperIP12Il2CppObjectEN6il2cpp2gc9CachedCCWEEES5_NS7_5utils11PointerHashIS3_EEN14dense_hash_mapIS5_S9_SD_NS5_14EqualsComparerINS0_8equal_toIS4_EEEENS0_9allocatorISA_EEE9SelectKeyESI_SK_E3endEv
ZMd:_BinaryReader_ReadInt64_m939370142
ymf:_RecordProtocol_ProcessChangeCipherSpec_m15839975
byd:_ArrayList_IndexOf_m305368842
dhh:_List_1_Add_m2996644200_gshared
DMb:__ZN6Camera6SetFarEf
Qje:_FormatterConverter_ToBoolean_m1680758923
Kna:__ZN6prcoreL12RemapGenericI17TexFormatABGR888817TexFormatARGB8888EEvPKNS_9InnerInfoE
jEa:__ZN11GameManager17MainThreadCleanupEv
MDd:_Stack_get_Count_m2258661097
csh:_ReadOnlyCollection_1__ctor_m1345363288_gshared
RWc:__Z50Register_UnityEngine_UISystemProfilerApi_EndSamplev
HHe:_Dictionary_2_System_Collections_ICollection_get_SyncRoot_m2020472285_gshared
Qve:_InternalEnumerator_1_System_Collections_IEnumerator_Reset_m1775752715_AdjustorThunk
Jb:invoke_vffff
iXi:_Physics2D_Raycast_m2082490717
Z8h:__ZL91Application_t1852185770_CustomAttributesCacheGenerator_Application_get_isPlaying_m100394690P21CustomAttributesCache
vce:_ConfigHandler_OnProcessingInstruction_m4212209262
Zuc:__ZN10Collider2D12AddToManagerEv
Pch:_List_1_Reverse_m3290386475_gshared
nhd:_SerializationCallbacks_GetSerializationCallbacks_m2939476649
EBd:_Hashtable__cctor_m4112166779
WJc:_UNITY_tt_slot_init
Lzb:__ZZ23InitPlayerLoopCallbacksvEN41PostLateUpdateUpdateResolutionRegistrator7ForwardEv
Zrb:__Z25scripting_array_class_get17ScriptingClassPtrj
Uhc:__ZL22Transfer_ManagedObjectI9JSONWriteLb1EEvRK29SerializationCommandArgumentsR31RuntimeSerializationCommandInfo
zt:__ZNK10SampleClip22GetTypeVirtualInternalEv
sea:__ZN9GfxDevice20DestroyRenderSurfaceER12ObjectHandleI17RenderSurface_TagP17RenderSurfaceBaseE
JDd:_Stack__ctor_m2602729586
NHg:__Z77RuntimeInvoker_Byte_t1134296376_RuntimeObject_Int32_t2950945753_RuntimeObjectPFvvEPK10MethodInfoPvPS4_
HSb:__ZL24PrepareSpriteRenderNodesILb1EEvR35RenderNodeQueuePrepareThreadContext
zxa:__ZN9GfxDevice22UpdateComputeResourcesEjPK9TextureIDPK16TextureDimensionPKijPKjjPK15ComputeBufferIDS7_PK20ComputeBufferCounterjSC_S2_S5_S9_SF_
XR:__ZN12_GLOBAL__N_15qAsinEff
frg:_Display__ctor_m3105658851
vCd:_HashValues_get_IsSynchronized_m3461082747
jpe:_InternalEnumerator_1_System_Collections_IEnumerator_get_Current_m2629988057_AdjustorThunk
cza:__ZN12TLSAllocatorI14StackAllocatorE13ThreadCleanupEv
XXf:_Dictionary_2_get_Item_m2136868513_gshared
$t:__Z18GetAudioManagerPtrv
Cjf:_Context_get_HandshakeMessages_m3655705111
Jyj:__ZThn4_N6il2cpp2vm13ComObjectBase16MarshalInterfaceEP13Il2CppIStreamRK10Il2CppGuidPvjS7_j
vFd:_Convert_ToDouble_m996590115
Oub:__Z27FindActiveTransformWithPathPKc
u7g:_List_1_System_Collections_IEnumerable_GetEnumerator_m3790284976_gshared
mwh:_ReadOnlyCollection_1_System_Collections_IList_Remove_m4169110229_gshared
Jjg:_UInt16_ToString_m3020002356
vVe:_LayoutRebuilder_LayoutComplete_m68578143
R7i:_RequiredByNativeCodeAttribute__ctor_m119855101
jGa:__ZN12BaseRendererD0Ev
wQb:__Z29StdTemplateConversionFunctionIbyEbPvR14SafeBinaryRead
dnd:_RijndaelManaged_GenerateKey_m1736287430
rIi:_GUIStyle_get_fixedWidth_m2576616348
Xmi:__ZL90PointerEventData_t3807901092_CustomAttributesCacheGenerator_U3ClastPressU3Ek__BackingFieldP21CustomAttributesCache
KDf:_SHA1Internal_Initialize_m499810128
rM:__ZNK6Camera7GetNearEv
E0d:_GenericTypeParameterBuilder_GetConstructorImpl_m863833310
Fqa:__ZN7ApiGLES11UnmapBufferEjN2gl12BufferTargetE
Xyj:__ZN6il2cpp5utilsL24Utf32CharToSurrogatePairEjRA2_Ds
VSa:__Z25GetNextAllowedTextureSizeib13TextureFormat
Gub:__ZN20LocalFileSystemWebGL4CopyER13FileEntryDataS1_
LI:__ZN19CloudServiceHandler6RetainEv
YGj:__ZN6il2cpp2os9Semaphore4WaitEb
Ync:__ZN15b2FrictionJointD0Ev
Ush:_ReadOnlyCollection_1_System_Collections_IList_IndexOf_m198887188_gshared
Qdc:__Z36Event_CUSTOM_Internal_SetNativeEventPv
Gcg:_UTF32Encoding_GetBytes_m3180303867
FT:__ZN12BaseRenderer20FlattenToRenderQueueER15RenderNodeQueueRK20DeprecatedSourceData
nhh:_List_1_CopyTo_m4034402519_gshared
Auh:_ReadOnlyCollection_1_System_Collections_IList_Clear_m2007013334_gshared
q7a:__Z34scripting_liveness_calculation_endPv
suj:__ZN6il2cpp2os6ThreadC2Ev
Ble:_U3CGetEnumeratorU3Ec__Iterator0_System_Collections_Generic_IEnumeratorU3CTU3E_get_Current_m1566629109_gshared
Krf:_DateTimeOffset_get_UtcDateTime_m1021718282_AdjustorThunk
G3:__ZN16memory_pool_implILi64EE15AutoPoolWrapper12UninitializeEPv
h2e:_HybridDictionary_get_Count_m1166314536
Mwi:_TlsStream_Write_m1412844442
ujc:__Z18Transfer_BlittableI8JSONReadLb0E8Vector3fEvRK29SerializationCommandArgumentsR31RuntimeSerializationCommandInfo
vkj:__ZN6il2cpp2vm6Thread6DetachEP12Il2CppThread
nxi:_GeneralNames_get_DNSNames_m3788548987
b9f:_List_1_AddCollection_m2026039026_gshared
O9e:_X509ChainStatus_get_Status_m2572005749_AdjustorThunk
eBc:__GLOBAL__sub_I_runtime_dynamics_2_cpp
vhd:_SerializationEntry_t648286436_marshal_pinvoke
Cs:__ZN7mecanim8skeleton30SkeletonBuildReverseIndexArrayEPiPKiPKNS0_8SkeletonES6_
Vbc:__Z19GetGUIBlendMaterialv
CTd:_Math_Round_m3018379666
JPg:__Z41RuntimeInvoker_Boolean_t97287965_IntPtr_tPFvvEPK10MethodInfoPvPS4_
hvj:__ZN6il2cpp2os10ThreadImpl5SleepEjb
I_a:__ZN10VertexData10DeallocateEv
Wsh:_ReadOnlyCollection_1_System_Collections_IList_Remove_m1965826685_gshared
Muf:_Delegate_CreateDelegate_m1051651521
cPf:_PlayableHandle_IsPlayableOfType_TisRuntimeObject_m503495943_AdjustorThunk
eTj:_glBindSampler__wrapper
aEa:__ZNSt3__26vectorIN20ArchiveStorageHeader12StorageBlockE13stl_allocatorIS2_L18MemLabelIdentifier55ELi16EEE8__appendEj
Mf:_emscripten_set_mouseup_callback
Zug:_Mathf_Clamp_m3350697880
oxa:__ZN9GfxDevice27SetRandomWriteTargetTextureEi9TextureID
PXf:_Dictionary_2_System_Collections_Generic_ICollectionU3CSystem_Collections_Generic_KeyValuePairU3CTKeyU2CTValueU3EU3E_Contains_m3033743418_gshared
ZOg:__Z165RuntimeInvoker_Void_t1185182177_UInt32U26_t3735378166_Int32_t2950945753_UInt32U26_t3735378166_Int32_t2950945753_Int32_t2950945753_Int32_t2950945753_Int32_t2950945753PFvvEPK10MethodInfoPvPS4_
T8f:_List_1_System_Collections_IList_Remove_m3140917266_gshared
sag:_Encoding_get_DecoderFallback_m1525880676
u_h:__ZL59ITrackingHandler_t1244553475_CustomAttributesCacheGeneratorP21CustomAttributesCache
wCi:_CompositeExpression__ctor_m2434860303
hld:_DSASignatureDeformatter__ctor_m2759753186
F9e:_X509ChainElementCollection_System_Collections_IEnumerable_GetEnumerator_m3829089536
mph:_Collection_1_System_Collections_IEnumerable_GetEnumerator_m801406918_gshared
EOb:__ZNK18ScreenManagerWebGL8GetWidthEv
_3i:__ZN6il2cpp2vm13MetadataCache33GetFieldDefaultValueDataFromIndexEi
wt:__ZN10SampleClipD2Ev
UDh:_InvokableCall_1_remove_Delegate_m790146436_gshared
ICh:_Predicate_1_Invoke_m2389850270_gshared
gvj:__ZN6il2cpp2os10ThreadImpl13SetWaitObjectEPNS0_5posix15PosixWaitObjectE
L6a:__Z13GetGISettingsv
gmh:_Collection_1_RemoveAt_m1813368096_gshared
vI:__ZN11UnityEngine15CloudWebService20WebRequestRestClientC2Ev
nFc:_cff_cmap_unicode_init
gNf:_Array_InternalArray__ICollection_Contains_TisRuntimeObject_m4067783231_gshared
jR:__ZN14FileCacherRead13GetFileLengthEv
iFh:_UnityAction_1_EndInvoke_m542551745_gshared
wjh:_Collection_1_IsValidItem_m3080586124_gshared
xcd:_DropdownItem_set_text_m3702712387
I9c:_ClipperRegistry_Register_m2407166513
$Jj:_readlink
ucj:__ZN15dense_hashtableINSt3__24pairIK10KeyWrapperINS1_IPK9EventInfoP11Il2CppClassEEEjEES9_17ReflectionMapHashIS8_EN14dense_hash_mapIS9_jSD_NS9_14EqualsComparerINS0_8equal_toIS8_EEEENS0_9allocatorISB_EEE9SelectKeyESI_SK_E12resize_deltaEjj
l5d:_MonoCMethod_Invoke_m2700167622
ACd:_KeyMarker__cctor_m2590194914
hFj:__ZN6il2cpp8metadata14Il2CppTypeHash4HashEPK10Il2CppType
LAe:_Enumerator_Reset_m627751027_AdjustorThunk
j0a:__ZNK6Sprite9GetBoundsE8Vector2fbb
zHa:__ZNK19RenderEventsContext21CleanupCommandBuffersEv
dTi:_TextGenerator_PopulateWithErrors_m1222498386
A7g:_List_1_System_Collections_Generic_ICollectionU3CTU3E_get_IsReadOnly_m507350231_gshared
mia:__ZN11ContextGLES6CreateEi
QUi:_WillRenderCanvases_BeginInvoke_m1804779886
RWg:__Z52RuntimeInvoker_Boolean_t97287965_Vector3_t3722313464PFvvEPK10MethodInfoPvPS4_
cah:_List_1_set_Capacity_m3382070520_gshared
j$g:__Z68RuntimeInvoker_Boolean_t97287965_RuntimeObject_ObjectU26_t2146539884PFvvEPK10MethodInfoPvPS4_
VTe:_U3CMouseDragOutsideRectU3Ec__Iterator1_Dispose_m267465418
Ktf:_Decimal_CompareTo_m3502307243_AdjustorThunk
arb:__Z19TransferField_ArrayI18StreamedBinaryReadILb0EE27Converter_SimpleNativeClassI17AnimationCurveTplIfEEEvRK23StaticTransferFieldInfoR31RuntimeSerializationCommandInfoRT0_
Fya:__ZN14StackAllocator16FrameMaintenanceEb
Czc:__ZZN10Collider2D15InitializeClassEvEN33FunctorImpl_99kDidRemoveComponent4CallEPviR11MessageData
IYe:_Scrollbar_get_value_m760470106
wM:__ZNK10GameObject20QueryComponentByTypeEPKN5Unity4TypeE
Zsf:_Decimal_System_IConvertible_ToInt32_m1488426794_AdjustorThunk
cUd:_MonoCustomAttrs_IsUserCattrProvider_m2878058089
oqi:__ZL71InputField_t3762917431_CustomAttributesCacheGenerator_m_HideMobileInputP21CustomAttributesCache
fSa:__ZN11TextureData5ResetEv
O5b:__Z53Register_UnityEngine_GameObject_get_activeInHierarchyv
kFf:_ToBase64Transform_InternalTransformFinalBlock_m360524956
Zpd:_ActivationContext_Dispose_m2038725770
Cgb:__Z35Transfer_Blittable_FixedBufferFieldI17RemapPPtrTransferiEvRK29SerializationCommandArgumentsR31RuntimeSerializationCommandInfo
NO:__ZL30InitializeCoreScriptingClassesv
Ywh:_ReadOnlyCollection_1_Contains_m1699971074_gshared
ote:_InternalEnumerator_1_Dispose_m630370856_AdjustorThunk
Jg:_glBlitFramebuffer
SBa:__ZN17ArchiveFileSystem5TouchER13FileEntryData
Y6f:_Enumerator_System_Collections_IEnumerator_get_Current_m3594024719_gshared
xgb:__Z35Transfer_Blittable_SingleValueFieldI14SafeBinaryReadhEvRT_R17GeneralMonoObjectRK23StaticTransferFieldInfo
Z_b:__ZN12CachedWriter15CompleteWritingEv
kRa:__ZNK12CubemapArray22GetTypeVirtualInternalEv
Un:FUNCTION_TABLE_vif
Vn:FUNCTION_TABLE_vid
Wn:FUNCTION_TABLE_vii
B7a:__Z40scripting_liveness_calculation_from_root18ScriptingObjectPtrPv
yhd:_SerializationEntry__ctor_m1411687997_AdjustorThunk
IZh:__ZL65IContributeDynamicSink_t2255997386_CustomAttributesCacheGeneratorP21CustomAttributesCache
sOa:__ZN7Texture23VirtualRedirectTransferER24GenerateTypeTreeTransfer
SOc:_UNITY_FT_Set_Transform
HXb:__ZNK32RendererMaterialAnimationBinding12SetPPtrValueERKN11UnityEngine9Animation10BoundCurveEi
Brj:__ZN6il2cpp8metadata15GenericMetadata20RegisterGenericClassEP18Il2CppGenericClass
JSj:_glDeleteFramebuffers__wrapper
uLg:__Z220RuntimeInvoker_Boolean_t97287965_RuntimeObject_Int32U26_t1369213839_Int32_t2950945753_Int32_t2950945753_Int32_t2950945753_RuntimeObject_SByte_t1669577662_Int32_t2950945753_ContractionU26_t961830454_ContextU26_t3937453398PFvvEPK10MethodInfoPvPS4_
tFe:_Enumerator__ctor_m920120158_AdjustorThunk
nxg:_Playable_Equals_m328753404_AdjustorThunk
sVh:__ZL78TextInfo_t3810425522_CustomAttributesCacheGenerator_TextInfo_Clone_m3838580862P21CustomAttributesCache
vDc:_cff_blend_build_vector
H5e:_WebHeaderCollection_ToString_m1263025316
Xse:_InternalEnumerator_1_MoveNext_m1015797184_gshared
fYb:__ZZN12MeshRenderer15InitializeClassEvEN29FunctorImpl_134kDidDeleteMesh4CallEPviR11MessageData
RNg:__Z91RuntimeInvoker_Void_t1185182177_RuntimeObject_RuntimeObject_RuntimeObject_Int32_t2950945753PFvvEPK10MethodInfoPvPS4_
s7d:_GetterAdapter_Invoke_m3767885970
ebh:_List_1__ctor_m747758800_gshared
I1d:_MethodBuilder_get_ReflectedType_m3038768129
vLf:_String_CreateString_m2818852475
M5f:_Enumerator_get_Current_m335492761_AdjustorThunk
lTb:__Z22GenerateBoxTilingShapeP22GenerateTilingAreaInfo
qUa:__ZN28EnlightenRendererInformation8TransferI14SafeBinaryReadEEvRT_
xVi:_CanvasRenderer_get_hasMoved_m2236392341
Hwg:_MessageEvent__ctor_m1231650089
z5:__ZNK15Lz4Decompressor16DecompressMemoryEPKvPjPvS2_
mIc:_UNITY_tt_face_build_cmaps
LTd:_MemberAccessException__ctor_m3713703094
bHa:__Z11IsCoroutine18ScriptingMethodPtrRK22CommonScriptingClasses
mWh:__ZL117GenericTypeParameterBuilder_t1988827940_CustomAttributesCacheGenerator_GenericTypeParameterBuilder_Equals_m3260957994P21CustomAttributesCache
USb:__ZN4core8hash_mapINS_12basic_stringIcNS_20StringStorageDefaultIcEEEE10vector_setI4PPtrI11SpriteAtlasENSt3__24lessIS8_EE13stl_allocatorIS8_L18MemLabelIdentifier81ELi16EEENS_4hashIS4_EENS9_8equal_toIS4_EEEixERKS4_
Hyc:__ZN11Rigidbody2D8TransferI24GenerateTypeTreeTransferEEvRT_
AMi:__ZL24UnresolvedVirtualCall_47P12Il2CppObject20DateTime_t3738529785PK10MethodInfo
lQa:__Z35UnityPropertySheet_MakeSortedColorsRKNSt3__23mapIN9ShaderLab16FastPropertyNameE10ColorRGBAfNS_4lessIS2_EENS_9allocatorINS_4pairIKS2_S3_EEEEEER10vector_mapIS2_S3_S5_NS6_INS7_IS2_S3_EEEEE
Z7h:__ZL72PKCS12_t4101533061_CustomAttributesCacheGenerator_U3CU3Ef__switchU24map8P21CustomAttributesCache
IHc:_UNITY_tt_face_load_os2
n9h:__ZL90Coroutine_t3829159415_CustomAttributesCacheGenerator_Coroutine_ReleaseCoroutine_m809189848P21CustomAttributesCache
Rfb:__Z29Transfer_Blittable_ArrayFieldI14SafeBinaryRead8Vector4fEvRT_R9ArrayInfoRK23StaticTransferFieldInfo
JYd:_Default_check_arguments_m3882727959
KBd:_Hashtable_get_IsSynchronized_m1426775249
Idg:_UTF8Encoding_GetMaxCharCount_m3762459613
UZd:_ModuleBuilder_RegisterToken_m4166846047
Czb:__ZZ23InitPlayerLoopCallbacksvEN51PostLateUpdateUpdateCustomRenderTexturesRegistrator7ForwardEv
EXe:_RawImage_OnPopulateMesh_m1115858855
VMg:__Z74RuntimeInvoker_MonoFileType_t221779374_IntPtr_t_MonoIOErrorU26_t1548853198PFvvEPK10MethodInfoPvPS4_
m4i:__ZN6il2cpp2vm13MetadataCache25GetStringLiteralFromIndexEi
zqd:_Hashtable_ToPrime_m33531354
Tph:_Collection_1_IsSynchronized_m1117613618_gshared
Pfb:__ZN15SerializeTraitsI13dynamic_arrayI5RectTIfELj4EEE19ResizeSTLStyleArrayERS3_i
Oig:_TypeInitializationException__ctor_m3546444694
c2b:__ZNK9Transform16GetLocalRotationEv
BUa:__ZN4PPtrI11LightProbesE8TransferI18StreamedBinaryReadILb0EEEEvRT_
ZH:__ZN11UnityEngine15CloudWebService23WebRequestUploadHandler17ConsumeUploadDataEj
g5i:__ZNSt3__214__split_bufferI6pollfdRNS_9allocatorIS1_EEEC2EjjS4_
ece:_CrossAppDomainData_get_DomainID_m3516796532
b_g:__Z68RuntimeInvoker_Void_t1185182177_Single_t1397266774_SByte_t1669577662PFvvEPK10MethodInfoPvPS4_
aQd:_MemoryStream_set_Position_m3169779190
vLb:__ZN13RenderManager29SetCurrentCameraAndStackStateEP6CameraP25CameraStackRenderingState
z4c:_ExecuteEvents_get_scrollHandler_m2659345019
ZFa:__ZNSt3__26__treeINS_12__value_typeIjN4core12basic_stringIcNS2_20StringStorageDefaultIcEEEEEENS_19__map_value_compareIjS7_NS_4lessIjEELb1EEE13stl_allocatorIS7_L18MemLabelIdentifier7ELi16EEE7destroyEPNS_11__tree_nodeIS7_PvEE
gkj:__ZN15dense_hashtableINSt3__24pairIK10KeyWrapperINS1_IP11Il2CppClassjEEES4_EES6_N6il2cpp8metadata14ArrayClassHashEN14dense_hash_mapIS6_S4_SB_NS6_14EqualsComparerINSA_17ArrayClassCompareEEENS0_9allocatorIS8_EEE9SelectKeyESF_SH_E12resize_deltaEjj
Yh:_JS_WebRequest_Release
tgf:_RSAManaged_get_PublicOnly_m405847294
HG:__ZN11UnityEngine15CloudWebService14DataErrorEventD0Ev
Xnj:__ZN6il2cpp6icalls8mscorlib6System4Type20internal_from_handleEi
M8h:__ZL72RequiredByNativeCodeAttribute_t4130846357_CustomAttributesCacheGeneratorP21CustomAttributesCache
oef:_ASN1_get_Tag_m2789147236
ude:_Context__ctor_m254302079
xrj:__ZN6il2cpp8metadata15GenericMetadata7InflateEPK19Il2CppGenericMethodPK20Il2CppGenericContext
_Oe:_KeyGeneratedEventHandler_EndInvoke_m3057317531
HTa:__ZN19ShaderPropertySheet16SetArrayPropertyEN9ShaderLab16FastPropertyNameENS_12PropertyTypeEPKvj
qZe:_Selectable_FindSelectable_m2348614027
dbd:_FloatTween_get_duration_m1227071020
esj:__ZN15dense_hashtableINSt3__24pairIK10KeyWrapperIP12Il2CppObjectEN6il2cpp2gc9CachedCCWEEES5_NS7_5utils11PointerHashIS3_EEN14dense_hash_mapIS5_S9_SD_NS5_14EqualsComparerINS0_8equal_toIS4_EEEENS0_9allocatorISA_EEE9SelectKeyESI_SK_E16reset_thresholdsEv
edd:_DropdownItem_OnPointerEnter_m1492957598
G7d:_ParameterInfo_get_ParameterType_m4197803362
rMg:__Z91RuntimeInvoker_Void_t1185182177_Int32U26_t1369213839_Int32U26_t1369213839_Int32_t2950945753PFvvEPK10MethodInfoPvPS4_
ndc:__ZN8GUIState8EndOnGUIEv
aYc:__ZN11UnityEngine15PlatformWrapper16GetApplicationIdEv
bKc:_UNITY_TT_Get_VMetrics
gIg:__Z49RuntimeInvoker_Char_t3634460470_Int16_t2552820387PFvvEPK10MethodInfoPvPS4_
rWg:__Z69RuntimeInvoker_Color_t2555686324_Color_t2555686324_Single_t1397266774PFvvEPK10MethodInfoPvPS4_
z0f:_EqualityComparer_1__ctor_m2283513024_gshared
rzd:_SimpleEnumerator__cctor_m2844299657
qTd:_LocalDataStoreSlot__ctor_m4104083971
wKh:_Array_qsort_TisVector3_t3722313464_m4117329442_gshared
kRi:_AudioSource_ReadExtensionName_m725112169
nzi:_X509CertificateEnumerator_System_Collections_IEnumerator_Reset_m2039524926
gSg:__Z128RuntimeInvoker_Void_t1185182177_RuntimeObject_BooleanU26_t4125257963_SByte_t1669577662_Int32U26_t1369213839_Int32U26_t1369213839PFvvEPK10MethodInfoPvPS4_
dla:__ZN7Texture21GetMasterTextureLimitEv
nFe:_Enumerator_Dispose_m3503748991_AdjustorThunk
lNb:__Z12CanAddScriptR10GameObject17ScriptingClassPtrPS1_S2_
ufj:__ZN6il2cpp2vm10Reflection12HasAttributeEP12Il2CppObjectP11Il2CppClass
PYg:__Z103RuntimeInvoker_Boolean_t97287965_RuntimeObject_Vector2_t2156229523_RuntimeObject_Vector3U26_t3464235976PFvvEPK10MethodInfoPvPS4_
Dzh:_Comparison_1_BeginInvoke_m3263247262_gshared
PZ:__ZN9ShaderLabL25StaticInitializeShaderLabEPv
U:Math_max
Zsi:__ZL64HorizontalLayoutGroup_t2586782146_CustomAttributesCacheGeneratorP21CustomAttributesCache
rNi:__ZL24UnresolvedVirtualCall_92P12Il2CppObjectPK10MethodInfo
qhj:_il2cpp_class_get_methods
iCg:_HitInfo_SendMessage_m1343099429_AdjustorThunk
Dib:__Z18Transfer_BlittableI24GenerateTypeTreeTransferLb0EN4math12int2_storageEEvRK29SerializationCommandArgumentsR31RuntimeSerializationCommandInfo
qvf:_StackTrace_get_trace_m1194606084
YIf:_Single_CompareTo_m2785801815_AdjustorThunk
Auj:__ZN6il2cpp2os6Thread16GetCurrentThreadEv
OIh:_Array_InternalArray__Insert_TisUILineInfo_t4195266810_m3191124053_gshared
EZb:__ZN10GameObject13ComponentPair15SetComponentPtrEPN5Unity9ComponentE
bRj:_glBlitFramebuffer__wrapper
mdi:__ZL109SceneManager_t2787271929_CustomAttributesCacheGenerator_SceneManager_INTERNAL_CALL_GetActiveScene_m1427626561P21CustomAttributesCache
XTb:__Z13RegisterClassI10MeshFilterEvv
SDg:_Transform_INTERNAL_set_position_m3627767375
dGa:__ZN10TagManager8TransferI19StreamedBinaryWriteILb0EEEEvRT_
W6a:__ZN11PreloadData23VirtualRedirectTransferER18StreamedBinaryReadILb0EE
qXa:__ZN13sorted_vectorI4PPtrI11SpriteAtlasENSt3__24lessIS2_EE13stl_allocatorIS2_L18MemLabelIdentifier1ELi16EEE21sort_clear_duplicatesEv
Zxg:_PropertyNameUtils_PropertyNameFromString_Injected_m1259736140
xpi:__ZL60FontData_t746620069_CustomAttributesCacheGenerator_m_MinSizeP21CustomAttributesCache
xwd:_Char_System_IConvertible_ToDateTime_m3564102661
JCe:_ShimEnumerator_get_Key_m317201915_gshared
jWa:__ZN6Sprite17MainThreadCleanupEv
kRj:_glBlendFuncSeparate__wrapper
hz:__ZN10AudioMixer14UpdateMuteSoloEv
eQ:__Z17GetMonoManagerPtrv
pFa:__ZN9Transform35SetLocalPositionWithoutNotificationERKN4math7_float3Ey
oji:__ZL87GUIUtility_t1868551600_CustomAttributesCacheGenerator_U3CguiIsExitingU3Ek__BackingFieldP21CustomAttributesCache
PRg:__Z69RuntimeInvoker_UInt64_t4134040092_Int32_t2950945753_SByte_t1669577662PFvvEPK10MethodInfoPvPS4_
Zi:_JS_Eval_ClearTimeout
kYe:_Raycast2DCallback_Invoke_m1500574149
Ppa:__ZN7ApiGLES16SetPatchVerticesEi
AEi:_CharacterClass_Compile_m3296067317
swj:__ZN6il2cpp2gc16GarbageCollector16InvokeFinalizersEv
Gvd:_Byte_System_IConvertible_ToInt64_m285584218_AdjustorThunk
zzg:_Rect_get_size_m477575021_AdjustorThunk
OYi:__ZN6il2cpp2vm5Class20FromGenericParameterEPK22Il2CppGenericParameter
iJ:__ZN19CloudServiceHandler11FlushEventsEv
d3:__ZN15GlobalCallbacksC2Ev
Ege:_MethodCall_System_Runtime_Remoting_Messaging_IInternalMessage_set_Uri_m1919576807
Bpc:__ZN7b2World10CreateBodyEPK9b2BodyDef
Oze:_Comparer_1_System_Collections_IComparer_Compare_m2016223770_gshared
eui:__ZL57BaseMeshEffect_t2440176439_CustomAttributesCacheGeneratorP21CustomAttributesCache
eRg:__Z74RuntimeInvoker_DateTime_t3738529785_DateTime_t3738529785_Int32_t2950945753PFvvEPK10MethodInfoPvPS4_
fQc:_UNITY_FT_New_Memory_Face
ymh:_Collection_1_System_Collections_IList_IndexOf_m3271188411_gshared
jOc:__ZN20TextRenderingPrivate21TextMeshGeneratorImpl5FlushEv
OPd:_MonoIO_GetFileStat_m678141354
ZFc:_UNITY_FT_Load_Sfnt_Table
Kbd:__Z15CastclassSealedP12Il2CppObjectP11Il2CppClass
wTb:__ZN15ApplicationInfo14GetSandboxTypeEv
Egb:__Z18Transfer_BlittableI17RemapPPtrTransferLb1EhEvRK29SerializationCommandArgumentsR31RuntimeSerializationCommandInfo
ztf:_Decimal_IsZero_m4250358244_AdjustorThunk
cTd:_UnmanagedMemoryStream_get_CanRead_m3770815400
Pwj:__ZNSt3__26vectorIjNS_9allocatorIjEEE26__swap_out_circular_bufferERNS_14__split_bufferIjRS2_EE
cMb:__ZN16ReflectionProbes40UpdateRealtimeReflectionProbesTimeslicedEv
TQi:__ZN23InterfaceActionInvoker1IP24SingleU5BU5D_t1444911251E6InvokeEjP11Il2CppClassP12Il2CppObjectS1_
Bqj:__ZNSt3__26__treeINS_12__value_typeIP24Il2CppReflectionAssemblyPvEENS_19__map_value_compareIS3_S5_NS_4lessIS3_EELb1EEENS_9allocatorIS5_EEE16__insert_node_atEPNS_16__tree_node_baseIS4_EERSF_SF_
ptf:_Decimal_u64_m3374804932
fjg:_UInt16_System_IConvertible_ToInt32_m1950778303_AdjustorThunk
i4a:__ZNK30RuntimeInitializeOnLoadManager22GetTypeVirtualInternalEv
w1i:__ZN15dense_hashtableINSt3__24pairIK10KeyWrapperIN6il2cpp5utils13dynamic_arrayIPK10Il2CppTypeLj4EEEEPFvvEEESA_NS3_8metadata19Il2CppSignatureHashEN14dense_hash_mapISA_SD_SG_NSA_14EqualsComparerINSF_22Il2CppSignatureCompareEEENS0_9allocatorISE_EEE9SelectKeyESK_SM_E12resize_deltaEjj
nXb:__ZN16ReflectionProbes15InitializeClassEv
uRh:__ZL71Enum_t4135868527_CustomAttributesCacheGenerator_Enum_Format_m2588135982P21CustomAttributesCache
soc:__ZNK12b2WheelJoint17GetReactionTorqueEf
O2i:__ZNK15dense_hashtableINSt3__24pairIK10KeyWrapperIPK11Il2CppClassEPKcEES6_N6il2cpp5utils11PointerHashIS3_EEN14dense_hash_mapIS6_S9_SE_NS6_14EqualsComparerINS0_8equal_toIS5_EEEENS0_9allocatorISA_EEE9SelectKeyESJ_SL_E12test_deletedEj
xuh:_ReadOnlyCollection_1_System_Collections_ICollection_CopyTo_m2527663815_gshared
CMh:_Dictionary_2_Do_ICollectionCopyTo_TisKeyValuePair_2_t3699644050_m4159638770_gshared
wpj:__ZN6il2cpp2vm5Image9GetCorlibEv
TFg:_Vector3_get_left_m2428419009
POi:__ZL25UnresolvedVirtualCall_170P12Il2CppObject25RaycastResult_t3360306849S1_PK10MethodInfo
Ftj:__ZN6il2cpp2vm11MethodStack17GetStackFramesRawEv
NXh:__ZL50Pointer_t2088917139_CustomAttributesCacheGeneratorP21CustomAttributesCache
RBj:_GC_reclaim_uninit
c6a:__ZN16LightmapSettings11UnshareDataEv
m4c:_ExecuteEvents_Execute_m113814934
A$:__ZN13RuntimeStaticINSt3__23mapIN4core12basic_stringIcNS2_20StringStorageDefaultIcEEEES6_NS0_4lessIS6_EE13stl_allocatorINS0_4pairIKS6_S6_EEL18MemLabelIdentifier13ELi16EEEELb0EE13StaticDestroyEPv
jKh:_Array_qsort_TisColor32_t2600501292_m1362211604_gshared
Uze:_Enumerator_System_Collections_IEnumerator_get_Current_m2979767597_AdjustorThunk
SEh:__ZN30GenericInterfaceActionInvoker1I17Color_t2555686324E6InvokeEPK10MethodInfoP12Il2CppObjectS0_
Fmd:_MD5CryptoServiceProvider_ProcessFinalBlock_m2241588515
A_e:_ScrollRect_GetBounds_m449872505
Yj:_glIsVertexArray
ipd:_SmallXmlParser_Read_m3485223434
pId:_Int16_Parse_m2276856944
$se:_InternalEnumerator_1__ctor_m3443175323_AdjustorThunk
cW:__ZN5Unity9Component8TransferI18StreamedBinaryReadILb0EEEEvRT_
qXh:__ZL131CustomAttributeData_t1084486650_CustomAttributesCacheGenerator_CustomAttributeData_t1084486650____ConstructorArguments_PropertyInfoP21CustomAttributesCache
fa:invoke_fff
QJj:_mbsinit
JOf:_Array_InternalArray__ICollection_Remove_TisContactPoint2D_t3390240644_m284878234_gshared
PPj:b14
Cbf:_RepeatContext_get_Expression_m255006542
DRc:__ZN2UI6Canvas17MainThreadCleanupEv
sna:__ZN6prcoreL12RemapGenericI17TexFormatARGB155517TexFormatRGBA8888EEvPKNS_9InnerInfoE
I_i:__ZN13Il2CppHashMapIPK19Il2CppGenericMethodPK26Il2CppGenericMethodIndicesN6il2cpp8metadata23Il2CppGenericMethodHashENS7_26Il2CppGenericMethodCompareENSt3__29allocatorINSA_4pairIK10KeyWrapperIS2_ES5_EEEEEC2EjRKS8_RKS9_
y3d:_TypeBuilder_HasElementTypeImpl_m1871001960
bIf:_SecurityFrame__ctor_m2140076703_AdjustorThunk
Y_f:_DefaultComparer_Equals_m2458578172_gshared
rra:__ZN7ApiGLES13CreateProgramEv
TAe:_Enumerator_VerifyState_m4003066746_gshared
sla:__ZN4crnd12crn_unpackerD2Ev
jk:_emscripten_glTexImage2D
Iye:_Comparer_1_System_Collections_IComparer_Compare_m2537217645_gshared
BO:__ZN18ScriptingArguments9AddStringEPKc
jCj:_setup_header
q4f:_KeyValuePair_2__ctor_m3953574590_AdjustorThunk
wxd:_Char_ToString_m3588025615
pPf:_SetPropertyUtility_SetStruct_TisAspectMode_t3417192999_m1565063249_gshared
Juh:_ReadOnlyCollection_1_System_Collections_IList_get_IsReadOnly_m375760151_gshared
z_h:__ZL53IEnvoyInfo_t2180778907_CustomAttributesCacheGeneratorP21CustomAttributesCache
_Me:_CryptoConvert_ToCapiKeyBlob_m3371450375
Ama:__ZL23stbir__resize_arbitraryPvPKviiiS_iiiffffPfiij14stbir_datatype12stbir_filterS4_10stbir_edgeS5_16stbir_colorspace
Xib:__Z18Transfer_BlittableI24GenerateTypeTreeTransferLb1E8Vector4fEvRK29SerializationCommandArgumentsR31RuntimeSerializationCommandInfo
TPj:b18
uk:_pthread_detach
D4i:__ZN6il2cpp2vm19SocketPollingThread7RunLoopEv
Mdd:_FontUpdateTracker_UntrackText_m1981515690
nch:_List_1_System_Collections_ICollection_get_SyncRoot_m1937857346_gshared
Prb:__ZNSt3__213__stable_sortIRN10vector_mapI17ScriptingClassPtrPKN5Unity4TypeENS_4lessIS2_EENS_9allocatorINS_4pairIS2_S6_EEEEE13value_compareENS_11__wrap_iterIPSB_EEEEvT0_SJ_T_NS_15iterator_traitsISJ_E15difference_typeEPNSM_10value_typeEi
CJe:_SimpleCollator_FillSurrogateSortKeyRaw_m725998232
tdh:_List_1_AddEnumerable_m1284696147_gshared
U4e:_IPAddress_Equals_m1823478787
kee:_Context_CreateNewContext_m3053563976
dbi:__ZL83RectOffset_t1369453676_CustomAttributesCacheGenerator_RectOffset_set_top_m713260669P21CustomAttributesCache
_8:__ZN9ShaderLab25SerializedTextureProperty8TransferI24GenerateTypeTreeTransferEEvRT_
mMh:_Array_swap_TisVector2_t2156229523_TisVector2_t2156229523_m345092822_gshared
tjh:_Collection_1_get_Item_m1773274637_gshared
mdj:__ZN6il2cpp2gc19AppendOnlyGCHashMapINSt3__24pairIPK14Il2CppAssemblyP11Il2CppClassEEP24Il2CppReflectionAssembly17ReflectionMapHashIS9_ENS2_8equal_toIS9_EEEC2Ev
qIc:_tt_cmap14_char_next
Ilb:__Z18Transfer_BlittableI19StreamedBinaryWriteILb0EELb0EdEvRK29SerializationCommandArgumentsR31RuntimeSerializationCommandInfo
b9:__ZN11NamedObject8TransferI18StreamedBinaryReadILb0EEEEvRT_
Eua:__ZNK17GPUSkinPoseBuffer12GetBoneCountEv
Urg:_InvokableCall_remove_Delegate_m1376110510
taf:_Capture_get_Value_m3919646039
XBd:_Hashtable_Clear_m3112193608
qdg:_UTF8Encoding_InternalGetByteCount_m771565606
bpj:__ZNK15dense_hashtableINSt3__24pairIK10KeyWrapperIP14Il2CppIUnknownEjEES5_N6il2cpp5utils11PointerHashIS3_EEN14dense_hash_mapIS5_jSB_NS5_14EqualsComparerINS0_8equal_toIS4_EEEENS0_9allocatorIS7_EEE9SelectKeyESG_SI_E12test_deletedEj
fNe:_DSAManaged_GenerateKeyPair_m2236915969
w8g:_List_1_System_Collections_IList_Remove_m3654336679_gshared
jbi:__ZL51GUILayer_t2783472903_CustomAttributesCacheGeneratorP21CustomAttributesCache
$Th:__ZL56IDictionary_2_t3177279192_CustomAttributesCacheGeneratorP21CustomAttributesCache
sQf:_Array_InternalArray__IEnumerable_GetEnumerator_TisUInt64_t4134040092_m1382862496_gshared
Rk:_emscripten_glMatrixMode
RWe:_MaskableGraphic_UnityEngine_UI_IClippable_get_gameObject_m1739855597
zAf:_NumberFormatInfo_get_RawPercentGroupSizes_m97703232
eIf:_SecurityFrame_get_Assembly_m2874566710
zBf:_Guid__ctor_m3562600567_AdjustorThunk
aG:__ZN11UnityEngine15CloudWebService14DataDispatcher16PrepareDataBlockERNS0_16SessionContainerE
$va:__ZN18GfxFramebufferGLES5ClearE13GfxClearFlagsRK10ColorRGBAffib
$Sf:_MonoProperty_StaticGetterAdapterFrame_TisRuntimeObject_m4131530968_gshared
rqb:__ZL26Transfer_SimpleNativeClassI18StreamedBinaryReadILb0EE10RectOffsetLb0EEvRK29SerializationCommandArgumentsR31RuntimeSerializationCommandInfo
Yre:_InternalEnumerator_1_get_Current_m2316281569_gshared
lDb:__ZL12DepthPassJobPN21GfxDeviceAsyncCommand10ArgScratchEPKNS_3ArgE
m7:__ZNSt3__26vectorIN9ShaderLab20SerializedSubProgram16TextureParameterENS_9allocatorIS3_EEE6assignINS_11__wrap_iterIPS3_EEEENS_9enable_ifIXaasr21__is_forward_iteratorIT_EE5valuesr16is_constructibleIS3_NS_15iterator_traitsISC_E9referenceEEE5valueEvE4typeESC_SC_
_Ee:_Transform_1_EndInvoke_m1701794896_gshared
Nfc:__ZN5Unity9rapidjson6WriterI16TempBufferWriterNS0_4UTF8IcEES4_13JSONAllocatorE11WriteDoubleEd
Yeg:_Thread_SetCachedCurrentUICulture_m1729523031
fVc:__Z55Register_UnityEngine_CanvasGroup_get_ignoreParentGroupsv
HTe:_InputField_get_minHeight_m2822964544
wUb:__Z13RegisterClassI19LowerResBlitTextureEvv
kEe:__ZN23GenericVirtFuncInvoker1I27DictionaryEntry_t3123975638iE6InvokeEPK10MethodInfoP12Il2CppObjecti
Yif:_ClientContext_set_ClientHelloProtocol_m4189379912
Tm:FUNCTION_TABLE_iiiiiiiiiiii
Xch:_List_1_get_Item_m1686506901_gshared
oIa:__ZN16GraphicsSettingsD0Ev
bQb:__Z29StdTemplateConversionFunctionIshEbPvR14SafeBinaryRead
n:cttz_i8
jDc:_UNITY_FT_GlyphLoader_Add
GRi:_AudioListener_INTERNAL_CALL_ReadExtensionPropertyName_m330480156
nYh:__ZL62ActivationArguments_t4219999170_CustomAttributesCacheGeneratorP21CustomAttributesCache
sTg:__Z53RuntimeInvoker_Interval_t1802865632_Int32_t2950945753PFvvEPK10MethodInfoPvPS4_
LGd:_Convert_ToUInt16_m867476252
Ol:_emscripten_glViewport
_Sb:__Z21GenerateTilingAreaJobP22GenerateTilingAreaInfoj
wyj:__ZN6il2cpp6icalls8mscorlib6System15MonoCustomAttrs17IsDefinedInternalEP12Il2CppObjectP20Il2CppReflectionType
_5f:_Enumerator__ctor_m40451936_AdjustorThunk
PWg:__Z53RuntimeInvoker_Vector3_t3722313464_Single_t1397266774PFvvEPK10MethodInfoPvPS4_
FWi:_SkeletonBone_t4134054672_marshal_pinvoke_back
QZh:__ZL115SynchronizationAttribute_t3946661254_CustomAttributesCacheGenerator_SynchronizationAttribute_IsContextOK_m324067792P21CustomAttributesCache
_Yd:_CustomAttributeData_get_Constructor_m489601093
HEc:_cff_parse_font_bbox
LIe:_MSCompatUnicodeTable_Category_m1834196420
L3b:__Z35Application_Get_Custom_PropIsEditorv
z2a:__ZN14PlayerSettings23VirtualRedirectTransferER18StreamedBinaryReadILb0EE
fwf:_Double_CompareTo_m3151899116
rHj:__ZN6il2cpp2os5Event5ResetEv
yIb:__Z26CombineDepthNormalsTextureRK17RenderLoopContextR13dynamic_arrayI16RenderObjectDataLj4EE
$Hc:_tt_name_ascii_from_other
eLi:_ToggleGroup__ctor_m3308114662
irj:__ZN6il2cpp8metadata15GenericMetadata17InflateParametersEPK13ParameterInfohPK20Il2CppGenericContextb
qGa:__ZN6Camera13AwakeFromLoadE17AwakeFromLoadMode
FLh:_Array_Sort_TisUILineInfo_t4195266810_m3737783007_gshared
sxg:_PlayableAsset_Internal_CreatePlayable_m2550417712
nkf:_Context_get_LastHandshakeMsg_m2730646725
R5h:__ZL59ResolveEventArgs_t1779456501_CustomAttributesCacheGeneratorP21CustomAttributesCache
sya:__ZN4PPtrI6SpriteE8TransferI18StreamedBinaryReadILb0EEEEvRT_
xud:_Convert_ToInt16_m3324557887
Vwi:_TlsStream_Write_m188217214
aob:__ZN4PPtrI9Texture2DE8TransferI18StreamedBinaryReadILb1EEEEvRT_
_Li:__ZL24UnresolvedVirtualCall_19P12Il2CppObject25DSAParameters_t1885824122PK10MethodInfo
tvb:__Z25SetNeedToPerformRenderingb
LLj:__ZN10__cxxabiv116__shim_type_infoD2Ev
wDi:_Alternation__ctor_m1629257642
Xkg:_UInt64_System_IConvertible_ToInt32_m949522652_AdjustorThunk
CEa:__ZN10GameObjectD2Ev
ADb:__ZN14qsort_internal30FindAndMovePivotToLastPositionIP15RODataDepthPassi17ROSorterDepthPassEEvT_S4_T0_T1_
NTd:_MethodAccessException__ctor_m3411913042
P1f:_EqualityComparer_1__ctor_m1767308726_gshared
lLb:__ZN12CullingGroup10SendEventsEPK17CullingGroupEventj
i5i:__ZNSt3__214__split_bufferI6pollfdRNS_9allocatorIS1_EEED2Ev
DAf:_NumberFormatInfo_get_PerMilleSymbol_m1360140831
Qgf:_EncryptedData_get_EncryptionAlgorithm_m905084934
bQf:_Array_InternalArray__IEnumerable_GetEnumerator_TisCustomAttributeTypedArgument_t2723150157_m1333528454_gshared
O5c:_PointerInputModule__ctor_m3728889932
IL:__ZThn32_NK8Renderer8GetLayerEv
x6f:_Enumerator_System_Collections_IEnumerator_Reset_m2915500989_gshared
MEc:_cff_parse_vsindex
Ypj:__ZN30dense_hashtable_const_iteratorINSt3__24pairIK10KeyWrapperINS1_IPKcS4_EEEiEES6_24NamespaceAndNamePairHashN14dense_hash_mapIS6_iS9_NS6_14EqualsComparerI26NamespaceAndNamePairEqualsEENS0_9allocatorIS8_EEE9SelectKeyESD_SF_E30advance_past_empty_and_deletedEv
BId:_Int32_ValidDigit_m1059003769
uVj:_emscripten_glTexParameterfv__wrapper
j6h:__ZL54MemberFilter_t426314064_CustomAttributesCacheGeneratorP21CustomAttributesCache
FUe:_LayoutGroup_get_rectTransform_m442863741
edb:__Z18Transfer_BlittableI14SafeBinaryReadLb1E9BoundsIntEvRK29SerializationCommandArgumentsR31RuntimeSerializationCommandInfo
hij:_il2cpp_method_get_param_count
I1b:__ZN10systeminfo19ISOToSystemLanguageERN4core12basic_stringIcNS0_20StringStorageDefaultIcEEEE
ecj:__ZNK15dense_hashtableINSt3__24pairIK10KeyWrapperINS1_IPK12PropertyInfoP11Il2CppClassEEEjEES9_17ReflectionMapHashIS8_EN14dense_hash_mapIS9_jSD_NS9_14EqualsComparerINS0_8equal_toIS8_EEEENS0_9allocatorISB_EEE9SelectKeyESI_SK_E3endEv
Jyc:__ZN11Rigidbody2D8TransferI19StreamedBinaryWriteILb0EEEEvRT_
Czh:__ZN28GenericInterfaceFuncInvoker2Ii39CustomAttributeNamedArgument_t287865710S0_E6InvokeEPK10MethodInfoP12Il2CppObjectS0_S0_
xNh:_LayoutGroup_SetProperty_TisAxis_t3613393006_m3591044743_gshared
Klg:_UnauthorizedAccessException__ctor_m40101894
KRh:__ZL69RuntimeArray_CustomAttributesCacheGenerator_Array_SetValue_m282347242P21CustomAttributesCache
cMc:_ps_dimension_done
rRc:__Z46Register_UnityEngine_TextGenerator_Dispose_cppv
VNg:__Z67RuntimeInvoker_GCHandle_t3351438187_RuntimeObject_Int32_t2950945753PFvvEPK10MethodInfoPvPS4_
kwf:_Double_Parse_m4153729520
_Gh:_IndexedSet_1_AddUnique_m861843892_gshared
B6h:__ZL59HybridDictionary_t4070033136_CustomAttributesCacheGeneratorP21CustomAttributesCache
XTa:__ZN16LightmapSettings8TransferI14SafeBinaryReadEEvRT_
zca:__ZN17BufferManagerGLES13ReleaseBufferEP14DataBufferGLES
Yhf:_CipherSuite_Write_m1172814058
nSd:_SynchronizedWriter_Write_m301917713
HY:__ZN9profiling6MarkerC2EPKc13ProfilerGroupNS0_5FlagsE
pye:__ZN21InterfaceFuncInvoker1Ii22UILineInfo_t4195266810E6InvokeEjP11Il2CppClassP12Il2CppObjectS0_
pkc:__Z18Transfer_BlittableI8JSONReadLb1EjEvRK29SerializationCommandArgumentsR31RuntimeSerializationCommandInfo
YZd:_ConstructorBuilder_get_IsCompilerContext_m3364441562
Vqg:_Debug_LogWarning_m3752629331
Ryh:_ReadOnlyCollection_1_System_Collections_Generic_IListU3CTU3E_RemoveAt_m4037795630_gshared
pPg:__Z117RuntimeInvoker_Void_t1185182177_RuntimeObject_Int32_t2950945753_Int32_t2950945753_Int32_t2950945753_Int32_t2950945753PFvvEPK10MethodInfoPvPS4_
Mqi:__ZL81U3CMouseDragOutsideRectU3Ec__Iterator1_t3909241878_CustomAttributesCacheGeneratorP21CustomAttributesCache
B8c:_U3COnFinishSubmitU3Ec__Iterator0_Reset_m3632769946
jp:stackSave
Fad:_ColorTween_get_targetColor_m1724075482_AdjustorThunk
xMc:_ps_dimension_end
Zac:__Z41Register_UnityEngine_Mesh_Internal_Createv
Nbb:__ZN16MemoryFileSystem5TouchER13FileEntryData
I$a:__ZN14SpriteRenderer23VirtualRedirectTransferER24GenerateTypeTreeTransfer
grj:__ZNK15dense_hashtableI10KeyWrapperIP18Il2CppGenericClassES3_N6il2cpp8metadata22Il2CppGenericClassHashEN14dense_hash_setIS3_S6_NS3_14EqualsComparerINS5_25Il2CppGenericClassCompareEEENSt3__29allocatorIS3_EEE8IdentityESA_SD_E12test_deletedERK30dense_hashtable_const_iteratorIS3_S3_S6_SF_SA_SD_E
ftc:__ZNSt3__27__sort3IRN18Overlap2DQueryBase29ColliderHitsByDepthComparitorEPP10Collider2DEEjT0_S7_S7_T_
_6f:_Enumerator_Dispose_m2498245804_AdjustorThunk
eEd:_Console_Open_m3077673205
KMb:__ZN6Camera9SetAspectEf
_Rf:_Array_InternalArray__IndexOf_TisDateTime_t3738529785_m2463359116_gshared
wa:invoke_viiffiii
Vqe:_InternalEnumerator_1_MoveNext_m4138204635_gshared
txj:__ZN15dense_hashtableINSt3__24pairIK10KeyWrapperIPK19Il2CppGenericMethodEP10MethodInfoEES6_N6il2cpp8metadata23Il2CppGenericMethodHashEN14dense_hash_mapIS6_S9_SD_NS6_14EqualsComparerINSC_26Il2CppGenericMethodCompareEEENS0_9allocatorISA_EEE9SelectKeyESH_SJ_E12resize_deltaEjj
LWj:_emscripten_glBindVertexArray__wrapper
_tj:__ZN6il2cpp6icalls8mscorlib6System4Enum19get_underlying_typeEP20Il2CppReflectionType
iFi:_Parser_IsECMAScript_m674158805
tt:__ZN10ObjectPoolIN4FMOD3DSPENS0_4DSPIEE7GetFreeEi
xFa:__ZN9Transform37InitializeTransformHierarchyRecursiveER18TransformHierarchyRii
Pva:__ZN26SinglePassStereoSupportExt23SetupStereoMatrixParamsE21MonoOrStereoscopicEye24BuiltinShaderMatrixParamRK10Matrix4x4f
TKh:_Array_Resize_TisVector2_t2156229523_m1564542050_gshared
t5e:_ServicePointManager_get_CertificatePolicy_m1966679142
LJj:_fscanf
B0c:__ZNK25UnityWebRequestJavaScript16GetUploadedBytesEv
aE:__Z46AudioListener_CUSTOM_GetNumExtensionPropertiesP12Il2CppObject
O5i:__ZN6il2cpp6icalls8mscorlib6SystemL16CheckMemberMatchI9FieldInfoNS_5utils10functional6FilterINSt3__212basic_stringIcNS8_11char_traitsIcEENS8_9allocatorIcEEEENS5_13VmStringUtils23CaseInsensitiveComparerEEEEEbPKT_PK11Il2CppClassSN_iRKT0_
cP:__Z14GetMonoManagerv
lSf:_Array_InternalArray__IndexOf_TisMonoResource_t4103430009_m1351751258_gshared
dyf:_FieldAccessException__ctor_m3583219052
U9b:__Z57Register_UnityEngine_Transform_INTERNAL_set_localPositionv
Xdi:__ZL105RectTransform_t3704657025_CustomAttributesCacheGenerator_RectTransform_INTERNAL_get_anchorMax_m1239315619P21CustomAttributesCache
Dga:__ZN13GfxDeviceGLES26SetRandomWriteTargetBufferEi15ComputeBufferID
iCj:_GC_split_block
OKh:_Array_Resize_TisUICharInfo_t75501106_m3903846016_gshared
Cvh:_ReadOnlyCollection_1_System_Collections_Generic_ICollectionU3CTU3E_get_IsReadOnly_m3887826072_gshared
Iuc:__ZN10Effector2D8TransferI18StreamedBinaryReadILb0EEEEvRT_
Xbj:__ZNK15dense_hashtableINSt3__24pairIK10KeyWrapperINS1_IPK12PropertyInfoP11Il2CppClassEEEjEES9_17ReflectionMapHashIS8_EN14dense_hash_mapIS9_jSD_NS9_14EqualsComparerINS0_8equal_toIS8_EEEENS0_9allocatorISB_EEE9SelectKeyESI_SK_E8min_sizeEjj
qzb:__ZZ23InitPlayerLoopCallbacksvEN49EarlyUpdateResetFrameStatsAfterPresentRegistrator7ForwardEv
lKj:_poll
Evh:_ReadOnlyCollection_1_System_Collections_IEnumerable_GetEnumerator_m1671097018_gshared
vlg:_UInt64_ToString_m1529093114_AdjustorThunk
bsi:__ZL85Selectable_t3250028441_CustomAttributesCacheGenerator_Selectable_IsPressed_m907486548P21CustomAttributesCache
Iae:_TypeLibImportClassAttribute__ctor_m2302178978
kKe:_Escape_t3294788190_marshal_pinvoke
$Se:_InputField_OnUpdateSelected_m1118869681
Apj:__ZN6il2cpp2vmL36AddNestedTypesToNametoClassHashTableEP40Il2CppNameToTypeDefinitionIndexHashTablePKcRKNSt3__212basic_stringIcNS5_11char_traitsIcEENS5_9allocatorIcEEEEP11Il2CppClass
Fhd:_SerializationException__ctor_m3131447373
Bki:__ZL106Physics2D_t1528932956_CustomAttributesCacheGenerator_Physics2D_INTERNAL_CALL_Internal_Linecast_m2595034268P21CustomAttributesCache
Cla:__ZN4crnd12crn_unpacker11unpack_dxt1EPPhjjj
r1b:__ZNK11ICallString6ToUTF8Ev
_4g:__Z39RuntimeInvoker_MonoResource_t4103430009PFvvEPK10MethodInfoPvPS4_
UYi:__ZN15dense_hashtableINSt3__24pairIK10KeyWrapperIPK22Il2CppGenericParameterEP11Il2CppClassEES6_N6il2cpp5utils11PointerHashIS4_EEN14dense_hash_mapIS6_S9_SE_NS6_14EqualsComparerINS0_8equal_toIS5_EEEENS0_9allocatorISA_EEE9SelectKeyESJ_SL_E15insert_noresizeERKSA_
XDe:_Transform_1_Invoke_m2468053724_gshared
eOg:__Z51RuntimeInvoker_Void_t1185182177_TimeSpan_t881159249PFvvEPK10MethodInfoPvPS4_
BDb:__ZNSt3__211__sift_downIR17ROSorterDepthPassP15RODataDepthPassEEvT0_S5_T_NS_15iterator_traitsIS5_E15difference_typeES5_
KPa:__ZN18UnityPropertySheet11UnityTexEnvC2Ev
Yqd:_ArgumentException__ctor_m3200406061
rR:__ZN12FileAccessor4ReadEyyPvPy
xrb:__Z29Transfer_Blittable_ArrayFieldI18StreamedBinaryReadILb0EE11QuaternionfEvRT_R9ArrayInfoRK23StaticTransferFieldInfo
Peh:_List_1_set_Capacity_m2777925136_gshared
lMb:__ZN13RenderTexture9SetHeightEi
Jsa:__ZNK6Camera20IsCurrentlyRenderingEv
Jif:_CipherSuiteCollection_get_IsFixedSize_m3127823890
ILa:__ZN16LevelGameManager8TransferI24GenerateTypeTreeTransferEEvRT_
pxe:_InternalEnumerator_1_System_Collections_IEnumerator_get_Current_m3537550566_gshared
HYe:_Scrollbar_UpdateVisuals_m2492252165
anj:__ZN6il2cpp6icalls8mscorlib6System2IO6MonoIO17GetFileAttributesEP12Il2CppStringPi
Wld:_HMACMD5__ctor_m3008609295
Bqf:_DateTime__ParseAmPm_m3478436123
frf:_DateTime_ToString_m2992030064_AdjustorThunk
UIc:_tt_cmap8_char_index
aP:__Z24scripting_class_get_name17ScriptingClassPtr
YQd:_Stream_WriteByte_m1519852120
DLi:_VerticalLayoutGroup_CalculateLayoutInputHorizontal_m1404590745
i0:__ZN13RuntimeStaticI15GUIEventManagerLb0EE13StaticDestroyEPv
QUd:_ShortComparer_Compare_m1881262465
Xeb:__Z29Transfer_Blittable_ArrayFieldI14SafeBinaryReadjEvRT_R9ArrayInfoRK23StaticTransferFieldInfo
Kxc:__ZN16CircleCollider2D13PrepareShapesER13dynamic_arrayIP7b2ShapeLj4EERK10Matrix4x4f
je:_emscripten_set_keydown_callback
Z9f:_EncoderReplacementFallback__ctor_m1483565116
Gbf:_Interpreter_IsWordChar_m2858055765
UBd:_Hashtable_CopyTo_m2905447224
zR:__ZN12FileAccessorC2Ev
N1f:_EqualityComparer_1_System_Collections_IEqualityComparer_Equals_m3855544238_gshared
BJf:_String_System_IConvertible_ToDouble_m3740733360
QGh:_EventFunction_1_Invoke_m2429482587_gshared
OGa:__ZN6Camera8TransferI19StreamedBinaryWriteILb0EEEEvRT_
$yc:__ZN23ColliderTilingExtensionC2Ev
q7i:__ZN6il2cpp2vm7Runtime12GetConfigDirEv
CLi:_VerticalLayoutGroup__ctor_m321345421
ir:__ZN4PPtrI13MonoBehaviourE8TransferI18StreamedBinaryReadILb0EEEEvRT_
X5f:_Enumerator_MoveNext_m1177880931_AdjustorThunk
h0e:_Slider_UpdateVisuals_m3662961057
Mii:__ZL82Event_t2956885303_CustomAttributesCacheGenerator_Event_get_commandName_m4275147343P21CustomAttributesCache
bTi:_TextGenerator_Populate_m194003733
r9h:__ZL111ScriptableObject_t2528358522_CustomAttributesCacheGenerator_ScriptableObject_CreateInstanceFromType_m1997111014P21CustomAttributesCache
NNi:__ZL25UnresolvedVirtualCall_114P12Il2CppObjecttPK10MethodInfo
$_d:_DerivedType_get_FullName_m1025358827
akd:_CryptoConfig_MapNameToOID_m2044758263
sqi:__ZL70InputField_t3762917431_CustomAttributesCacheGenerator_m_OnValueChangedP21CustomAttributesCache
lwb:__ZN13RenderManager22OnWindowSizeHasChangedEv
Jtb:__Z39WriteQueueForTransferSignatureIntoCacheRK31TransferFunctionScriptingTraitsRK24TransferRequestSignature17ScriptingClassPtrR23CachedSerializationDataRb
Q5a:__ZN13RenderManager18UpdateAllRenderersEv
jbg:_Encoding_get_UTF8UnmarkedUnsafe_m320312322
ffg:_Thread_Thread_free_internal_m333849022
esb:__Z27ClearCommonScriptingClassesR22CommonScriptingClasses
vAi:_CostDelegate_BeginInvoke_m2828452701
cXc:__ZN22BaseUnityConnectClient30OnEnteringStatePausedOrStoppedEv
uwc:__ZN10ClipperLib7Clipper18SwapPositionsInAELEPNS_5TEdgeES2_
voh:_Collection_1_ConvertItem_m1556170494_gshared
N2b:__Z25scripting_raise_exception21ScriptingExceptionPtr
$of:_DateTime_ToUniversalTime_m1945318289
WPi:__ZL25UnresolvedVirtualCall_231P12Il2CppObjectPK10MethodInfo
qyd:_ArrayList_ToArray_m3827492363
z0e:_Slider_get_stepSize_m1423227661
qlg:_UInt64_Parse_m819899889
QEf:_SymmetricAlgorithm_set_IV_m3196220308
r1d:_GenericTypeParameterBuilder_GetHashCode_m852224381
XGd:_Convert_ToUInt32_m1453583008
$yf:_CompareInfo_Compare_m894311506
fFa:__Z24MergeTransformComponentsR9TransformS0_b
P0i:__ZNK15dense_hashtableI10KeyWrapperIPK19Il2CppGenericMethodES4_N6il2cpp8metadata23Il2CppGenericMethodHashEN14dense_hash_setIS4_S7_NS4_14EqualsComparerINS6_26Il2CppGenericMethodCompareEEENSt3__29allocatorIS4_EEE8IdentityESB_SE_E10test_emptyEj
x2c:_EventSystem_UpdateModules_m3643806022
pwj:__ZN6il2cpp2gc16GarbageCollector10StartWorldEv
isc:__ZN15b2CircleContactD0Ev
kWi:_AnimationOffsetPlayable__cctor_m1029460816
ZDh:_InvokableCall_1__ctor_m2610016537_gshared
Yki:__ZL54Collision2D_t2842956331_CustomAttributesCacheGeneratorP21CustomAttributesCache
NGf:_Evidence_get_SyncRoot_m2835084965
oPf:_SetPropertyUtility_SetStruct_TisTouchScreenKeyboardType_t1530597702_m2455393348_gshared
WZf:_DefaultComparer__ctor_m2280347240_gshared
Z$h:__ZL59ICryptoTransform_t2733259762_CustomAttributesCacheGeneratorP21CustomAttributesCache
yyj:__ZN6il2cpp2vm13ComObjectBase19GetRuntimeClassNameEPP15Il2CppHString__
oEd:_Convert_ToBoolean_m2833489984
Wj:_emscripten_glVertexAttribPointer
jMj:__ZNSt11logic_errorD0Ev
XJa:__ZNK20IntermediateRenderer12GetSceneMaskEv
wwb:__ZN14PreloadManager26UpdatePreloadingSingleStepENS_21UpdatePreloadingFlagsEi
AHh:_TweenRunner_1__ctor_m340723704_gshared
n$e:_ScrollRect_SetLayoutHorizontal_m3078869633
$Ie:_SimpleCollator__ctor_m1587210019
P7b:__Z57Register_UnityEngine_RectTransform_INTERNAL_set_anchorMinv
TGd:_Convert_ToUInt16_m1480956416
$ma:__ZN6prcoreL25inner_stretch_i8_bilinearEPKNS_9InnerInfoE
i7a:__ZL30RegisterFilteredObjectCallbackPP12Il2CppObjectiPv
nyh:_ReadOnlyCollection_1_System_Collections_Generic_IListU3CTU3E_RemoveAt_m3317217538_gshared
lii:__ZL54AudioSource_t3935305588_CustomAttributesCacheGeneratorP21CustomAttributesCache
Nwb:__Z19InitializeGfxDevicev
wG:__ZN11UnityEngine15CloudWebService16SessionContainer24GetSessionHeaderJsonDataERKN4core12basic_stringIcNS2_20StringStorageDefaultIcEEEERNS2_13StringBuilderE
E_d:_DerivedType_GetEvent_m4157575360
W$:__ZN13RuntimeStaticI21AssetReferenceStorageLb0EE13StaticDestroyEPv
djd:_SByte_System_IConvertible_ToType_m4075253447_AdjustorThunk
eBd:_Comparer__ctor_m2831654082
_rh:_Collection_1_ConvertItem_m618594517_gshared
i_g:__Z72RuntimeInvoker_Bounds_t2266837910_RuntimeObject_Matrix4x4U26_t3606180965PFvvEPK10MethodInfoPvPS4_
hBh:__ZN28GenericInterfaceFuncInvoker2IbiiE6InvokeEPK10MethodInfoP12Il2CppObjectii
juj:__ZN6il2cpp6icalls8mscorlib6System9AppDomain22InternalGetProcessGuidEP12Il2CppString
SCc:_cf2_builder_moveTo
u4h:__ZL79Convert_t2465617642_CustomAttributesCacheGenerator_Convert_ToUInt32_m3188121845P21CustomAttributesCache
dJg:__Z48RuntimeInvoker_RuntimeObject_Decimal_t2948259380PFvvEPK10MethodInfoPvPS4_
vfg:_ThreadStart_EndInvoke_m3768045394
BBa:__ZNK17FileSystemHandler10IsReadOnlyERK13FileEntryData
V5i:__ZNSt3__214__split_bufferIP9FieldInfoRNS_9allocatorIS2_EEEC2EjjS5_
gid:_StreamingContext__ctor_m2604757771_AdjustorThunk
sjb:__Z18Transfer_BlittableI24GenerateTypeTreeTransferLb1EjEvRK29SerializationCommandArgumentsR31RuntimeSerializationCommandInfo
Bbj:__ZNK15dense_hashtableINSt3__24pairIK10KeyWrapperINS1_IPK11Il2CppImageP11Il2CppClassEEEjEES9_17ReflectionMapHashIS8_EN14dense_hash_mapIS9_jSD_NS9_14EqualsComparerINS0_8equal_toIS8_EEEENS0_9allocatorISB_EEE9SelectKeyESI_SK_E10test_emptyERK30dense_hashtable_const_iteratorISB_S9_SD_SM_SI_SK_E
SYi:__ZN6il2cpp2os12FastAutoLockD2Ev
VWh:__ZL68AssemblyCopyrightAttribute_t836190902_CustomAttributesCacheGeneratorP21CustomAttributesCache
mVb:__ZNK28RectTransformPropertyBinding9BindValueER6ObjectRKN11UnityEngine9Animation14GenericBindingERNS3_10BoundCurveE
$W:__ZN11ColorRGBA328TransferI14SafeBinaryReadEEvRT_
mgi:__ZL56PlayableAsset_t3219022681_CustomAttributesCacheGeneratorP21CustomAttributesCache
Akh:_Collection_1_Add_m1736908447_gshared
$Ec:_cff_vstore_done
GTg:__Z68RuntimeInvoker_Void_t1185182177_UInt16_t2177724958_SByte_t1669577662PFvvEPK10MethodInfoPvPS4_
Slg:__ZN25GenericVirtActionInvoker2IP12Il2CppObjectP39UnhandledExceptionEventArgs_t2886101344E6InvokeEPK10MethodInfoS1_S1_S3_
_3a:__ZN15ResourceManager10Dependency8TransferI24GenerateTypeTreeTransferEEvRT_
tmd:_MACTripleDES_HashFinal_m3613553534
Mkg:_UInt64_System_IConvertible_ToChar_m2074245892
udg:_UTF8Encoding_InternalGetBytes_m1965760031
Of:_emscripten_glClearDepth
LYb:__ZNK8GUILayer22GetTypeVirtualInternalEv
bVa:__ZN14SafeBinaryRead21TransferSTLStyleArrayINSt3__26vectorIN15QualitySettings14QualitySettingENS1_9allocatorIS4_EEEEEEvRT_17TransferMetaFlags
tEh:_UnityAction_1__ctor_m3007623985_gshared
G0g:__Z56RuntimeInvoker_Boolean_t97287965_ILTokenInfo_t2325775114PFvvEPK10MethodInfoPvPS4_
Z1a:__ZNSt3__26vectorINS_4pairIPKN5Unity4TypeE7Hash128EENS_9allocatorIS7_EEE8__appendEj
kPb:__ZN14SafeBinaryRead17RegisterConverterEPKcS1_PFbPvRS_E
AD:__ZZN13AudioListener15InitializeClassEvEN31FunctorImpl_184kDidAddComponent4CallEPviR11MessageData
cFc:_cff_font_load
Puj:__GLOBAL__sub_I_LibraryLoader_cpp
q2b:__Z13IsPathCreatedRKN4core12basic_stringIcNS_20StringStorageDefaultIcEEEE
epi:__ZL99Dropdown_t2274391225_CustomAttributesCacheGenerator_Dropdown_DelayedDestroyDropdownList_m2082128994P21CustomAttributesCache
Gma:__ZL22stbir__encode_scanlineP11stbir__infoiPvPfiii
hMi:__ZL24UnresolvedVirtualCall_28P12Il2CppObjectS0_iiPK10MethodInfo
Q9d:_ExternalException__ctor_m2877839282
WBc:__ZN20QuadTreeNodeRenderer13StaticDestroyEPv
sH:__ZN11UnityEngine15CloudWebService20WebRequestRestClient5AbortEv
uDi:_Regex_Matches_m2080913806
yVb:__ZN9Transform12CleanupClassEv
rCg:_Sprite_get_rect_m2575211689
Ppi:__ZL85Graphic_t1660335611_CustomAttributesCacheGenerator_Graphic_OnPopulateMesh_m2916877004P21CustomAttributesCache
Jug:_Mathf_Sin_m3411839043
iQc:_UNITY_FT_Set_Pixel_Sizes
fXd:_OperatingSystem_Clone_m1122165140
QOh:_GameObject_AddComponent_TisRuntimeObject_m3469369570_gshared
h8:__ZNSt3__26vectorIN9ShaderLab19SerializedSubShaderENS_9allocatorIS2_EEE26__swap_out_circular_bufferERNS_14__split_bufferIS2_RS4_EE
yii:__ZL81AudioListenerExtension_t3242956547_CustomAttributesCacheGenerator_m_audioListenerP21CustomAttributesCache
a3h:__ZL59AttributeTargets_t1784037988_CustomAttributesCacheGeneratorP21CustomAttributesCache
Ulh:_Collection_1_System_Collections_IList_get_Item_m3426129749_gshared
ukj:__ZN6il2cpp2vmL24thread_cleanup_on_cancelEPv
Tah:_List_1_RemoveAll_m3165362277_gshared
Phg:_Type_type_is_subtype_of_m1406623598
xQf:_Array_InternalArray__IEnumerable_GetEnumerator_TisRaycastResult_t3360306849_m3650537473_gshared
Vdg:_Thread_get_CurrentThread_m4142136012
nKa:__Z30ProcessDynamicBatchGeometryJobP25DynamicVBOGeometryJobDataj
XDb:__ZNSt3__27__sort4IRNS_6__lessI11CulledLightS2_EEPS2_EEjT0_S6_S6_S6_T_
Ffj:__ZN6il2cpp2vm14TypeNameParser26ParseArrayModifierOptionalEv
sQi:__ZL25UnresolvedVirtualCall_255P12Il2CppObject19Vector2_t2156229523PK10MethodInfo
XN:__Z26scripting_object_get_class18ScriptingObjectPtr
tlj:__ZN6il2cpp6icalls8mscorlib6System10Reflection8Assembly13get_code_baseEP24Il2CppReflectionAssemblyb
K4a:__ZNSt3__26vectorIN4core12basic_stringIcNS1_20StringStorageDefaultIcEEEE13stl_allocatorIS5_L18MemLabelIdentifier13ELi16EEE7reserveEj
ild:_DSASignatureDeformatter__ctor_m2889130126
u9e:_X509ChainElementCollection_Clear_m2271223414
ZUb:__ZNK28MonoBehaviourPropertyBinding15GenerateBindingERKN4core12basic_stringIcNS0_20StringStorageDefaultIcEEEEbRN11UnityEngine9Animation14GenericBindingE
LAg:_RectTransform_INTERNAL_set_pivot_m1160676233
Pfh:_List_1_set_Item_m35836043_gshared
Lri:__ZL70ScrollRect_t4137855814_CustomAttributesCacheGenerator_m_OnValueChangedP21CustomAttributesCache
l9e:_X509ChainElementCollection__ctor_m3424079155
DAi:_LinkStack_Push_m3081279930
cCe:_Enumerator_MoveNext_m1107569389_gshared
j5g:__Z41RuntimeInvoker_ContactPoint2D_t3390240644PFvvEPK10MethodInfoPvPS4_
W5i:__ZNSt3__26vectorIP9FieldInfoNS_9allocatorIS2_EEE26__swap_out_circular_bufferERNS_14__split_bufferIS2_RS4_EE
LGh:_UnityEvent_3_GetDelegate_m1156357290_gshared
xwj:__ZN6il2cpp6icalls8mscorlib6System11Environment15internalGetHomeEv
Gse:_InternalEnumerator_1__ctor_m4200721464_gshared
ivg:_Matrix4x4_GetHashCode_m4034747639_AdjustorThunk
T8d:_ResourceCacheItem_t51292791_marshal_pinvoke_cleanup
mL:__ZNK5Unity9Component7GetNameEv
y6i:__ZNSt3__214__split_bufferIN6il2cpp6icalls8mscorlib6System12PropertyPairERNS_9allocatorIS5_EEEC2EjjS8_
TEf:_SymmetricAlgorithm_get_KeySize_m4185004893
S8g:_List_1_GetEnumerator_m232588170_gshared
iVe:_U3CDelayedSetDirtyU3Ec__Iterator0_Reset_m160466733
nqg:_Native__cctor_m1435623442
eeh:_List_1_System_Collections_IList_Remove_m1070694895_gshared
RHi:_LayoutCache__ctor_m3885940174
FVa:__ZN13ScreenManagerD0Ev
cWi:_AnimationMotionXToDeltaPlayable_GetHandle_m1319190040_AdjustorThunk
Knc:__ZNK11b2RopeJoint16GetReactionForceEf
mwi:_TlsServerSettings__ctor_m373357120
Lkg:_UInt64_System_IConvertible_ToByte_m1501504925_AdjustorThunk
WSi:_TextGenerator_Invalidate_m1072346986
tlf:_TlsClientHello_ProcessAsTls1_m2549285167
o6g:__Z74RuntimeInvoker_Boolean_t97287965_UIVertex_t4057497605_UIVertex_t4057497605PFvvEPK10MethodInfoPvPS4_
iwh:_ReadOnlyCollection_1_System_Collections_IList_Clear_m3591436538_gshared
WZe:_ScrollRect_set_decelerationRate_m723367336
O9f:_EncoderExceptionFallback_Equals_m2760188920
Ghb:__Z18Transfer_BlittableI17RemapPPtrTransferLb1EjEvRK29SerializationCommandArgumentsR31RuntimeSerializationCommandInfo
Rmd:_RC2CryptoServiceProvider_get_EffectiveKeySize_m3835262416
$x:__ZN4FMOD6System7releaseEv
qlb:__Z18Transfer_BlittableI19StreamedBinaryWriteILb0EELb1E8BitFieldEvRK29SerializationCommandArgumentsR31RuntimeSerializationCommandInfo
Uud:_Boolean_CompareTo_m3665076258
WJf:_String_Split_m3580120853
AOe:_PrivateKeyInfo__ctor_m2811023496
WQ:__Z18PathToAbsolutePathRKN4core12basic_stringIcNS_20StringStorageDefaultIcEEEE
$2d:_PropertyBuilder_GetCustomAttributes_m2917594003
MIi:_GUILayoutUtility_LayoutFromEditorWindow_m2914699782
Tcf:_BigInteger_SetBit_m1723423691
q$g:__Z78RuntimeInvoker_RuntimeObject_ObjectU26_t2146539884_RuntimeObject_RuntimeObjectPFvvEPK10MethodInfoPvPS4_
UTh:__ZL65X509ExtensionCollection_t609554708_CustomAttributesCacheGeneratorP21CustomAttributesCache
ima:__ZL13BlitImageImplR14ImageReferenceiiRKS_NS_10ColorSpaceENS_8BlitModeEb
roa:__ZN6prcoreL17RemapGenericFloatI18TexFormatRGBAFloat17TexFormatRGBFloatEEvPKNS_9InnerInfoE
TOh:_GameObject_GetComponentInChildren_TisRuntimeObject_m1310240902_gshared
hNe:__ZN30GenericInterfaceActionInvoker2IP12Il2CppObjectP21EventArgs_t3591816995E6InvokeEPK10MethodInfoS1_S1_S3_
Ifi:__ZL69PersistentCall_t3407714124_CustomAttributesCacheGenerator_m_ArgumentsP21CustomAttributesCache
yJa:__Z32TransferEnumWithNameForceIntSizeI14SafeBinaryReadN21BuiltinShaderSettings17BuiltinShaderModeEEvRT_RT0_PKc17TransferMetaFlags
Hlf:_TlsServerCertificateRequest_ProcessAsSsl3_m1084200341
ew:__ZN12AudioManager29ShutdownReinitializeAndReloadEv
qMa:__ZN16ReflectionProbes28GetMinBakedCubemapResolutionEv
FGf:_PermissionSet__ctor_m2328457660
gFe:_Enumerator__ctor_m1849900510_gshared
gyj:__GLOBAL__sub_I_String_cpp
RYi:__ZN15dense_hashtableINSt3__24pairIK10KeyWrapperIPK22Il2CppGenericParameterEP11Il2CppClassEES6_N6il2cpp5utils11PointerHashIS4_EEN14dense_hash_mapIS6_S9_SE_NS6_14EqualsComparerINS0_8equal_toIS5_EEEENS0_9allocatorISA_EEE9SelectKeyESJ_SL_E6insertERKSA_
iTe:_InputField_GenerateCaret_m1459647218
hei:__ZL101SpriteAtlasManager_t3158462485_CustomAttributesCacheGenerator_SpriteAtlasManager_Register_m2413332465P21CustomAttributesCache
cyi:_X509CertificateEnumerator__ctor_m85694331
dia:__ZN14DataBufferGLES16RecreateWithDataEjPKv
QS:__Z29GetGlobalAllowNameConversionsv
nVf:_Array_InternalArray__Insert_TisTableRange_t3332867892_m558285859_gshared
SNb:__ZN8Material8SetColorEN9ShaderLab16FastPropertyNameERK10ColorRGBAf
Nmi:__ZL77ExecuteEvents_t3484638744_CustomAttributesCacheGenerator_U3CU3Ef__mgU24cacheFP21CustomAttributesCache
D7f:_Enumerator_System_Collections_IEnumerator_Reset_m3754523291_gshared
gVj:_glUniform3uiv__wrapper
l3h:__ZL77Convert_t2465617642_CustomAttributesCacheGenerator_Convert_ToByte_m2375887898P21CustomAttributesCache
Zz:__ZN11AudioSource23VirtualRedirectTransferER18StreamedBinaryReadILb0EE
b9e:_X509CertificateEnumerator__ctor_m943731472
Kyg:_RangeInt_get_end_m4128831787
Z$:__ZN21AssetReferenceStorageC2Ev
XDh:_InvokableCall_1_Find_m1741895083_gshared
Xlb:__ZN10RectOffset8TransferI19StreamedBinaryWriteILb0EEEEvRT_
sNj:dynCall_iiifiii
Ych:_List_1_set_Item_m2082115010_gshared
Bag:_Encoding_GetBytes_m3735967069
mnc:__ZN23ColliderTilingExtension5ResetEv
wsd:_Array_Initialize_m3004991267
Fra:__ZN14GfxContextGLES43AddRenderSurfaceToDeferredFBOInvalidateListEPK17RenderSurfaceGLES
Vlj:__ZN6il2cpp6icalls8mscorlib6System9Threading6Thread15Thread_internalEP12Il2CppThreadP14Il2CppDelegate
vca:__ZN11NamedObject23VirtualRedirectTransferER14SafeBinaryRead
t1e:_Text_get_resizeTextMinSize_m1002355407
ZPc:__ZNSt3__26vectorIN20TextRenderingPrivate8FontImpl13CharacterInfoE13stl_allocatorIS3_L18MemLabelIdentifier1ELi16EEE6insertENS_11__wrap_iterIPKS3_EERS9_
qza:__ZN23PreloadManagerOperation6IsDoneEv
C9g:_List_1_GrowIfNeeded_m3796726_gshared
Jaj:__ZNK15dense_hashtableINSt3__24pairIK10KeyWrapperINS1_IPK10MethodInfoP11Il2CppClassEEEjEES9_17ReflectionMapHashIS8_EN14dense_hash_mapIS9_jSD_NS9_14EqualsComparerINS0_8equal_toIS8_EEEENS0_9allocatorISB_EEE9SelectKeyESI_SK_E8min_sizeEjj
sZe:_Selectable_get_navigation_m3508916916
hzc:__ZN10Effector2D10EndContactEP9b2Contact
Nxj:__ZN6il2cpp5utils11StringUtils11Utf16ToUtf8ERKNSt3__212basic_stringIDsNS2_11char_traitsIDsEENS2_9allocatorIDsEEEE
uff:_MD4Managed_Decode_m4273685594
sQg:__Z50RuntimeInvoker_Int64_t3736567304_Int16_t2552820387PFvvEPK10MethodInfoPvPS4_
CVg:__Z57RuntimeInvoker_Quaternion_t2301928331_Vector3_t3722313464PFvvEPK10MethodInfoPvPS4_
s6a:__ZN21LightProbeProxyVolume18HasHardwareSupportEv
msc:__ZNK20b2SeparationFunction17FindMinSeparationEPiS0_f
Wma:__ZN6prcoreL31inner_stretch_argb8888_bilinearEPKNS_9InnerInfoE
snb:__Z18Transfer_BlittableI18StreamedBinaryReadILb1EELb1E8BitFieldEvRK29SerializationCommandArgumentsR31RuntimeSerializationCommandInfo
JV:__ZNK4PPtrI11LightProbesEcvPS0_Ev
BJc:_UNITY_FT_Outline_Decompose
YKd:_Int64_System_IConvertible_ToChar_m1509243576_AdjustorThunk
oxi:_GeneralNames_get_IPAddresses_m4242915644
I5f:_Enumerator_Dispose_m3500272053_AdjustorThunk
ACj:_GC_init_size_map
sHa:__Z20scripting_object_new17ScriptingClassPtr
eSh:__ZL69RuntimeArray_CustomAttributesCacheGenerator_Array_Reverse_m3714848183P21CustomAttributesCache
NOe:_KeyGeneratedEventHandler_Invoke_m2527485594
Vgd:_Image_get_layoutPriority_m1290204116
L9i:__ZN24dense_hashtable_iteratorINSt3__24pairIK10KeyWrapperINS1_IPK9FieldInfoP11Il2CppClassEEEjEES9_17ReflectionMapHashIS8_EN14dense_hash_mapIS9_jSD_NS9_14EqualsComparerINS0_8equal_toIS8_EEEENS0_9allocatorISB_EEE9SelectKeyESI_SK_E30advance_past_empty_and_deletedEv
tFi:_Repetition_get_Expression_m2673886232
Bsf:_Decimal__ctor_m1925875020_AdjustorThunk
_gd:_SerializationCallbacks__ctor_m3863304525
OMa:__ZN18ShadowMapJobHeaderD0Ev
m$h:__ZL59SerializationInfo_t950877179_CustomAttributesCacheGeneratorP21CustomAttributesCache
P:Math_exp
yog:_Vector3_Min_m1803158933
Lo:FUNCTION_TABLE_iiifi
Utj:__ZN6il2cpp2os5posix13PosixAutoLockD2Ev
uzc:__ZN13BoxCollider2D15InitializeClassEv
wwi:_TlsServerSettings_set_CertificateTypes_m2047242411
SJi:_SymmetricTransform_OFB_m3690147804
ywe:_InternalEnumerator_1_MoveNext_m3713722659_AdjustorThunk
zCc:_cff_get_advances
dtb:__ZN13MonoBehaviour9SetScriptERK4PPtrI10MonoScriptE18ScriptingObjectPtr
EXi:_RaycastHit2D_get_collider_m1549426026
Pgb:__Z18Transfer_BlittableI17RemapPPtrTransferLb0E8Vector2fEvRK29SerializationCommandArgumentsR31RuntimeSerializationCommandInfo
Voj:__ZNSt3__218uninitialized_copyIPNS_4pairIK10KeyWrapperIP14Il2CppIUnknownEjEES8_EET0_T_SA_S9_
X3g:__Z77RuntimeInvoker_Void_t1185182177_Vector2U5BU5DU26_t476646542_Int32_t2950945753PFvvEPK10MethodInfoPvPS4_
bQe:_PKCS12_get_RNG_m2649456600
LAa:__ZNK10FileSystem16LastErrorMessageEv
SIh:_Array_InternalArray__Insert_TisVector3_t3722313464_m3862657277_gshared
tei:__ZL104NativeClassAttribute_t2601352714_CustomAttributesCacheGenerator_U3CQualifiedNativeNameU3Ek__BackingFieldP21CustomAttributesCache
fHf:_SecurityException__ctor_m1631242336
S_i:__ZN15dense_hashtableINSt3__24pairIK10KeyWrapperIPK11Il2CppClassEPKcEES6_N6il2cpp5utils11PointerHashIS3_EEN14dense_hash_mapIS6_S9_SE_NS6_14EqualsComparerINS0_8equal_toIS5_EEEENS0_9allocatorISA_EEE9SelectKeyESJ_SL_E14squash_deletedEv
y3c:_EventSystem_Update_m1662072334
e1c:__ZN22UnityWebRequestManager10InitializeEv
usb:__ZN13MonoBehaviour13AwakeFromLoadE17AwakeFromLoadMode
JVh:__ZL51FileMode_t1183438340_CustomAttributesCacheGeneratorP21CustomAttributesCache
zhb:__ZL26Transfer_SimpleNativeClassI17RemapPPtrTransfer8GradientLb1EEvRK29SerializationCommandArgumentsR31RuntimeSerializationCommandInfo
a3c:_RaycasterManager_RemoveRaycasters_m3057093063
Y_b:__ZN12CachedWriter9InitWriteER15CacheWriterBase
d_b:__Z21UnsignedInt64ToStringy
XXe:_GetRaycastNonAllocCallback_BeginInvoke_m3984885848
Wqe:_InternalEnumerator_1_MoveNext_m4138204635_AdjustorThunk
FBi:_PatternCompiler_BeginLink_m1295557963
TFa:__ZN14SafeBinaryRead21TransferSTLStyleArrayI13dynamic_arrayI17SortingLayerEntryLj4EEEEvRT_17TransferMetaFlags
b0h:__ZL46MD5_t3177620429_CustomAttributesCacheGeneratorP21CustomAttributesCache
vHd:_GuidParser_ThrowFormatException_m3223388534
TEi:_Group_GetAnchorInfo_m3730312864
Hpi:__ZL50Graphic_t1660335611_CustomAttributesCacheGeneratorP21CustomAttributesCache
ghg:_TimeSpan_op_LessThanOrEqual_m300470010
yee:_ContextAttribute_Freeze_m3288175579
rcf:_Interval_Merge_m3454211016_AdjustorThunk
d0i:__ZNSt3__218uninitialized_fillIPNS_4pairIK10KeyWrapperIPK19Il2CppGenericMethodEPK26Il2CppGenericMethodIndicesEESB_EEvT_SD_RKT0_
U1:__ZZN15DirectorManager15InitializeClassEvEN41FixedUpdateDirectorFixedUpdateRegistrator7ForwardEv
$Pd:_MemoryStream_get_Position_m3733941202
cIh:_ListPool_1_Clear_m2587502754_gshared
lbi:__ZL96TouchScreenKeyboard_t731888065_CustomAttributesCacheGenerator_TouchScreenKeyboard_Open_m43950298P21CustomAttributesCache
IQi:_AudioClipPlayable_Equals_m3705880618
nRb:__ZL10KeyHandleriPK23EmscriptenKeyboardEventPv
BCd:_Slot_t3975888750_marshal_pinvoke
uWj:_glLinkProgram__wrapper
p9a:__ZN18ScriptingArguments8AddInt64Ex
Ena:__ZN6prcoreL12RemapGenericI17TexFormatARGB888815TexFormatBGR888EEvPKNS_9InnerInfoE
W9a:__ZN12HandlerChain4LockER13FileEntryData12FileLockMode
iBf:_TextInfo_get_ListSeparator_m1628160079
Emi:__ZL77ExecuteEvents_t3484638744_CustomAttributesCacheGenerator_U3CU3Ef__mgU24cache6P21CustomAttributesCache
O$e:_Selectable_OnCanvasGroupChanged_m472903475
ceg:_EventWaitHandle_Reset_m3348053200
BFe:_Enumerator_get_Current_m2897627569_gshared
S_c:__ZN28UnityConnectScriptingClasses23CallSessionStateChangedEixxbP21ScriptingExceptionPtr
Xif:_ClientContext_get_SslStream_m1583577309
noj:__ZN6il2cpp6icalls8mscorlib6System13Globalization11CultureInfo35construct_internal_locale_from_nameEP17Il2CppCultureInfoP12Il2CppString
Hjb:__ZL22Transfer_ManagedObjectI24GenerateTypeTreeTransferLb1EEvRK29SerializationCommandArgumentsR31RuntimeSerializationCommandInfo
bIg:__Z100RuntimeInvoker_Boolean_t97287965_RuntimeObject_Int32_t2950945753_RuntimeObject_UInt16U26_t2814738322PFvvEPK10MethodInfoPvPS4_
r4g:__Z56RuntimeInvoker_ILTokenInfo_t2325775114_Int32_t2950945753PFvvEPK10MethodInfoPvPS4_
Eld:_HMAC_get_BlockSizeValue_m455678067
BBb:__ZN15RenderNodeQueueC2E10MemLabelId
P8d:_ResourceEnumerator_FillCache_m1661715061
kwh:_ReadOnlyCollection_1_System_Collections_IList_IndexOf_m3664838805_gshared
n1h:__ZL72SecuritySafeCriticalAttribute_t3505979402_CustomAttributesCacheGeneratorP21CustomAttributesCache
ck:_emscripten_set_main_loop_timing
mog:_Bounds_get_min_m3755135869
MGd:_Convert_ToUInt16_m3523269149
Zng:_Bounds_get_center_m1418449258
zja:__ZN14DataBufferGLES12RecordRenderEv
x4c:_ExecuteEvents_get_endDragHandler_m2879610446
zNb:__ZN14ImageReference10FlipImageYEv
S7i:_UsedByNativeCodeAttribute__ctor_m2647015777
bS:__ZN21ScalableBufferManager20GetHeightScaleFactorEv
rdc:__Z14GetDefaultSkini
qt:__ZN4FMOD3DSP9setBypassEb
fRb:__Z19NormalizeWheelInputf
zed:_Graphic_DoMeshGeneration_m3548487693
cQb:__Z29StdTemplateConversionFunctionIsaEbPvR14SafeBinaryRead
ds:__ZNK4PPtrI13MonoBehaviourEcvPS0_Ev
SCi:_Repetition__ctor_m1672362629
qmc:__Z29Transfer_Blittable_ArrayFieldI8JSONReadhEvRT_R9ArrayInfoRK23StaticTransferFieldInfo
iIf:_SecurityFrame_ToString_m339310712_AdjustorThunk
s3d:_TypeBuilder_create_runtime_class_m2581270900
_oe:_InternalEnumerator_1_get_Current_m3008260692_gshared
$Gj:__ZN6il2cpp2os20ThreadLocalValueImpl8SetValueEPv
WHa:__ZN22RenderingCommandBuffer20CleanupCommandBufferEv
vuf:_Decimal_op_Implicit_m2299919277
fhc:__Z18Transfer_BlittableI9JSONWriteLb1EtEvRK29SerializationCommandArgumentsR31RuntimeSerializationCommandInfo
XSd:_UnexceptionalStreamReader_ReadToEnd_m920589220
Xof:_DateTime_System_IConvertible_ToType_m1242864300
tKf:_String_IndexOf_m1298810678
wk:___syscall85
Uii:__ZL85GUI_t1624858472_CustomAttributesCacheGenerator_GUI_set_nextScrollStepTime_m1026410471P21CustomAttributesCache
iPh:_Mesh_GetAllocArrayFromChannel_TisVector3_t3722313464_m2332439905_gshared
GBb:__ZNSt3__26__sortIRPFbP10GUIElementS2_EPS2_EEvT0_S7_T_
RYb:__ZN16GraphicsSettings12CleanupClassEv
o_d:_ConstructorBuilder_GetILGenerator_m1750792206
$9f:_EncoderFallback_get_ReplacementFallback_m818398284
Luj:__ZN6il2cpp2os6Thread19DetachCurrentThreadEv
T3c:_EventTrigger_OnBeginDrag_m4203438710
lZi:__ZN6il2cpp2vmL21SetupInterfacesLockedEP11Il2CppClassRKNS_2os12FastAutoLockE
hcb:__ZN11MonoManager23VirtualRedirectTransferER24GenerateTypeTreeTransfer
vMh:_Dictionary_2_Do_CopyTo_TisRuntimeObject_TisRuntimeObject_m2344529027_gshared
nwj:__ZN6il2cpp2gc16GarbageCollector22MakeDescriptorForArrayEv
q5g:__Z37RuntimeInvoker_UILineInfo_t4195266810PFvvEPK10MethodInfoPvPS4_
tqg:_CullingGroup_Dispose_m782801025
MYf:_Dictionary_2_System_Collections_IDictionary_GetEnumerator_m529247385_gshared
sG:__ZN11UnityEngine15CloudWebService14DataDispatcher15SetupWebRequestEv
pYc:__ZN11UnityEngine15PlatformWrapper13GetShaderCapsEv
gJb:__ZNSt3__211__sift_downIR26RenderDeferredObjectSorterP16RenderObjectDataEEvT0_S5_T_NS_15iterator_traitsIS5_E15difference_typeES5_
$0d:_GenericTypeParameterBuilder_IsDefined_m98179866
Kki:__ZL82Physics2D_t1528932956_CustomAttributesCacheGenerator_Physics2D_Raycast_m1377762210P21CustomAttributesCache
KNe:_KeyPairPersistence_get_MachinePath_m3812267291
UDd:_Stack_Peek_m2216191248
Kof:_DateTime_System_IConvertible_ToDecimal_m1044850612_AdjustorThunk
zZb:__ZN21FixedBehaviourManager6UpdateEv
Y1b:__ZN9Transform9SetParentEPS_NS_15SetParentOptionE
NU:__ZN19ShaderPropertySheet8SetFloatEN9ShaderLab16FastPropertyNameEfNS_8SetFlagsE
i5a:__ZN19RuntimeSceneManager24BeginIntegrateMainThreadEP10UnityScene
zlf:_TlsServerCertificate_ProcessAsSsl3_m1306583193
Jvj:__ZNSt3__2plIcNS_11char_traitsIcEENS_9allocatorIcEEEENS_12basic_stringIT_T0_T1_EERKS9_S6_
YRd:_StringReader_CheckObjectDisposedException_m3796163530
K7:__ZN9ShaderLab20SerializedSubProgramaSERKS0_
tWf:_Dictionary_2_pick_value_m4268517353_gshared
Mvd:_Byte_System_IConvertible_ToSingle_m324484566_AdjustorThunk
guf:_Decimal_op_Explicit_m2848387298
o4f:_KeyValuePair_2_ToString_m1238786018_gshared
mZi:__ZN6il2cpp2vmL24SetupTypeHierarchyLockedEP11Il2CppClassRKNS_2os12FastAutoLockE
oRb:__ZL11TextHandleriPK23EmscriptenKeyboardEventPv
Zhe:_SoapFieldAttribute_get_XmlElementName_m2203304026
uPc:_destroy_face
HSj:_glBlendEquationSeparate__wrapper
kBc:__ZN5physx19PxAllocatorCallbackD2Ev
XDj:__ZN6il2cpp6icalls8mscorlib6System8Security12Cryptography24RNGCryptoServiceProvider13RngInitializeEP11Il2CppArray
L8h:__ZL68UsedByNativeCodeAttribute_t1703770351_CustomAttributesCacheGeneratorP21CustomAttributesCache
gA:__ZN20SoundChannelInstance7setMuteEb
iIg:__Z81RuntimeInvoker_Void_t1185182177_RuntimeObject_Int32_t2950945753_Int32_t2950945753PFvvEPK10MethodInfoPvPS4_
oMa:__ZN4PPtrI5LightE8TransferI19StreamedBinaryWriteILb0EEEEvRT_
l9g:_List_1__cctor_m972674764_gshared
HWd:_NumberFormatter_NumberToString_m3906556024
rob:__Z19TransferField_ArrayI18StreamedBinaryReadILb1EE27Converter_SimpleNativeClassI17AnimationCurveTplIfEEEvRK23StaticTransferFieldInfoR31RuntimeSerializationCommandInfoRT0_
Vzc:__ZN7b2World18SetContactListenerEP17b2ContactListener
Hsc:__ZN14PhysicsQuery2D11LinecastAllERK8Vector2fS2_RKN10Collider2D13ContactFilterEPKS3_bP13dynamic_arrayI12RaycastHit2DLj4EE
cka:__ZN18GfxFramebufferGLES22MakeCurrentFramebufferENS_7BuiltinE
izj:__ZN6il2cpp2vm12MarshalAlloc4FreeEPv
lX:__ZN12CachedReader4ReadEPvj
l8d:_TypeFilter_EndInvoke_m998903841
dDc:_cf2_blues_init
UYf:_KeyValuePair_2__ctor_m1794021352_gshared
fKe:_SimpleCollator_MatchesForwardCore_m850743967
WFb:__Z24CalculateLightShadowFadeRK6CamerafffR8Vector4f
C_:__ZN19RuntimeSceneManagerD2Ev
Zfi:__ZL77DeallocateOnJobCompletionAttribute_t3131681843_CustomAttributesCacheGeneratorP21CustomAttributesCache
raa:__ZN13dynamic_arrayIPN9ShaderLab4PassELj4EE9push_backERKS2_
Ayf:_CCGregorianCalendar_GetMonth_m1547203696
IH:__ZN11UnityEngine15CloudWebService25WebRequestDownloadHandler17OnCompleteContentEv
Vma:__ZN6prcore17GetIntegerBlitterE13TextureFormatS0_N14ImageReference8BlitModeE
$Bj:_GC_print_block_descr
Muc:__ZN13BoxCollider2DD0Ev
abj:__ZN6il2cpp2gc19AppendOnlyGCHashMapINSt3__24pairIPK11Il2CppImageP11Il2CppClassEEP22Il2CppReflectionModule17ReflectionMapHashIS9_ENS2_8equal_toIS9_EEE11TryGetValueERKS9_PSB_
BVh:__ZL51Directory_t828876208_CustomAttributesCacheGeneratorP21CustomAttributesCache
_sd:_SimpleEnumerator_Reset_m2182001888
j1g:__Z86RuntimeInvoker_Int32_t2950945753_Vector2_t2156229523_Vector2_t2156229523_RuntimeObjectPFvvEPK10MethodInfoPvPS4_
$Ti:_playerBehavior_turnAround_m3370168518
aZ:__ZNSt3__26__treeI19RepeatingLogMessageNS_4lessIS1_EE13stl_allocatorIS1_L18MemLabelIdentifier73ELi16EEE12__find_equalIS1_EERPNS_16__tree_node_baseIPvEESD_RKT_
RD:__ZN11AudioSource18IsPlayingScriptingEv
CNe:_KeyBuilder_IV_m2230195376
poc:__ZNK12b2WheelJoint10GetAnchorAEv
xRj:_glShaderSource__wrapper
DCa:__ZN25MultiBlocksMemoryFileData17AdjustBlocksCountEj
Flj:__ZNSt3__214__split_bufferIN6il2cpp2vm22EmbeddedResourceRecordERNS_9allocatorIS3_EEED2Ev
bXi:_Physics2D_Internal_Linecast_m4246297633
PNc:__ZN13TextRendering4Font8TransferI24GenerateTypeTreeTransferEEvRT_
$fa:__ZN9GfxDevice15EndProfileEventEPN9profiling6MarkerE
_4b:__Z27CullingGroup_CUSTOM_DisposeP12Il2CppObject
nlj:__ZN6il2cpp6icalls8mscorlib6SystemL23CheckWideningConversionEjjj
q$c:__ZNSt3__26vectorIP19BaseConnectSettings13stl_allocatorIS2_L18MemLabelIdentifier6ELi16EEE21__push_back_slow_pathIKS2_EEvRT_
fnc:__ZN10Effector2D23VirtualRedirectTransferER18StreamedBinaryReadILb0EE
lBb:__ZN13ComputeShader15SetTextureParamEjRKN9ShaderLab16FastPropertyNameE9TextureID16TextureDimension
Oye:_Comparer_1__ctor_m319670016_gshared
Em:_glStencilMask
jvj:__ZN6il2cpp2os10ThreadImpl16GetCurrentThreadEv
m6d:_MonoMethod_GetBaseDefinition_m2844667474
hRb:__ZN15GUIEventManager10QueueEventERK10InputEvent
Sjh:_Collection_1_Clear_m1300437781_gshared
nqh:_Collection_1_Contains_m1707523067_gshared
y9d:_DecimalConstantAttribute__ctor_m3583301917
Bmh:_Collection_1_System_Collections_ICollection_get_IsSynchronized_m1640823718_gshared
BBj:_GC_push_conditional_with_exclusions
zAe:_Enumerator_System_Collections_IDictionaryEnumerator_get_Entry_m2772123357_AdjustorThunk
Lge:_MethodCallDictionary__ctor_m2167303393
x3h:__ZL80Convert_t2465617642_CustomAttributesCacheGenerator_Convert_ToDecimal_m2858622624P21CustomAttributesCache
fBj:_GC_make_disappearing_links_disappear
YJj:_strrchr
Vpg:_Component_GetComponentInParent_m779177818
Hce:__ZN21InterfaceFuncInvoker1IP8String_tS1_E6InvokeEjP11Il2CppClassP12Il2CppObjectS1_
SWf:_Dictionary_2_System_Collections_ICollection_get_SyncRoot_m2069913662_gshared
I7c:_UIBehaviour_IsDestroyed_m3033055982
uUg:__Z109RuntimeInvoker_Void_t1185182177_RuntimeObject_RuntimeObject_SByte_t1669577662_Int32_t2950945753_RuntimeObjectPFvvEPK10MethodInfoPvPS4_
GEg:_Enumerator_Reset_m39541243
JRe:_InputField_get_readOnly_m3111985574
BMa:__ZN14RenderSettings27UpdateIndirectSpecularColorEv
iug:_Logger_get_logHandler_m1335645353
_2a:__ZN14PlayerSettings8TransferI18StreamedBinaryReadILb0EEEEvRT_
e6i:__ZN6il2cpp6icalls8mscorlib6System8MonoType16GetMethodsByNameEP20Il2CppReflectionTypeP12Il2CppStringibS5_
D_h:__ZL73ObjRef_t2141158884_CustomAttributesCacheGenerator_U3CU3Ef__switchU24map26P21CustomAttributesCache
Cni:__ZL102PointerEventData_t3807901092_CustomAttributesCacheGenerator_PointerEventData_set_pointerId_m1888344330P21CustomAttributesCache
cii:__ZL88AudioClip_t3680889665_CustomAttributesCacheGenerator_AudioClip_get_ambisonic_m3815052287P21CustomAttributesCache
dVe:_U3CDelayedSetDirtyU3Ec__Iterator0__ctor_m3936335621
RV:__ZN4PPtrI10GameObjectE8TransferI14SafeBinaryReadEEvRT_
ngi:__ZL106PlayableAsset_t3219022681_CustomAttributesCacheGenerator_PlayableAsset_Internal_CreatePlayable_m2550417712P21CustomAttributesCache
veg:_Monitor_Monitor_wait_m3706677354
pnd:_RijndaelTransform__cctor_m2439033240
Dxb:__ZNSt3__27__sort3IRNS_4lessIN22BuiltinResourceManager8ResourceEEEPS3_EEjT0_S7_S7_T_
HSh:__ZL175U3CGetEnumeratorU3Ec__Iterator0_t1202911786_CustomAttributesCacheGenerator_U3CGetEnumeratorU3Ec__Iterator0_System_Collections_Generic_IEnumeratorU3CTU3E_get_Current_m322251035P21CustomAttributesCache
kMc:_ps_hints_t2mask
bAh:_Comparison_1__ctor_m3138326461_gshared
sOf:_Array_InternalArray__ICollection_Remove_TisMonoResource_t4103430009_m238733686_gshared
kMd:_IntPtr_ToString_m1831665121
J0e:_Slider_Set_m1476104429
s8d:__ZN28GenericInterfaceFuncInvoker1IP10Assembly_tP28ResolveEventArgs_t1779456501E6InvokeEPK10MethodInfoP12Il2CppObjectS3_
lgd:_Image_set_fillClockwise_m2210525152
C_a:__ZN10BlendShape8TransferI19StreamedBinaryWriteILb0EEEEvRT_
Wt:__Z32TransferEnumWithNameForceIntSizeI14SafeBinaryReadN10SampleClip8LoadTypeEEvRT_RT0_PKc17TransferMetaFlags
bMd:__Z21il2cpp_codegen_sizeofP11Il2CppClass
Oqa:__Z19GetTimeSinceStartupv
Lgd:_Image_AddQuad_m2161647989
O2c:_BaseInputModule_DeactivateModule_m856719157
$uj:__ZN6il2cpp2os10ThreadImpl11SetPriorityENS0_14ThreadPriorityE
r7f:_Enumerator_System_Collections_IEnumerator_Reset_m2953002685_gshared
$Jg:__Z50RuntimeInvoker_Int64_t3736567304_Int32_t2950945753PFvvEPK10MethodInfoPvPS4_
GLc:_TT_Load_Composite_Glyph
cga:__ZN9GfxDevice16DeleteTimerQueryEP13GfxTimerQuery
ygh:_List_1_Insert_m1695211546_gshared
bef:__ZN21InterfaceFuncInvoker2IbP22BigInteger_t2902905090iE6InvokeEjP11Il2CppClassP12Il2CppObjectS1_i
UVg:__Z49RuntimeInvoker_Void_t1185182177_Color_t2555686324PFvvEPK10MethodInfoPvPS4_
UOa:__ZN9ShaderLab11shaderprops9GetTexEnvEPK19ShaderPropertySheetS3_NS_16FastPropertyNameE16TextureDimensionb
Wah:_List_1_Sort_m3232912161_gshared
oEb:__ZN29RenderNodeQueuePrepareContextC2Ev
Vhj:_il2cpp_gc_disable
W8:__ZN9ShaderLab20SerializedSubProgram16TextureParameter8TransferI24GenerateTypeTreeTransferEEvRT_
kld:_DSASignatureDeformatter_SetKey_m2999549245
vEj:__ZN6il2cpp2os11MutexHandle4WaitEb
nda:__ZN9GfxDevice19SaveStereoConstantsEv
uEj:__ZN6il2cpp2os11MutexHandle4WaitEj
S2b:__ZL34GetComponentsImplementationRecurseILb1ELi1ELi1EEbR10GameObjectbRK17CompareParametersRK39GetComponentsImplementation_ReturnValue
jLg:__Z114RuntimeInvoker_Boolean_t97287965_RuntimeObject_RuntimeObject_Int32_t2950945753_Int32_t2950945753_Int32_t2950945753PFvvEPK10MethodInfoPvPS4_
GZd:_AssemblyBuilder_GetTypes_m3415680380
Ooa:__ZN6prcoreL17RemapGenericFloatI15TexFormatRGHalf18TexFormatARGBFloatEEvPKNS_9InnerInfoE
ivf:_StackFrame_GetMethod_m1395840764
zNa:__ZNK13RenderTexture13GetDataHeightEv
Jvb:__Z18SimulateMouseInputi
CAb:__ZN13RenderManager23AddRemoveCamerasDelayedEv
kic:__ZN9JSONWrite8TransferI13dynamic_arrayIdLj8EEEEvRT_PKc17TransferMetaFlags
sza:__ZN23PreloadManagerOperation11GetPriorityEv
vUe:_LayoutElement_OnEnable_m1760066426
Mfc:__ZN5Unity9rapidjson6WriterI16TempBufferWriterNS0_4UTF8IcEES4_13JSONAllocatorE11WriteUint64Ey
Ltd:_BitConverter__cctor_m3841343255
vtf:_Decimal_Compare_m3062820418
ycf:_IntervalCollection_GetMetaCollection_m4029522214
O3c:_EventTrigger_OnDeselect_m1919608102
OSi:_TextGenerator_get_characterCount_m864136654
zng:_AsyncOperation_t1445031843_marshal_pinvoke_cleanup
igg:_TimeSpan__ctor_m2047388489_AdjustorThunk
kMb:__ZN13RenderTexture8SetWidthEi
jVb:__ZNK28RectTransformPropertyBinding12SetPPtrValueERKN11UnityEngine9Animation10BoundCurveEi
Txb:__ZN18FrameTimingManager18GetVSyncsPerSecondEv
xpb:__Z18Transfer_BlittableI18StreamedBinaryReadILb0EELb0EfEvRK29SerializationCommandArgumentsR31RuntimeSerializationCommandInfo
O_a:__ZN10MeshFilterD0Ev
ILc:_UNITY_FT_GlyphLoader_CheckSubGlyphs
toe:_InternalEnumerator_1__ctor_m1341209356_AdjustorThunk
zGb:__Z25SetupObjectBakedOcclusionbRK15SharedLightDataRK26SharedLightmapSettingsDataRK15LightmapIndicesR17ShaderPassContext
Ykh:_Collection_1_System_Collections_ICollection_CopyTo_m1516601228_gshared
$lh:_Collection_1_CopyTo_m4278237485_gshared
doh:_Collection_1_Add_m3860636938_gshared
MLi:__ZL23UnresolvedVirtualCall_5P12Il2CppObjectsPK10MethodInfo
$Wi:_Physics2D_Linecast_m3401140243
u8f:_List_1_Insert_m4050947056_gshared
VU:__ZN9ShaderLab16FastPropertyName4InitEPKc
Doc:__ZN11b2GearJointD0Ev
EUg:__Z48RuntimeInvoker_OperatingSystemFamily_t1868066375PFvvEPK10MethodInfoPvPS4_
t2h:__ZL61Thread_t2300836069_CustomAttributesCacheGenerator_local_slotsP21CustomAttributesCache
sUb:__Z13RegisterClassIN2UI13RectTransformEEvv
urh:_Collection_1_System_Collections_IEnumerable_GetEnumerator_m3596816767_gshared
cPi:__ZL25UnresolvedVirtualCall_185P12Il2CppObject40CustomAttributeTypedArgument_t2723150157S1_PK10MethodInfo
jYb:__ZL31MeshRendererTransformChangedJobP13BoundsJobDatajPK23TransformAccessReadOnlyPKyj
Fkc:__ZN8JSONRead21TransferSTLStyleArrayI31ArrayOfManagedObjectsTransfererEEvRT_17TransferMetaFlags
vwd:_Char_System_IConvertible_ToByte_m2347554595_AdjustorThunk
$ei:__ZL59TooltipAttribute_t3957072629_CustomAttributesCacheGeneratorP21CustomAttributesCache
VWa:__ZN10VertexData8TransferI17RemapPPtrTransferEEvRT_
aNa:__ZN13RenderTexture9SetMipMapEb
h$i:__ZN15dense_hashtableINSt3__24pairIK10KeyWrapperIPK11Il2CppClassEPKcEES6_N6il2cpp5utils11PointerHashIS3_EEN14dense_hash_mapIS6_S9_SE_NS6_14EqualsComparerINS0_8equal_toIS5_EEEENS0_9allocatorISA_EEE9SelectKeyESJ_SL_E13set_empty_keyERKSA_
uLf:_String_CreateString_m860434552
o2:__Z18GetDirectorManagerv
xFe:_Enumerator_System_Collections_IEnumerator_Reset_m278261807_AdjustorThunk
Fkh:_Collection_1_GetEnumerator_m1824095167_gshared
kYh:__ZL107CriticalFinalizerObject_t701527852_CustomAttributesCacheGenerator_CriticalFinalizerObject__ctor_m3245424448P21CustomAttributesCache
EKd:_Int32_Equals_m2976157357_AdjustorThunk
B9b:__Z38Transform_CUSTOM_INTERNAL_get_rotationP12Il2CppObjectP11Quaternionf
odi:__ZL99SceneManager_t2787271929_CustomAttributesCacheGenerator_SceneManager_LoadScene_m2298600132____mode1P21CustomAttributesCache
ZWg:__Z73RuntimeInvoker_Single_t1397266774_Vector2_t2156229523_Vector2_t2156229523PFvvEPK10MethodInfoPvPS4_
Xhe:_SoapAttribute_get_XmlNamespace_m859394681
Raj:__ZNK15dense_hashtableINSt3__24pairIK10KeyWrapperINS1_IPK10MethodInfoP11Il2CppClassEEEjEES9_17ReflectionMapHashIS8_EN14dense_hash_mapIS9_jSD_NS9_14EqualsComparerINS0_8equal_toIS8_EEEENS0_9allocatorISB_EEE9SelectKeyESI_SK_E5beginEv
iAi:_X509ExtensionCollection_System_Collections_IEnumerable_GetEnumerator_m1475785462
eia:__ZN7ApiGLES19UploadBufferSubDataEjN2gl12BufferTargetEllPKv
GWi:_SkeletonBone_t4134054672_marshal_pinvoke_cleanup
A4:__ZNSt3__216__rotate_forwardINS_11__wrap_iterIPN4core12basic_stringIcNS2_20StringStorageDefaultIcEEEEEEEET_S9_S9_S9_
iFg:_Vector2_GetHashCode_m3916089713
l0:__ZdaPv
_Bg:_SendMouseEvents_HitTestLegacyGUI_m579942228
OVd:_MulticastDelegate_Equals_m2502840627
UEf:_SymmetricAlgorithm_set_KeySize_m3805756466
Svd:_Byte_System_IConvertible_ToUInt32_m1049546902_AdjustorThunk
uTg:__Z53RuntimeInvoker_Double_t594665363_Interval_t1802865632PFvvEPK10MethodInfoPvPS4_
Oxb:__Z21InitializeBatchedJobsv
VUi:_CanvasGroup_get_blocksRaycasts_m1805542303
CDf:_SHA1Internal_ProcessBlock_m1991889327
Beb:__Z19TransferField_ArrayI14SafeBinaryRead27Converter_SimpleNativeClassI8GUIStyleEEvRK23StaticTransferFieldInfoR31RuntimeSerializationCommandInfoRT0_
_ei:__ZL60PropertyAttribute_t3677895545_CustomAttributesCacheGeneratorP21CustomAttributesCache
Aoj:__ZN15dense_hashtableINSt3__24pairIK10KeyWrapperIP14Il2CppIUnknownEjEES5_N6il2cpp5utils11PointerHashIS3_EEN14dense_hash_mapIS5_jSB_NS5_14EqualsComparerINS0_8equal_toIS4_EEEENS0_9allocatorIS7_EEE9SelectKeyESG_SI_ED2Ev
aLh:_Array_Sort_TisRuntimeObject_TisRuntimeObject_m1685639929_gshared
eEj:__ZN6il2cpp5utils10MemoryPoolC2Ev
YLa:__ZN14RenderSettings5ResetEv
WSb:__ZN6Sprite9BindAtlasERK4PPtrI11SpriteAtlasE
Uec:__ZN5Unity9rapidjson12GenericValueINS0_4UTF8IcEE13JSONAllocatorE10FindMemberIS4_EENS0_21GenericMemberIteratorILb0ES3_S4_EERKNS1_IS3_T_EE
Lse:_InternalEnumerator_1_System_Collections_IEnumerator_get_Current_m3892960115_AdjustorThunk
smj:__ZNSt3__212basic_stringIDsNS_11char_traitsIDsEENS_9allocatorIDsEEE6appendEPKDsj
MJi:_SymmetricTransform_Finalize_m4129642865
syd:_ArrayList_Clone_m2682741233
Qld:_HMAC_HashCore_m3684104066
sAh:__ZN28GenericInterfaceFuncInvoker2Ii20UIVertex_t4057497605S0_E6InvokeEPK10MethodInfoP12Il2CppObjectS0_S0_
sfc:__ZN5Unity9rapidjson13GenericReaderINS0_4UTF8IcEES3_13JSONAllocatorE11ParseNumberILj1ENS0_25GenericInsituStringStreamIS3_EENS0_15GenericDocumentIS3_S4_S4_EEEEvRT0_RT1_
M$a:__ZN14SpriteRenderer14OnChangeSpriteEv
Fnh:_Collection_1_RemoveItem_m2911050674_gshared
$Hg:__Z79RuntimeInvoker_UInt16_t2177724958_RuntimeObject_Int32_t2950945753_RuntimeObjectPFvvEPK10MethodInfoPvPS4_
Vuj:__ZN6il2cpp2os10ThreadImplD2Ev
ppc:__ZN12b2MouseJoint23InitVelocityConstraintsERK12b2SolverData
ngc:__ZN8Gradient8TransferI9JSONWriteEEvRT_
T5a:__ZN21RendererUpdateManager18OncePerFrameUpdateER13RendererScene
xzi:_X509StoreManager_get_LocalMachine_m269504582
vki:__ZL81TextEditor_t2759855366_CustomAttributesCacheGenerator_TextEditor__ctor_m242049450P21CustomAttributesCache
pEd:_Convert_ToBoolean_m2833621053
_ya:__ZNK12TLSAllocatorI14StackAllocatorE22GetAllocatedMemorySizeEv
T6h:__ZL62WebHeaderCollection_t1942268960_CustomAttributesCacheGeneratorP21CustomAttributesCache
eT:__ZN17RemapPPtrTransfer12PushMetaFlagE17TransferMetaFlags
Q0f:_EqualityComparer_1_System_Collections_IEqualityComparer_GetHashCode_m2138064395_gshared
hB:__ZNK7WeakPtrI20SoundChannelInstanceE10SharedData9GetRawPtrEv
H9a:__ZN12HandlerChain4NameEv
Yad:_FloatTween_t1274330004_marshal_pinvoke
bId:_Int16_System_IConvertible_ToType_m3672347013_AdjustorThunk
GKf:_String_LastIndexOf_m578673845
ogb:__Z29Transfer_Blittable_ArrayFieldI14SafeBinaryReadN4math12int3_storageEEvRT_R9ArrayInfoRK23StaticTransferFieldInfo
UHf:_SecurityException_ToString_m3228070608
NJd:_Int16_ToString_m2013897809
S1g:__Z60RuntimeInvoker_Int32_t2950945753_ResourceCacheItem_t51292791PFvvEPK10MethodInfoPvPS4_
WHf:_String_Substring_m2848979100
TVc:__Z44Register_UnityEngine_CanvasRenderer_get_cullv
nYi:__ZN15dense_hashtableINSt3__24pairIK10KeyWrapperIPK22Il2CppGenericParameterEP11Il2CppClassEES6_N6il2cpp5utils11PointerHashIS4_EEN14dense_hash_mapIS6_S9_SE_NS6_14EqualsComparerINS0_8equal_toIS5_EEEENS0_9allocatorISA_EEE9SelectKeyESJ_SL_ED2Ev
$Ch:__ZN23GenericVirtFuncInvoker1Ib19Vector4_t3319028937E6InvokeEPK10MethodInfoP12Il2CppObjectS0_
RHf:_SecurityException_get_PermissionType_m2237538728
EQb:__Z29StdTemplateConversionFunctionIbbEbPvR14SafeBinaryRead
wXc:__ZN11UnityEngine7Connect17XRDeviceInfoEvent12XRDeviceInfoD2Ev
Dcb:__Z44InitializeTransferFunctionScriptingTraitsForI17RemapPPtrTransferEvR31TransferFunctionScriptingTraits
gMi:__ZL24UnresolvedVirtualCall_27P12Il2CppObjectS0_aPK10MethodInfo
$Ub:__ZNSt3__26vectorI16MessageForwarder13stl_allocatorIS1_L18MemLabelIdentifier7ELi8EEE6resizeEj
I8e:_X509Chain_SelectBestFromCollection_m1068759221
VJi:_SymmetricTransform_TransformBlock_m851059707
VQh:__ZL68IntPtr_t_CustomAttributesCacheGenerator_IntPtr_ToPointer_m4157623054P21CustomAttributesCache
Erh:_Collection_1_System_Collections_IList_get_IsReadOnly_m2978442176_gshared
Whh:_Enumerator_System_Collections_IEnumerator_Reset_m2261065994_AdjustorThunk
z_e:_ScrollRect_get_verticalNormalizedPosition_m3693218937
g5a:__ZN18LoadSceneOperation21MustCompleteNextFrameEv
L0e:_Slider_UpdateDrag_m1102107039
P6d:_MonoMethodInfo_get_method_info_m88651774
hA:__ZNK12AudioManager16GetAudioListenerEv
_Jd:_Int32_System_IConvertible_ToDateTime_m1824716955
YWf:_Dictionary_2_System_Collections_Generic_ICollectionU3CSystem_Collections_Generic_KeyValuePairU3CTKeyU2CTValueU3EU3E_CopyTo_m331407443_gshared
Eid:_RuntimeTypeHandle__ctor_m3315980708_AdjustorThunk
S0h:__ZL69IIdentityPermissionFactory_t3268650966_CustomAttributesCacheGeneratorP21CustomAttributesCache
AUi:_Canvas_set_overrideSorting_m4088794420
RLb:__ZNSt3__26vectorI11CameraStackNS_9allocatorIS1_EEE8__appendEj
D_f:_DefaultComparer_Equals_m2585095694_gshared
Fmc:__ZNK11Rigidbody2D20GetAttachedCollidersER13dynamic_arrayIP10Collider2DLj4EE
hug:_Logger_set_filterLogType_m3622751173
jhd:__ZN25GenericVirtActionInvoker1I28StreamingContext_t3711869237E6InvokeEPK10MethodInfoP12Il2CppObjectS0_
qGh:_UnityEvent_1_GetDelegate_m25714567_gshared
Lfg:_Scheduler_ShrinkIfNeeded_m820085397
Pkh:_Collection_1_set_Item_m3534473787_gshared
amb:__Z29Transfer_Blittable_ArrayFieldI19StreamedBinaryWriteILb0EEjEvRT_R9ArrayInfoRK23StaticTransferFieldInfo
aR:__Z13GetFileSystemv
o$:__ZNK5Unity4Type21FindAllDerivedClassesER13dynamic_arrayIPKS0_Lj4EENS0_17TypeFilterOptionsE
h0:__ZN13RuntimeStaticI15GUIEventManagerLb0EE16StaticInitializeEPv
G0a:__ZN14SafeBinaryRead8TransferIfEEvRT_PKc17TransferMetaFlags
Hqb:__ZL12InvokeMethodI18StreamedBinaryReadILb0EEEvRK29SerializationCommandArgumentsR31RuntimeSerializationCommandInfo
Tsc:__ZNSt3__27__sort5IR24RayHitsByDepthComparitorP12RaycastHit2DEEjT0_S5_S5_S5_S5_T_
tmg:_Version_CompareTo_m3146217210
dqc:__ZN24RigidbodyMovementState2D21ResetAngularMoveStateEv
Q$a:__ZThn32_N14SpriteRenderer15AddAsRenderNodeER15RenderNodeQueueRK20DeprecatedSourceData
oUf:_Array_InternalArray__ICollection_CopyTo_TisKeyValuePair_2_t71524366_m1056941380_gshared
Chg:_Type_get_IsClass_m589177581
Ohg:_Type_get_IsSystemType_m624798880
Xbb:__ZN19ShaderPropertySheet9SetMatrixEN9ShaderLab16FastPropertyNameERK10Matrix4x4fNS_8SetFlagsE
_Sa:__Z29GetTextureSizeAllowedMultiple13TextureFormat
ntf:_Decimal_Subtract_m835601464
jzb:__ZZ23InitPlayerLoopCallbacksvEN52InitializationAsyncUploadTimeSlicedUpdateRegistrator7ForwardEv
ESg:__Z73RuntimeInvoker_Boolean_t97287965_RuntimeObject_IPv6AddressU26_t3285609463PFvvEPK10MethodInfoPvPS4_
nyg:_Quaternion_Internal_ToEulerRad_m1503250752
W9e:_X509ExtensionCollection_get_IsSynchronized_m2607599544
SZb:__ZN21IntermediateRenderers3AddEP20IntermediateRenderer
ehj:_il2cpp_array_element_size
b8:__ZNSt3__26__treeINS_12__value_typeIN4core12basic_stringIcNS2_20StringStorageDefaultIcEEEEiEENS_19__map_value_compareIS6_S7_NS_4lessIS6_EELb1EEENS_9allocatorIS7_EEE12__find_equalIS6_EERPNS_16__tree_node_baseIPvEENS_21__tree_const_iteratorIS7_PNS_11__tree_nodeIS7_SH_EEiEESK_RKT_
PTd:_MissingMemberException__ctor_m2571045846
CPh:__ZL62ComVisibleAttribute_t1362837655_CustomAttributesCacheGeneratorP21CustomAttributesCache
ibh:_List_1_System_Collections_IEnumerable_GetEnumerator_m1824431956_gshared
HAg:_RectTransform_INTERNAL_set_sizeDelta_m188783163
$f:_glCheckFramebufferStatus
BDj:__ZN6il2cpp2os11EventHandle4WaitEv
ple:_U3CGetEnumeratorU3Ec__Iterator0_System_Collections_Generic_IEnumeratorU3CTU3E_get_Current_m9057020_gshared
Zed:_GraphicRaycaster__ctor_m646559428
Jhf:_CipherSuite_get_CipherAlgorithmType_m137858741
vpc:__ZNK15b2DistanceJoint17GetReactionTorqueEf
nAd:_BitArrayEnumerator_get_Current_m4220391712
ZXd:__Z37il2cpp_codegen_get_executing_assemblyPK10MethodInfo
iBg:_Transform_get_parent_m835071599
Jjh:_Collection_1_System_Collections_IList_Remove_m3686118478_gshared
f9a:__ZN9Transform23VirtualRedirectTransferER17RemapPPtrTransfer
O4e:_IPAddress_get_ScopeId_m4237202723
Cqe:_InternalEnumerator_1_MoveNext_m3520556285_AdjustorThunk
WCi:_ExpressionCollection_get_Item_m3510736379
IOh:_Array_InternalArray__get_Item_TisVector3_t3722313464_m2720091419_gshared
H6c:_StandaloneInputModule_get_inputActionsPerSecond_m3946624274
zdg:_UTF8Encoding_InternalGetCharCount_m82458470
yFg:_Vector2__cctor_m2108982652
fXg:__Z72RuntimeInvoker_Boolean_t97287965_Vector4_t3319028937_Vector4_t3319028937PFvvEPK10MethodInfoPvPS4_
Wve:_InternalEnumerator_1_MoveNext_m2734554195_AdjustorThunk
Doj:__ZN14dense_hash_mapI10KeyWrapperIP14Il2CppIUnknownEjN6il2cpp5utils11PointerHashIS1_EENS3_14EqualsComparerINSt3__28equal_toIS2_EEEENS9_9allocatorINS9_4pairIKS3_jEEEEE15set_deleted_keyERSF_
zkj:__ZN6il2cpp2gc9AllocatorIP12Il2CppThreadE10deallocateEPvj
vdj:__ZN13Il2CppHashMapIPK14Il2CppAssemblyPK22Il2CppMonoAssemblyNameN6il2cpp5utils11PointerHashIS1_EENSt3__28equal_toIS2_EENSA_9allocatorINSA_4pairIK10KeyWrapperIS2_ES5_EEEEEC2EjRKS9_RKSC_
dOi:__ZL25UnresolvedVirtualCall_132P12Il2CppObjectiPK10MethodInfo
Eqd:_DelegatePInvokeWrapper_AppDomainInitializer_t682969308
dvc:__ZN13BoxCollider2D13PrepareShapesER13dynamic_arrayIP7b2ShapeLj4EERK10Matrix4x4f
hQ:__ZN8Remapper6RemoveEi
SFh:_UnityEvent_1__ctor_m3777630589_gshared
dDa:__ZN10MemoryFile4ReadEyPvPy
Aag:_Encoding_GetBytes_m3148649984
eQc:__ZL36CleanupTextRenderingScriptingClassesv
hMb:__ZN15ReflectionProbe17UseRendererResultEP13ProbeRenderer
Tac:__Z34Mesh_CUSTOM_SetArrayForChannelImplP12Il2CppObject30InternalScriptingShaderChannel34InternalScriptingVertexChannelTypeiP11Il2CppArrayi
$O:__Z32scripting_class_get_nested_types17ScriptingClassPtrRNSt3__26vectorIS_13stl_allocatorIS_L18MemLabelIdentifier1ELi16EEEE
bVi:_CanvasRenderer_INTERNAL_CALL_EnableRectClipping_m3318097918
Rkg:_UInt64_System_IConvertible_ToDecimal_m806594027_AdjustorThunk
uAe:_Enumerator_System_Collections_IEnumerator_get_Current_m361750367_AdjustorThunk
xGh:_UnityEvent_1_GetDelegate_m274387680_gshared
Xie:_RealProxy_InternalGetTransparentProxy_m1765012608
n8g:_List_1__ctor_m3395838871_gshared
bsh:_Collection_1_IsFixedSize_m3698021882_gshared
F_f:_DefaultComparer_GetHashCode_m2651362016_gshared
Exi:_PKCS12__ctor_m1854440921
EKh:_Array_Resize_TisCustomAttributeNamedArgument_t287865710_m885566878_gshared
hRg:__Z85RuntimeInvoker_RuntimeObject_RuntimeObject_SByte_t1669577662_ExceptionU26_t3600731591PFvvEPK10MethodInfoPvPS4_
mZf:_DefaultComparer__ctor_m2556554241_gshared
Ns:__ZN11UnityEngine9Animation28GenericAnimationBindingCache25RegisterIAnimationBindingEPKN5Unity4TypeEiP17IAnimationBinding
vSh:__ZL66RuntimeArray_CustomAttributesCacheGenerator_Array_Sort_m2537416106P21CustomAttributesCache
XVc:__Z70RectTransformUtility_CUSTOM_INTERNAL_CALL_RectangleContainsScreenPointP12Il2CppObjectRK13Vector2fIcallS0_
QNd:_DirectoryInfo__ctor_m481305441
uNj:dynCall_viiffiii
X9e:_X509ExtensionCollection_get_SyncRoot_m2667861032
dZi:__ZN6il2cpp2vm5Class15GetElementClassEP11Il2CppClass
vZ:__ZN10MemoryPoolC2E10MemLabelIdbPKciii
toh:_Collection_1_SetItem_m941095285_gshared
JKb:__Z40ProcessCameraIndexListIsNodeVisibleInOutRK22SceneCullingParametersPK9SceneNodePK4AABBR9IndexList
QIi:_GUIScrollGroup_SetHorizontal_m291416666
EJa:__ZN16GraphicsSettings8TransferI17RemapPPtrTransferEEvRT_
DTc:__ZN2UI6Canvas13UpdateBatchesEb
E6e:_X509BasicConstraintsExtension_Decode_m120598446
_Ra:__ZN7Texture19SupportsAsyncUploadI19StreamedBinaryWriteILb0EEEEbRT_
TWg:__Z49RuntimeInvoker_Boolean_t97287965_Rect_t2360479859PFvvEPK10MethodInfoPvPS4_
Adi:__ZL101Transform_t3600365921_CustomAttributesCacheGenerator_Transform_INTERNAL_get_localRotation_m1111330565P21CustomAttributesCache
OQg:__Z51RuntimeInvoker_UInt32_t2560061978_Int16_t2552820387PFvvEPK10MethodInfoPvPS4_
ada:__ZNK13GfxDeviceGLES12GetWireframeEv
bKi:_DelegatePInvokeWrapper_Action_t1264377477
Mji:__ZL64EventType_t3528516131_CustomAttributesCacheGenerator_dragUpdatedP21CustomAttributesCache
RYc:__ZN11UnityEngine7Connect13ConfigHandler12GetListenersERKN4core12basic_stringIcNS2_20StringStorageDefaultIcEEEE
Kea:__ZN9GfxDevice18AllocRenderSurfaceEb
nwd:_Char__cctor_m2787437263
PSb:__ZN10TagManager32GetSortingLayerUniqueIDFromValueEi
W7c:_AspectRatioFitter_get_rectTransform_m2996235303
OO:__ZL27CleanupCoreScriptingClassesv
eAf:_DateTimeFormatInfo_get_IsReadOnly_m1173781646
BAf:_NumberFormatInfo_get_PercentPositivePattern_m1800841633
Wed:_Graphic_UnregisterDirtyMaterialCallback_m2707090617
yze:_Comparer_1_System_Collections_IComparer_Compare_m1313384821_gshared
xVe:_LayoutRebuilder_GetHashCode_m1943075341
t1d:_GenericTypeParameterBuilder_MakeGenericType_m3048165991
q7b:__Z26AnimationCurve_CUSTOM_InitP12Il2CppObjectP11Il2CppArray
aVj:_glUniform1uiv__wrapper
grc:__ZNK14b2PolygonShape5CloneEP16b2BlockAllocator
gdj:__ZN6il2cpp2vm10Reflection7IsEventEP12Il2CppObject
QGj:__ZNSt3__26__treeINS_12__value_typeIPFvvEPK10MethodInfoEENS_19__map_value_compareIS3_S7_NS_4lessIS3_EELb1EEENS_9allocatorIS7_EEE16__insert_node_atEPNS_16__tree_node_baseIPvEERSI_SI_
BN:__ZN17PersistentManager26GetStreamNameSpaceInternalEi
du:__ZN4FMOD6System11createSoundEPKcjP22FMOD_CREATESOUNDEXINFOPPNS_5SoundE
co:FUNCTION_TABLE_iiifiiii
_ve:_InternalEnumerator_1_System_Collections_IEnumerator_Reset_m1451164462_AdjustorThunk
bCc:__ZN13SpeedTreeWind20AdvanceWithoutUpdateEd
Jof:_DateTime_System_IConvertible_ToDecimal_m1044850612
W7g:_List_1_IndexOf_m2206067159_gshared
Sne:_InternalEnumerator_1_System_Collections_IEnumerator_Reset_m1318888374_AdjustorThunk
_Z:__ZN9ShaderLab19CommonPropertyNames13StaticCleanupEPv
BP:__Z31scripting_method_get_returntype18ScriptingMethodPtr
bNi:__ZL24UnresolvedVirtualCall_76P12Il2CppObjectPK10MethodInfo
tUa:__ZN15SerializeTraitsI12LightmapDataE8TransferI24GenerateTypeTreeTransferEEvRS0_RT_
pGf:_SecurityElement_AddAttribute_m311510562
zRj:_glStencilOpSeparate__wrapper
b0b:__ZN4Mesh5SetUvEiPKfjj
uVa:__ZN7Texture13SetAnisoLimitENS_20AnisotropicFilteringE
dC:__ZN11AudioModule16SetListenerPauseEb
Btd:_Attribute_IsDefined_m4069052474
Vh:_emscripten_glCompressedTexSubImage2D
ura:__ZN13GfxDeviceGLES22MemoryBarrierImmediateEyN2gl17MemoryBarrierTypeE
QTe:_U3CCaretBlinkU3Ec__Iterator0_Dispose_m860898205
apa:__ZN6prcoreL26RemapGenericFloatToIntegerI18TexFormatARGBFloat17TexFormatARGB8888EEvPKNS_9InnerInfoE
Jgh:_List_1_set_Capacity_m1977188119_gshared
M2b:__Z46GetShaderModelNumericValueFromRequirementsMask18ShaderRequirements
PFc:_cff_ps_has_glyph_names
Kcd:_DropdownItem_get_rectTransform_m3147806615
XYf:_Dictionary_2_Resize_m3287623642_gshared
dAj:_GC_write
JRh:__ZL69RuntimeArray_CustomAttributesCacheGenerator_Array_SetValue_m394135409P21CustomAttributesCache
Lmd:_RC2_Create_m2516417038
Ged:_Graphic_OnPopulateMesh_m767318148
hmd:_HMACSHA512_set_ProduceLegacyHmacValues_m3961135292
wMi:__ZL24UnresolvedVirtualCall_43P12Il2CppObjectS0_PK10MethodInfo
fIe:_Dictionary_2_Remove_m4193450060_gshared
nMe:_ASN1_get_Tag_m1032367219
Hfe:_ConstructionCallDictionary__ctor_m2541174073
DJh:_Array_InternalArray__set_Item_TisMark_t3471605523_m1299772331_gshared
Gec:__Z44Register_UnityEngine_GUIStyle_SetDefaultFontv
Amb:__Z18Transfer_BlittableI18StreamedBinaryReadILb1EELb1EiEvRK29SerializationCommandArgumentsR31RuntimeSerializationCommandInfo
pLg:__Z173RuntimeInvoker_Int32_t2950945753_RuntimeObject_Int32_t2950945753_Int32_t2950945753_Int32_t2950945753_RuntimeObject_Int32_t2950945753_SByte_t1669577662_ContextU26_t3937453398PFvvEPK10MethodInfoPvPS4_
hah:_List_1__ctor_m2576108087_gshared
Wbj:__ZN15dense_hashtableINSt3__24pairIK10KeyWrapperINS1_IPK12PropertyInfoP11Il2CppClassEEEjEES9_17ReflectionMapHashIS8_EN14dense_hash_mapIS9_jSD_NS9_14EqualsComparerINS0_8equal_toIS8_EEEENS0_9allocatorISB_EEE9SelectKeyESI_SK_E12maybe_shrinkEv
$mb:__Z18Transfer_BlittableI18StreamedBinaryReadILb1EELb1EsEvRK29SerializationCommandArgumentsR31RuntimeSerializationCommandInfo
Rbg:_StringBuilder_Remove_m940064945
Fkd:_DESCryptoServiceProvider_GenerateIV_m683687014
F2f:_GenericComparer_1__ctor_m1900257738_gshared
uwe:_InternalEnumerator_1_get_Current_m3792939945_gshared
$Wc:__ZN22BaseUnityConnectClient17OnEnterStateReadyEv
B1e:_Text_get_fontSize_m1677872538
_kd:_DSACryptoServiceProvider_get_PublicOnly_m3933928860
$ui:_SslStreamBase_get_KeyExchangeStrength_m217695965
THa:__ZN14GrowableBufferD2Ev
E6b:__Z29Input_CUSTOM_GetMouseButtonUpi
e$e:_ScrollRect_CalculateLayoutInputHorizontal_m1852828502
E6i:__ZN6il2cpp6icalls8mscorlib6System8MonoType16InternalGetEventEP20Il2CppReflectionTypeP12Il2CppStringi
BGi:_UriScheme_t722425697_marshal_pinvoke_back
HHc:_UNITY_tt_face_load_maxp
S6b:__Z46Input_CUSTOM_INTERNAL_set_compositionCursorPosRK13Vector2fIcall
lui:__ZL62Shadow_t773074319_CustomAttributesCacheGenerator_m_EffectColorP21CustomAttributesCache
OKe:_BigInteger_ToString_m3475000413
t0a:__ZN19ShaderPropertySheet11ComputeHashEv
Q0i:__ZN30dense_hashtable_const_iteratorI10KeyWrapperIPK19Il2CppGenericMethodES4_N6il2cpp8metadata23Il2CppGenericMethodHashEN14dense_hash_setIS4_S7_NS4_14EqualsComparerINS6_26Il2CppGenericMethodCompareEEENSt3__29allocatorIS4_EEE8IdentityESB_SE_EppEv
Wbd:_Resources_t1597885468_marshal_pinvoke_cleanup
Nrc:__ZN12b2EPCollider24ComputePolygonSeparationEv
Xnb:__ZN4PPtrI6ObjectE8TransferI18StreamedBinaryReadILb1EEEEvRT_
rH:__ZN11UnityEngine15CloudWebService20WebRequestRestClient6IsDoneEv
pEi:_Group__ctor_m2980794822
oDh:_CachedInvokableCall_1_Invoke_m502907382_gshared
Si:_llvm_fabs_f32
WG:__ZN11UnityEngine15CloudWebService16SessionContainer16GetJsonDataBlockEjRKN4core12basic_stringIcNS2_20StringStorageDefaultIcEEEERS6_PjSA_
jMe:_ASN1_Decode_m1695284166
sXi:_Physics2D_get_gravity_m3148949717
yhf:__ZN23GenericVirtFuncInvoker0IP28ValidationResult_t3834298736E6InvokeEPK10MethodInfoP12Il2CppObject
Tdj:__ZN15dense_hashtableINSt3__24pairIK10KeyWrapperIPK14Il2CppAssemblyEPK22Il2CppMonoAssemblyNameEES6_N6il2cpp5utils11PointerHashIS4_EEN14dense_hash_mapIS6_SA_SF_NS6_14EqualsComparerINS0_8equal_toIS5_EEEENS0_9allocatorISB_EEE9SelectKeyESK_SM_E13set_empty_keyERKSB_
Enh:_Collection_1_RemoveAt_m2240641437_gshared
Uwf:_Enum_ToString_m3248653065
RN:__ZN14SafeBinaryReadD2Ev
sPf:_SetPropertyUtility_SetStruct_TisFillMethod_t1167457570_m4164776730_gshared
lUb:__Z13RegisterClassI7TextureEvv
y7f:_Enumerator_MoveNext_m3859993671_gshared
pob:__ZN8Gradient8TransferI18StreamedBinaryReadILb1EEEEvRT_
cef:_SequentialSearchPrimeGeneratorBase_IsPrimeAcceptable_m1127740833
paf:_Capture__ctor_m3103117740
wXa:__ZN4core8hash_mapINS_12basic_stringIcNS_20StringStorageDefaultIcEEEE13dynamic_arrayI4PPtrI6SpriteELj4EENS_4hashIS4_EENSt3__28equal_toIS4_EEEixERKS4_
nKg:__Z113RuntimeInvoker_Void_t1185182177_RuntimeObject_Int64_t3736567304_RuntimeObject_Int64_t3736567304_Int64_t3736567304PFvvEPK10MethodInfoPvPS4_
Ofc:__ZN5Unity9rapidjson8internal6Grisu2EdPcPiS3_
Lyg:_RangeInt_get_end_m4128831787_AdjustorThunk
$nj:__ZN6il2cpp6icalls8mscorlib6System4Type15MakeGenericTypeEP20Il2CppReflectionTypeP11Il2CppArray
sj:_SDL_PauseAudio
gQi:__ZL25UnresolvedVirtualCall_243P12Il2CppObject19Color32_t2600501292PK10MethodInfo
bCd:_Hashtable_Clone_m3078962909
Bhj:_il2cpp_class_from_type
X7i:__ZN6il2cpp2os4File11GetStdErrorEv
_3h:__ZL77Convert_t2465617642_CustomAttributesCacheGenerator_Convert_ToSByte_m516918950P21CustomAttributesCache
ZZ:__ZN9ShaderLab19CommonPropertyNames16StaticInitializeEPv
m7a:__ZN13MemoryManager31DisallowAllocationsOnThisThreadEv
vs:__ZN7mecanim9animation18CreateAvatarOutputEPKNS0_14AvatarConstantEbbRNS_6memory9AllocatorE
Grd:_Array_GetLongLength_m561139708
_Qi:_DelegatePInvokeWrapper_PCMSetPositionCallback_t1059417452
r0e:_Slider_set_maxValue_m2251404465
a1e:_SpriteState_get_pressedSprite_m3868967445_AdjustorThunk
$z:__ZN11AudioSource23VirtualRedirectTransferER24GenerateTypeTreeTransfer
N$b:__ZN7Texture11SetWrapModeE15TextureWrapMode
TXa:__ZN14Texture2DArray23VirtualRedirectTransferER14SafeBinaryRead
STd:_MissingMemberException__ctor_m1220732369
RFb:__ZNK6Camera21CalculateCanDoShadowsEv
PZg:__Z52RuntimeInvoker_Void_t1185182177_Int32U26_t1369213839PFvvEPK10MethodInfoPvPS4_
gng:_Application_InvokeOnBeforeRender_m2875673833
Euj:__ZN6il2cpp2os6Thread12SetStackSizeEj
QWe:_MaskableGraphic_RecalculateMasking_m183336762
_Nh:_Array_InternalArray__get_Item_TisRuntimeObject_m3347010206_gshared
I3d:_TypeBuilder_IsSubclassOf_m3458909121
pN:__Z13VFormatBufferPciPKcz
vpb:__Z18Transfer_BlittableI18StreamedBinaryReadILb0EELb1EhEvRK29SerializationCommandArgumentsR31RuntimeSerializationCommandInfo
lod:_X509Certificate__cctor_m198658613
hNg:__Z43RuntimeInvoker_MethodAttributes_t2366443849PFvvEPK10MethodInfoPvPS4_
Cxg:_PlayableHandle_Equals_m1666612586_AdjustorThunk
epa:__ZN6prcoreL27StretchGenericFloatBilinearI15TexFormatRFloatEEvPKNS_9InnerInfoE
S6h:__ZL139ServicePointManager_t170559685_CustomAttributesCacheGenerator_ServicePointManager_t170559685____CheckCertificateRevocationList_PropertyInfoP21CustomAttributesCache
exf:_Enum_ToObject_m1628250250
PRd:_StreamWriter_LowLevelWrite_m1081676583
hma:__Z14PadImageBorderR14ImageReferenceii
waj:__ZN15dense_hashtableINSt3__24pairIK10KeyWrapperINS1_IPK10MethodInfoP11Il2CppClassEEEjEES9_17ReflectionMapHashIS8_EN14dense_hash_mapIS9_jSD_NS9_14EqualsComparerINS0_8equal_toIS8_EEEENS0_9allocatorISB_EEE9SelectKeyESI_SK_E4findERSA_
$3i:__ZN6il2cpp2vm13MetadataCache28GetFieldDefaultValueForFieldEPK9FieldInfo
HRf:_Array_IndexOf_TisUIVertex_t4057497605_m3336763564_gshared
Vlh:__ZN21InterfaceFuncInvoker1I22OrderBlock_t1585977831iE6InvokeEjP11Il2CppClassP12Il2CppObjecti
had:_ColorBlock_Equals_m518833916_AdjustorThunk
Ffi:__ZL66PersistentCall_t3407714124_CustomAttributesCacheGenerator_m_TargetP21CustomAttributesCache
kw:__ZN12AudioManager39HandlePendingAudioConfigurationCallbackEv
pk:_emscripten_glIsFramebuffer
SOe:_RSAManaged_EncryptValue_m799827583
WR:__ZN12_GLOBAL__N_16qAtan2Eff
DHg:__Z61RuntimeInvoker_UInt32_t2560061978_RuntimeObject_RuntimeObjectPFvvEPK10MethodInfoPvPS4_
mfg:_ThreadAbortException__ctor_m1955533141
tk:_JS_Sound_SetLoopPoints
N0:__ZN15dense_hashtableINSt3__24pairIKyP17VertexDeclarationEEy14GfxGenericHashIyEN14GfxDoubleCacheIyS4_S7_NS0_8equal_toIyEEN31GfxDoubleCacheConcurrencyPolicy11LocklessGetE42GfxDoubleCacheDefaultEmptyDeletedGeneratorIyEE9SelectKeyESA_13stl_allocatorIS5_L18MemLabelIdentifier24ELi16EEE14squash_deletedEv
pB:__ZN12AudioManager17ShouldSourcePauseEb
FEj:__ZN6il2cpp2vm26MetadataAllocGenericMethodEv
DOf:_Array_InternalArray__ICollection_Remove_TisUInt16_t2177724958_m1766181761_gshared
fva:__ZN19ConstantBuffersGLES12RecordRenderEv
zGh:_UnityEvent_1__ctor_m3675246889_gshared
dic:__ZN9JSONWrite8TransferI10RectOffsetEEvRT_PKc17TransferMetaFlags
Ola:__ZN4crnd12symbol_codec11decode_bitsEj
x0g:__Z59RuntimeInvoker_Boolean_t97287965_KeyValuePair_2_t3842366416PFvvEPK10MethodInfoPvPS4_
Xff:_EncryptedPrivateKeyInfo__ctor_m3415744930
hsc:__ZN15b2CircleContact8EvaluateEP10b2ManifoldRK11b2TransformS4_
Y5e:_AsnEncodedData__ctor_m3792312694
mKi:_AesManaged_GenerateIV_m1368817386
yZb:__ZN21FixedBehaviourManagerD0Ev
LId:_NumberFormatter_FastIntegerToString_m390846811
ow:__ZN4FMOD6System12createReverbEPPNS_6ReverbE
hyj:__ZN6il2cpp2vm6String21InitializeEmptyStringEP11Il2CppClass
Hjd:_CodeAccessPermission_GetHashCode_m880096813
o7a:__Z16MarkDependenciesR27GarbageCollectorThreadStatej
$Xd:_AssemblyConfigurationAttribute__ctor_m3236176989
oIh:_ObjectPool_1_get_countInactive_m526975942_gshared
Oie:_RemotingServices_DisposeIdentity_m2605848806
gS:__ZNK9Transform11GetPositionEv
mPd:_WriteDelegate_EndInvoke_m952736984
iog:_Bounds_set_size_m4127623202
tHd:_GuidParser_Reset_m2640004655
HKa:__ZN23SharedMeshRenderingData18UnloadVertexStreamEi
RZb:__ZN31CanvasBatchIntermediateRenderer11AddSubBatchERK16DrawBuffersRangePK19ShaderPropertySheet
wYb:__ZN19RenderEventsContextC2Ei
fF:__Z6simd4fRKf
jdi:__ZL67SceneManager_t2787271929_CustomAttributesCacheGenerator_sceneLoadedP21CustomAttributesCache
lAf:_GregorianCalendar_GetEra_m2369958449
Xk:_emscripten_glEnable
Hqe:_InternalEnumerator_1_System_Collections_IEnumerator_get_Current_m2982675020_gshared
OFa:__ZN10TagManager23VirtualRedirectTransferER14SafeBinaryRead
dri:__ZL51RawImage_t3182918964_CustomAttributesCacheGeneratorP21CustomAttributesCache
Frh:_Collection_1_System_Collections_IList_get_Item_m2931804586_gshared
zie:_ObjRef_get_EnvoyInfo_m1782007847
sah:_List_1_System_Collections_ICollection_get_IsSynchronized_m3331050698_gshared
AIb:__Z15InitLightMeshesv
z5d:_MonoCMethod_ToString_m3992577062
w8i:_RaycastHit_get_collider_m1464180279
Hn:FUNCTION_TABLE_iifiii
Txh:_ReadOnlyCollection_1_System_Collections_IList_Contains_m2904046095_gshared
pVa:__ZN15QualitySettings8TransferI19StreamedBinaryWriteILb0EEEEvRT_
iyf:_GC_KeepAlive_m1400443516
dBf:_SortKey_GetHashCode_m3547067087
ZVe:_LayoutUtility_U3CGetFlexibleHeightU3Em__7_m2991026842
Nkb:__Z18Transfer_BlittableI19StreamedBinaryWriteILb0EELb1E8Vector2fEvRK29SerializationCommandArgumentsR31RuntimeSerializationCommandInfo
lDc:_cf2_arrstack_init
hOh:_Array_InternalArray__get_Item_TisResourceCacheItem_t51292791_m1306056717_gshared
IYg:__Z157RuntimeInvoker_Void_t1185182177_RuntimeObject_RuntimeObject_RuntimeObject_RuntimeObject_RuntimeObject_RuntimeObject_RuntimeObject_RuntimeObject_RuntimeObjectPFvvEPK10MethodInfoPvPS4_
g3c:_EventSystem_get_pixelDragThreshold_m1103650852
fL:__Z15CleanLogHandler7LogTypePKcz
uWd:_NumberFormatter_NumberToString_m2481532188
D9:__ZN9ShaderLab19SerializedSubShader8TransferI19StreamedBinaryWriteILb0EEEEvRT_
C_e:_ScrollRect_InternalGetBounds_m599803667
Kv:__ZN14AudioBehaviour15ThreadedCleanupEv
Qsb:__ZN6Camera17RemoveImageFilterERK11ImageFilter
iba:__ZNSt3__218__insertion_sort_3IR25ValueParameterArraySorterPN20GpuProgramParameters14ValueParameterEEEvT0_S6_T_
dwc:__ZN10ClipperLib7Clipper27ProcessEdgesAtTopOfScanbeamEx
G6h:__ZL67EditorBrowsableAttribute_t1475454531_CustomAttributesCacheGeneratorP21CustomAttributesCache
gBd:_Comparer__cctor_m3311686689
F7c:_UIBehaviour_OnDidApplyAnimationProperties_m2143584361
i9h:__ZL102SystemInfo_t3561985952_CustomAttributesCacheGenerator_SystemInfo_get_operatingSystemFamily_m4256884728P21CustomAttributesCache
ihg:_TimeZone__ctor_m1831364098
zcj:__ZNK10KeyWrapperINSt3__24pairIPK9EventInfoP11Il2CppClassEEE14EqualsComparerINS0_8equal_toIS7_EEEclERKS8_SE_
jqe:_InternalEnumerator_1_get_Current_m3500427238_AdjustorThunk
jUc:__ZN2UI26InitializeDeviceForOverlayEi
_Y:__Z27LogRepeatingStringWithFlagsRKN4core12basic_stringIcNS_20StringStorageDefaultIcEEEE15LogMessageFlagsi
alg:_UInt64_System_IConvertible_ToSingle_m925613075
fxf:_Enum_IsDefined_m1442314461
Neg:_Thread__cctor_m817723615
gRi:_AudioExtensionManager_RegisterBuiltinDefinitions_m2742744104
ksi:__ZL66Slider_t3903728902_CustomAttributesCacheGenerator_m_OnValueChangedP21CustomAttributesCache
H9f:_DecoderReplacementFallbackBuffer_Fallback_m1261056214
JBb:__ZNSt3__227__insertion_sort_incompleteIRPFbP10GUIElementS2_EPS2_EEbT0_S7_T_
BYd:_Binder_get_DefaultBinder_m950908649
gOd:_StreamReader__ctor_m1616861391
W2h:__ZL59ArgumentException_t132251570_CustomAttributesCacheGeneratorP21CustomAttributesCache
KZc:__ZN18UnityConnectClient33OnPlayerSessionStateChangedStaticEPS_jyy
LCf:_RSA_ToXmlString_m2922661427
bI:__ZNK11UnityEngine15CloudWebService23WebRequestUploadHandler11GetProgressEv
Oia:__ZN7ApiGLES4LoadE16GfxDeviceLevelGL
GUa:__ZN18StreamedBinaryReadILb0EE21TransferSTLStyleArrayI13dynamic_arrayI31EnlightenSystemAtlasInformationLj8EEEEvRT_17TransferMetaFlags
mef:_ASN1_Add_m2431139999
Sji:__ZL61GUIContent_t3050628031_CustomAttributesCacheGenerator_m_ImageP21CustomAttributesCache
oBc:__ZN5physx15PxErrorCallbackD2Ev
rrj:__ZN15dense_hashtableI10KeyWrapperIP18Il2CppGenericClassES3_N6il2cpp8metadata22Il2CppGenericClassHashEN14dense_hash_setIS3_S6_NS3_14EqualsComparerINS5_25Il2CppGenericClassCompareEEENSt3__29allocatorIS3_EEE8IdentityESA_SD_E15insert_noresizeERKS3_
DXb:__ZZL31RegisterOtherRendererPropertiesR22GenericPropertyBindingEN30Wrapper_RendererReceiveShadows13GetFloatValueEPv
_Mf:_Array_InternalArray__ICollection_Contains_TisSlot_t384495010_m688761886_gshared
ZSa:__ZN17SharedTextureDataC2E10MemLabelIdii13TextureFormatjiibb
w_g:__Z114RuntimeInvoker_RuntimeObject_RuntimeObject_Int32_t2950945753_Int32_t2950945753_Int32_t2950945753_Int32_t2950945753PFvvEPK10MethodInfoPvPS4_
Xvb:__ZN8Material11SetPassFastEPN9ShaderLab4PassER17ShaderPassContextP6Shaderib
OVa:__ZNK13ScreenManager13GetLockCursorEv
IZc:__ZN11UnityEngine7Connect20BasePersistentValues10SaveValuesER9JSONWrite
iph:_Collection_1_IsFixedSize_m3748602684_gshared
Lof:_DateTime_System_IConvertible_ToDouble_m2116720007
krg:_Display_GetSystemExtImpl_m2808197389
$fg:_WaitHandle_WaitOne_m2577152516
Xnd:_X509Certificate_PEM_m1177570576
L$h:__ZL46DSA_t2386879874_CustomAttributesCacheGeneratorP21CustomAttributesCache
Qle:_ArrayReadOnlyList_1_GetEnumerator_m1835926958_gshared
Ssc:__ZNSt3__27__sort4IR24RayHitsByDepthComparitorP12RaycastHit2DEEjT0_S5_S5_S5_T_
n0:__ZN22VirtualJoystickManagerC2Ev
P$:__ZN20GlobalCachingManager7DisposeEv
PCb:__Z12SetupLODFadeR9GfxDeviceR17ShaderPassContextf
Tqc:__ZN26b2PolygonAndCapsuleContact6CreateEP9b2FixtureiS1_iP16b2BlockAllocator
USh:__ZL69Type_t_CustomAttributesCacheGenerator_Type_GetConstructors_m576905011P21CustomAttributesCache
nIb:__ZL24CollectForwardObjectsJobP27CollectForwardObjectsHeader
s3i:__ZNK15dense_hashtableINSt3__24pairIK10KeyWrapperIPK11Il2CppClassEPKcEES6_N6il2cpp5utils11PointerHashIS3_EEN14dense_hash_mapIS6_S9_SE_NS6_14EqualsComparerINS0_8equal_toIS5_EEEENS0_9allocatorISA_EEE9SelectKeyESJ_SL_E12test_deletedERK24dense_hashtable_iteratorISA_S6_SE_SN_SJ_SL_E
iKb:__Z13IsNodeVisibleRK9SceneNodeRK4AABBRK22SceneCullingParameters
jSf:_Array_InternalArray__IndexOf_TisLabelFixup_t858502054_m1491765395_gshared
AKg:__Z44RuntimeInvoker_RuntimeTypeHandle_t3027515415PFvvEPK10MethodInfoPvPS4_
vwi:_TlsServerSettings_set_CertificateRequest_m1039729760
_3d:__ZN30GenericInterfaceActionInvoker1IP20Delegate_t1188392813E6InvokeEPK10MethodInfoP12Il2CppObjectS1_
BJe:_SortKeyBuffer_AppendCJKExtension_m2591091991
ZVc:__Z57RectTransformUtility_CUSTOM_INTERNAL_CALL_PixelAdjustRectP12Il2CppObjectS0_R5RectTIfE
tdg:_UTF8Encoding_GetByteCount_m4153686982
iLb:__Z24ScheduleCullingAllGroupsR8JobFenceRK22SceneCullingParametersiRK13CullingOutputRK13dynamic_arrayIP12CullingGroupLj4EERKS_
YWj:_emscripten_glStencilMask__wrapper
cJg:__Z49RuntimeInvoker_Void_t1185182177_Double_t594665363PFvvEPK10MethodInfoPvPS4_
G0i:__ZN15dense_hashtableI10KeyWrapperIPK19Il2CppGenericMethodES4_N6il2cpp8metadata23Il2CppGenericMethodHashEN14dense_hash_setIS4_S7_NS4_14EqualsComparerINS6_26Il2CppGenericMethodCompareEEENSt3__29allocatorIS4_EEE8IdentityESB_SE_EC2ERKSH_j
NHa:__ZN15RenderNodeQueue7CleanupEv
IPf:_Array_InternalArray__IEnumerable_GetEnumerator_TisByte_t1134296376_m1979205379_gshared
i7d:_MonoProperty_CreateGetterDelegate_m2478402519
mBc:__ZN16NovodexAllocator8allocateEjPKcS1_i
NPa:__ZN39DeprecatedFastPropertyNameSerialization8TransferI14SafeBinaryReadEEvRT_
Sxi:_DeriveBytes_DeriveIV_m973925711
jKd:_Int32_System_IConvertible_ToSByte_m3133688512
Uxh:_ReadOnlyCollection_1_System_Collections_IList_IndexOf_m848971554_gshared
kIb:__ZN9ShaderLab10GrabPassesD2Ev
L_e:_ScrollRect_CalculateOffset_m927043599
cYa:__ZN14Texture2DArray13UploadTextureEv
AWe:_MaskableGraphic_UpdateCull_m2805101913
oIc:_tt_cmap14_done
j5a:__ZN18AwakeFromLoadQueue25RegisterObjectInstanceIDsEv
AOc:__ZN20TextRenderingPrivate19NativeTextGenerator15InsertCharacterEiPj
PLg:__Z77RuntimeInvoker_Void_t1185182177_RuntimeObject_SByte_t1669577662_RuntimeObjectPFvvEPK10MethodInfoPvPS4_
vMg:__Z81RuntimeInvoker_Void_t1185182177_RuntimeObject_SByte_t1669577662_SByte_t1669577662PFvvEPK10MethodInfoPvPS4_
Pnc:__ZN11b2RopeJoint24SolveVelocityConstraintsERK12b2SolverData
TUd:_MonoType_get_attributes_m1332507727
dIi:_GUIContent_ClearStaticCache_m1205116045
och:_List_1_System_Collections_IList_get_IsFixedSize_m203251153_gshared
wHf:_WindowsIdentity_Dispose_m3466258450
Flb:__Z18Transfer_BlittableI19StreamedBinaryWriteILb0EELb0EyEvRK29SerializationCommandArgumentsR31RuntimeSerializationCommandInfo
Vje:_BinaryCommon__cctor_m2978407547
twd:_Char_System_IConvertible_ToByte_m2347554595
Cxh:_ReadOnlyCollection_1_GetEnumerator_m1017886827_gshared
VTh:__ZL47ASN1_t2114160832_CustomAttributesCacheGeneratorP21CustomAttributesCache
hQc:__ZN20TextRenderingPrivate15DynamicFontData21GetFontMetricsForFaceERK13dynamic_arrayIN4core17string_with_labelILi35EEELj4EEiRKS1_I4PPtrIN13TextRendering4FontEELj4EEPfSF_
YGh:_IndexedSet_1__ctor_m2250384602_gshared
W_f:_DefaultComparer__ctor_m1306123661_gshared
Ejg:_UInt16_TryParse_m4139137016
tuj:__ZN6il2cpp5utils13dynamic_arrayIPNS_2os6ThreadELj4EE9push_backEv
rwj:__ZN6il2cpp2gc16GarbageCollector9FreeFixedEPv
nag:_Encoding__ctor_m2997749867
tug:_ManagedStreamHelpers_ManagedStreamSeek_m3158782053
NEi:_ExpressionAssertion_Compile_m2166597834
hsb:__ZN16ScriptingManagerD0Ev
JIf:_Single_System_IConvertible_ToSByte_m1208276900_AdjustorThunk
_yj:__ZN6il2cpp6icalls8mscorlib6System7Convert24InternalFromBase64StringEP12Il2CppStringb
p0f:_EqualityComparer_1__ctor_m2241711498_gshared
tZh:__ZL58ChannelServices_t3942013484_CustomAttributesCacheGeneratorP21CustomAttributesCache
Xpj:__ZN30dense_hashtable_const_iteratorINSt3__24pairIK10KeyWrapperINS1_IPKcS4_EEEiEES6_24NamespaceAndNamePairHashN14dense_hash_mapIS6_iS9_NS6_14EqualsComparerI26NamespaceAndNamePairEqualsEENS0_9allocatorIS8_EEE9SelectKeyESD_SF_EppEv
X4b:__Z44Register_UnityEngine_Component_get_transformv
n2g:__Z48RuntimeInvoker_Void_t1185182177_Link_t3209266973PFvvEPK10MethodInfoPvPS4_
B5b:__Z39GameObject_CUSTOM_FindGameObjectWithTagP12Il2CppString
wVi:_CanvasRenderer_get_absoluteDepth_m2703237819
mBf:_TextInfo_ToLower_m2744057472
Tyb:__ZN17ArchiveFileSystem12MountArchiveEPKcS1_
k2f:_EqualityComparer_1_System_Collections_IEqualityComparer_Equals_m3977314386_gshared
ihc:__Z18Transfer_BlittableI9JSONWriteLb1E8Vector4fEvRK29SerializationCommandArgumentsR31RuntimeSerializationCommandInfo
Dn:FUNCTION_TABLE_viififiii
tyf:_CCGregorianCalendar_year_from_fixed_m463929682
pSc:__ZN2UI13CanvasManagerD0Ev
LL:__ZThn32_NK8Renderer14GetSubsetIndexEi
Iqg:_Debug_get_unityLogger_m2239795986
$zi:_X509Extension_get_Oid_m1003388288
jff:_MD2Managed_Initialize_m2341076836
Rxh:_ReadOnlyCollection_1_System_Collections_IList_Add_m4240023232_gshared
Dfa:__ZN9GfxDevice15ImmediateVertexEfff
VTb:__Z13RegisterClassI8MaterialEvv
RTa:__ZNK16LightmapSettings22GetTypeVirtualInternalEv
pIa:__ZN16GraphicsSettings13AwakeFromLoadE17AwakeFromLoadMode
HLh:_Array_Sort_TisUIVertex_t4057497605_TisUIVertex_t4057497605_m4243853890_gshared
dq:__ZN6Object13AwakeFromLoadE17AwakeFromLoadMode
Vca:__ZN13GfxDeviceGLES15SetStencilStateEPK18DeviceStencilStatei
xPd:__ZN28GenericInterfaceFuncInvoker3IiP22ByteU5BU5D_t4116647657iiE6InvokeEPK10MethodInfoP12Il2CppObjectS1_ii
hvd:_Buffer_BlockCopyInternal_m418318694
bJj:_cycle
rng:_AssetBundleCreateRequest_t3119663542_marshal_pinvoke
Qyj:__ZN6il2cpp2vm8Profiler7GCEventE13Il2CppGCEvent
PKg:__Z76RuntimeInvoker_Void_t1185182177_RuntimeObject_RuntimeFieldHandle_t1871169219PFvvEPK10MethodInfoPvPS4_
hyi:_PKCS12_Finalize_m507756088
Id:_emscripten_glUniform1iv
jfg:_Thread_get_ManagedThreadId_m1068113671
wqc:__ZN15b2DistanceProxy3SetEPK7b2Shapei
bbb:__ZN16MemoryFileSystemD2Ev
eLg:__Z150RuntimeInvoker_Int32_t2950945753_RuntimeObject_Int32_t2950945753_Int32_t2950945753_RuntimeObject_Int32_t2950945753_Int32_t2950945753_Int32_t2950945753PFvvEPK10MethodInfoPvPS4_
Otd:_BitConverter_DoubleToInt64Bits_m3574395137
U2a:__ZN12AspectRatios8TransferI24GenerateTypeTreeTransferEEvRT_
mah:_List_1_System_Collections_IList_Add_m1540114404_gshared
Cme:_InternalEnumerator_1_System_Collections_IEnumerator_Reset_m81420524_AdjustorThunk
F4b:__Z37Register_UnityEngine_Camera_get_depthv
ZRd:_StringReader_Read_m3322058819
Ybe:_CrossAppDomainChannel_get_ChannelPriority_m3418073750
t$f:_EqualityComparer_1__ctor_m1860346363_gshared
wTe:_Selectable_StartColorTween_m3618813981
F2c:_BaseInputModule_HandlePointerExitAndEnter_m1705532066
R3d:_EventInfo__ctor_m3033129999
mMi:__ZL24UnresolvedVirtualCall_33P12Il2CppObjectiS0_S0_PK10MethodInfo
uTb:__ZN15ApplicationInfo16GetInstallerNameEv
GQb:__Z23ConvertIntegerToTypePtrItEbPvR14SafeBinaryRead
Tuf:_Delegate_CombineImpl_m3572135514
VId:_NumberFormatter_IntegerToString_m1679294587
XDf:_SHA256Managed_AddLength_m1060552216
hvh:_ReadOnlyCollection_1_System_Collections_IList_RemoveAt_m422909114_gshared
Zd:_emscripten_glStencilFunc
zti:__ZL78LayoutRebuilder_t541313304_CustomAttributesCacheGenerator_U3CU3Ef__amU24cache2P21CustomAttributesCache
AMh:_Dictionary_2_Do_CopyTo_TisKeyValuePair_2_t3699644050_TisRuntimeObject_m2224738096_gshared
NLi:__ZL23UnresolvedVirtualCall_6P12Il2CppObjectiPK10MethodInfo
GMi:__ZL24UnresolvedVirtualCall_53P12Il2CppObjectPK10MethodInfo
bzi:_X509Certificate_GetIssuerName_m3173047029
r6c:__Z46il2cpp_codegen_get_marshal_directive_exceptionPKc
$Qe:_InputField_get_isFocused_m709836844
ee:_glGetActiveUniformBlockName
bni:__ZL90PointerEventData_t3807901092_CustomAttributesCacheGenerator_U3CpointerIdU3Ek__BackingFieldP21CustomAttributesCache
Pf:_emscripten_glUniform1fv
j7b:__Z39Quaternion_CUSTOM_INTERNAL_CALL_InverseRK11QuaternionfRS_
b7a:__ZN27UnloadUnusedAssetsOperationD0Ev
jx:__ZN4FMOD7Channel20set3DConeOrientationEP11FMOD_VECTOR
un:FUNCTION_TABLE_iiifii
FZd:_AssemblyBuilder_not_supported_m1735277432
ive:_InternalEnumerator_1_MoveNext_m1344185775_AdjustorThunk
xtj:__ZN6il2cpp2vm12GenericClass11SetupEventsEP11Il2CppClass
mLc:_tt_delta_interpolate
MIc:_tt_cmap12_get_info
fpj:__ZN6il2cpp2vm15ReboxIReferenceEP14Il2CppIUnknownP11Il2CppClass
U6f:_Enumerator__ctor_m2029608698_AdjustorThunk
WXi:__ZN6il2cpp6icalls8mscorlib6System7Decimal14decimalCompareEP19il2cpp_decimal_reprS5_
eIe:_Dictionary_2_OnDeserialization_m4209543208_gshared
vzj:__ZThn4_N6il2cpp2vm13CachedCCWBaseINS0_13ManagedObjectEE7ReleaseEv
htg:_GameObject_AddComponent_m136524825
n_h:__ZL62SoapMethodAttribute_t1935009310_CustomAttributesCacheGeneratorP21CustomAttributesCache
JTg:__Z100RuntimeInvoker_Void_t1185182177_RuntimeObject_Int32_t2950945753_Int32_t2950945753_UInt16_t2177724958PFvvEPK10MethodInfoPvPS4_
PQa:__ZNSt3__26__treeINS_12__value_typeIN9ShaderLab16FastPropertyNameE10ColorRGBAfEENS_19__map_value_compareIS3_S5_NS_4lessIS3_EELb1EEENS_9allocatorIS5_EEE12__find_equalIS3_EERPNS_16__tree_node_baseIPvEENS_21__tree_const_iteratorIS5_PNS_11__tree_nodeIS5_SF_EEiEESI_RKT_
$Tj:_glCopyTexImage2D__wrapper
$zc:__ZN16PhysicsManager2D11CreateWorldERK8Vector2f
Zvf:_Double_System_IConvertible_ToUInt32_m271206838
PX:__GLOBAL__sub_I_runtime_graphics_billboard_0_cpp
gwb:__Z18ClearByDrawingQuad13GfxClearFlagsRK10ColorRGBAffjR17ShaderPassContext
Doa:__ZN6prcoreL17RemapGenericFloatI14TexFormatRHalf15TexFormatRFloatEEvPKNS_9InnerInfoE
sEc:_cf2_getBlueValues
ECb:__Z16ShouldUseShadowsb
k2:__ZN15DirectorManager21RebuildStageCallbacksEv
twb:__ZN19RuntimeSceneManager9LoadSceneERKN4core12basic_stringIcNS0_20StringStorageDefaultIcEEEES6_S6_RK9UnityGUIDiNS_11LoadingModeE
Vha:__ZN7ApiGLES10DrawArraysE16GfxPrimitiveTypejjj
Gu:__ZN10SampleClip13LoadBaseSoundEv
npd:_SmallXmlParser_SkipWhitespaces_m4243606597
hzf:_CompareInfo_IndexOf_m2631915198
l_d:_ConstructorBuilder_GetCustomAttributes_m2495332786
Dfe:_MethodCall__ctor_m3669645
Y3c:_TriggerEvent__ctor_m87299207
cUg:__Z48RuntimeInvoker_ExchangeAlgorithmType_t1320888206PFvvEPK10MethodInfoPvPS4_
nE:__Z57AudioSource_CUSTOM_INTERNAL_CALL_ClearExtensionPropertiesP12Il2CppObjectRK12PropertyName
Lsj:__ZN15dense_hashtableINSt3__24pairIK10KeyWrapperIP12Il2CppObjectEN6il2cpp2gc9CachedCCWEEES5_NS7_5utils11PointerHashIS3_EEN14dense_hash_mapIS5_S9_SD_NS5_14EqualsComparerINS0_8equal_toIS4_EEEENS0_9allocatorISA_EEE9SelectKeyESI_SK_E15insert_noresizeERKSA_
shf:_CertificateValidationCallback2__ctor_m1685875113
Fuc:__ZN18PlatformEffector2D8TransferI24GenerateTypeTreeTransferEEvRT_
X0:__ZL50StaticRegisterSceneLoadedCallback_LightmapSettingsPv
RQa:__ZN22DeviceMVPMatricesStateC2ER9GfxDevice
wQh:__ZL48Double_t594665363_CustomAttributesCacheGeneratorP21CustomAttributesCache
dn:FUNCTION_TABLE_iifii
gug:_Logger_set_logEnabled_m1180597166
wAd:_Comparer_Compare_m3984347512
YTa:__ZN21EnlightenSceneMapping8TransferI14SafeBinaryReadEEvRT_
vfj:__ZN6il2cpp2vm10Reflection12HasAttributeEP9FieldInfoP11Il2CppClass
bAa:__ZNSt3__26__treeIiNS_4lessIiEE13stl_allocatorIiL18MemLabelIdentifier1ELi16EEE7destroyEPNS_11__tree_nodeIiPvEE
lc:invoke_viiifi
h7d:_MonoProperty_GetCustomAttributes_m3619796755
O6i:__ZNSt3__214__split_bufferIP11Il2CppClassRNS_9allocatorIS2_EEEC2EjjS5_
Qge:_MethodDictionary_System_Collections_IEnumerable_GetEnumerator_m4169036899
spd:__ZN23InterfaceActionInvoker2IP8String_tP12Il2CppObjectE6InvokeEjP11Il2CppClassS3_S1_S3_
cAa:__ZNK11AssetBundle14GetPreloadDataEiR13dynamic_arrayIiLj4EE
lCf:_RIPEMD160Managed_JJJ_m4161373884
Rbe:_CrossContextChannel__ctor_m3755842292
xZf:_DefaultComparer_Equals_m3257444875_gshared
of:_JS_Sound_SetPosition
SMa:__ZN19RenderBufferManager13GetTempBufferEii17DepthBufferFormat19RenderTextureFormatj22RenderTextureReadWrite14VRTextureUsagei23RenderTextureMemoryless
B3i:__ZL13GetSharedInstPK17Il2CppGenericInst
Fni:__ZL98PointerEventData_t3807901092_CustomAttributesCacheGenerator_PointerEventData_get_delta_m1062010255P21CustomAttributesCache
g9g:_List_1_get_Count_m634446588_gshared
hXc:__ZN22BaseUnityConnectClient17SaveSessionValuesEv
moe:_InternalEnumerator_1_get_Current_m476140818_gshared
Tbh:_List_1_Sort_m4240158523_gshared
mGg:_WaitForEndOfFrame__ctor_m1381314187
qIb:__Z24SetupActiveLightsContextR21ActiveLightingContextRK12ActiveLightsRK11CullResultsP14ShadowMapCacheRK10MinMaxAABB
R7c:_AnimationTriggers_set_disabledTrigger_m933056574
A8b:__Z38Sprite_CUSTOM_INTERNAL_get_textureRectP12Il2CppObjectP5RectTIfE
hej:__ZNK15dense_hashtableINSt3__24pairIK10KeyWrapperIPK22Il2CppGenericParameterEPK24MonoGenericParameterInfoEES6_N6il2cpp5utils11PointerHashIS4_EEN14dense_hash_mapIS6_SA_SF_NS6_14EqualsComparerINS0_8equal_toIS5_EEEENS0_9allocatorISB_EEE9SelectKeyESK_SM_E3endEv
E8g:_List_1_Add_m238442097_gshared
J2b:__ZN9TextAsset7SetTextERKN4core12basic_stringIcNS0_20StringStorageDefaultIcEEEE
LGa:__ZN6Camera8TransferI24GenerateTypeTreeTransferEEvRT_
VPi:__ZL25UnresolvedVirtualCall_230P12Il2CppObjectPK10MethodInfo
Ja:invoke_iiiiiiif
Fa:invoke_iiiiiiii
XIh:_Array_InternalArray__set_Item_TisByte_t1134296376_m3104140039_gshared
Xzg:_Rect_ToString_m447614148
uyi:_PKCS12_GetBytes_m415958948
Djf:_Context_get_HandshakeState_m2425796590
ILb:__ZN8Renderer17PendingAddToSceneEv
jqh:_Collection_1_System_Collections_IList_set_Item_m2625856224_gshared
TXj:b122
WXj:b125
VXj:b124
YXj:b127
XXj:b126
_Xj:b129
N7b:__Z52Register_UnityEngine_RectTransform_INTERNAL_get_rectv
Gvg:_Mesh_SetSizedArrayForChannel_m2565120436
AO:__Z21PostprocessStacktracePKcRN4core12basic_stringIcNS1_20StringStorageDefaultIcEEEE
uug:_ManagedStreamHelpers_ManagedStreamLength_m2930872960
e3a:__ZN18StreamedBinaryReadILb0EE21TransferSTLStyleArrayI13dynamic_arrayI16SplashScreenLogoLj4EEEEvRT_17TransferMetaFlags
exi:_BasicConstraintsExtension_Encode_m2009213240
Q4b:__Z47Register_UnityEngine_Camera_get_allCamerasCountv
s9c:___clang_call_terminate
Fs:__ZN16MecanimAnimation25RegisterIAnimationBindingEPKN5Unity4TypeEiP17IAnimationBinding
g0b:__ZNSt3__26vectorIj13stl_allocatorIjL18MemLabelIdentifier1ELi16EEE6assignIPKtEENS_9enable_ifIXaasr21__is_forward_iteratorIT_EE5valuesr16is_constructibleIjNS_15iterator_traitsIS9_E9referenceEEE5valueEvE4typeES9_S9_
jkc:__ZL26Transfer_SimpleNativeClassI8JSONRead10RectOffsetLb0EEvRK29SerializationCommandArgumentsR31RuntimeSerializationCommandInfo
ZPb:__Z29StdTemplateConversionFunctionIsiEbPvR14SafeBinaryRead
dAb:__ZN12InputManager13InputEndFrameEv
Roc:__ZN15b2RevoluteJointC2EPK18b2RevoluteJointDef
$5i:__ZNSt3__26__treeIP11Il2CppClassNS_4lessIS2_EENS_9allocatorIS2_EEE25__emplace_unique_key_argsIS2_JRKS2_EEENS_4pairINS_15__tree_iteratorIS2_PNS_11__tree_nodeIS2_PvEEiEEbEERKT_DpOT0_
Vvg:_Object_get_name_m4211327027
Ckj:__ZN6il2cpp2vm6Thread5SetupEP12Il2CppThread
$sh:_ReadOnlyCollection_1_System_Collections_IList_get_IsReadOnly_m1248651675_gshared
YBe:_Enumerator_System_Collections_IDictionaryEnumerator_get_Key_m2500634048_gshared
CSi:_TextGenerator_t3211863866_marshal_pinvoke_back
eKj:___munmap
fg:_localtime_r
jBb:__ZN22RenderingCommandBuffer13GetAndCheckRTE24BuiltinRenderTextureTypeRKN9ShaderLab16FastPropertyNameEPKcPP13RenderTexture
M0:__ZN14GfxDoubleCacheIyP17VertexDeclaration14GfxGenericHashIyENSt3__28equal_toIyEEN31GfxDoubleCacheConcurrencyPolicy11LocklessGetE42GfxDoubleCacheDefaultEmptyDeletedGeneratorIyEEC2Ev
ire:_InternalEnumerator_1_System_Collections_IEnumerator_Reset_m3619766341_AdjustorThunk
WK:__Z19free_alloc_internalPv10MemLabelId
k_h:__ZL56ReturnMessage_t1376985608_CustomAttributesCacheGeneratorP21CustomAttributesCache
Vcg:_UTF32Decoder_GetChars_m1925558948
ig:_strftime
ata:__ZN7Texture33SetStoredColorSpaceNoDirtyNoApplyE17TextureColorSpace
g9d:_ResourceSet__ctor_m3618395942
Vsf:_Decimal_System_IConvertible_ToDouble_m3125524987_AdjustorThunk
AR:__ZN12FileAccessorD2Ev
jX:__ZN10ColorRGBAf8TransferI18StreamedBinaryReadILb0EEEEvRT_
UKa:__ZN14VertexDataInfoC2Ev
bwj:__ZN6il2cpp2gc16GarbageCollector14CollectALittleEv
uci:__ZL87Sprite_t280657092_CustomAttributesCacheGenerator_Sprite_INTERNAL_get_border_m3728071101P21CustomAttributesCache
f_b:__ZNK9HPlayable15GetPlayableTypeEv
K3g:__Z117RuntimeInvoker_Void_t1185182177_CustomAttributeTypedArgumentU5BU5DU26_t2503877664_Int32_t2950945753_Int32_t2950945753PFvvEPK10MethodInfoPvPS4_
Onb:__ZL17Transfer_GUIStyleI18StreamedBinaryReadILb1EELb1EEvRK29SerializationCommandArgumentsR31RuntimeSerializationCommandInfo
MXe:_RectMask2D_IsRaycastLocationValid_m1652308696
u6i:__ZN6il2cpp6icalls8mscorlib6SystemL9IsPrivateEPK12PropertyInfo
MAg:_RectTransform_add_reapplyDrivenProperties_m1374850920
XZ:__ZN9shadertag10InitializeEv
n0g:__Z69RuntimeInvoker_Void_t1185182177_Int32_t2950945753_Color32_t2600501292PFvvEPK10MethodInfoPvPS4_
RCb:__ZN13BatchRenderer20RenderSingleWithPassER17ShaderPassContextPK18SharedMaterialDataP6ShaderPN9ShaderLab4PassEiPKNS7_10GrabPassesEjib15BatchBreakCause
J$i:__ZN15dense_hashtableINSt3__24pairIK10KeyWrapperIPK19Il2CppGenericMethodEPK26Il2CppGenericMethodIndicesEES6_N6il2cpp8metadata23Il2CppGenericMethodHashEN14dense_hash_mapIS6_SA_SE_NS6_14EqualsComparerINSD_26Il2CppGenericMethodCompareEEENS0_9allocatorISB_EEE9SelectKeyESI_SK_ED2Ev
mVa:__ZN15QualitySettings14QualitySetting8TransferI24GenerateTypeTreeTransferEEvRT_
yFj:__ZN6il2cpp5utils6Memory11AlignedFreeEPv
jif:_Context_get_ClientWriteKey_m3174706656
Fmi:__ZL77ExecuteEvents_t3484638744_CustomAttributesCacheGenerator_U3CU3Ef__mgU24cache7P21CustomAttributesCache
eRe:_InputField_get_textComponent_m948764648
tac:__Z44Register_UnityEngine_Object_DestroyImmediatev
zGd:_Convert_ToSingle_m835189399
e$b:__ZN22BlockMemoryCacheWriter14LockCacheBlockEjPPhS1_
Zcc:__ZNSt3__218__insertion_sort_3IRPFbPKN5IMGUI9GUIWindowES4_EPPS2_EEvT0_SA_T_
jkd:_CryptographicUnexpectedOperationException__ctor_m69881930
F0h:__ZL73TripleDESCryptoServiceProvider_t3595206342_CustomAttributesCacheGeneratorP21CustomAttributesCache
vjh:_Collection_1_SetItem_m1218178236_gshared
Ukc:__Z22TransferField_NonArrayI8JSONRead27Converter_SimpleNativeClassI8GUIStyleEEvRK23StaticTransferFieldInfoR31RuntimeSerializationCommandInfoRT0_
I0i:__ZN15dense_hashtableI10KeyWrapperIPK19Il2CppGenericMethodES4_N6il2cpp8metadata23Il2CppGenericMethodHashEN14dense_hash_setIS4_S7_NS4_14EqualsComparerINS6_26Il2CppGenericMethodCompareEEENSt3__29allocatorIS4_EEE8IdentityESB_SE_E16reset_thresholdsEv
Pg:_llvm_eh_typeid_for
MTb:__Z13RegisterClassI10GameObjectEvv
Kii:__ZL79Event_t2956885303_CustomAttributesCacheGenerator_Event_get_modifiers_m995073384P21CustomAttributesCache
pAe:_Enumerator__ctor_m2609246966_gshared
yge:_RemotingServices_FindInterfaceMethod_m2125212568
GRd:_StreamWriter__cctor_m1229272693
Qwf:_Enum_System_IConvertible_ToSByte_m779472798
Dhg:_Type_get_IsInterface_m3284996719
Xne:_InternalEnumerator_1_MoveNext_m1543390728_gshared
aqb:__Z18Transfer_BlittableI18StreamedBinaryReadILb0EELb1E8Vector4fEvRK29SerializationCommandArgumentsR31RuntimeSerializationCommandInfo
aBf:_SortKey_get_OriginalString_m1428586816
r0g:__Z51RuntimeInvoker_Void_t1185182177_Vector4_t3319028937PFvvEPK10MethodInfoPvPS4_
iZf:_Dictionary_2_U3CCopyToU3Em__0_m2023886030_gshared
I0g:__Z64RuntimeInvoker_Boolean_t97287965_RefEmitPermissionSet_t484390987PFvvEPK10MethodInfoPvPS4_
yWj:_glBindVertexArray__wrapper
Ghd:_SerializationInfo__ctor_m2923079689
uu:__ZNK10SampleClip20GetCompressionFormatEv
sPa:__ZN8Material8TransferI14SafeBinaryReadEEvRT_
zRa:__ZN12CubemapArray17UploadToGfxDeviceEv
ZAh:_Func_2__ctor_m1150804732_gshared
yId:_Int32_JumpOverWhite_m208298144
avi:_X509CertificateCollection_get_Item_m3285563224
h2g:__Z53RuntimeInvoker_Int32_t2950945753_UIVertex_t4057497605PFvvEPK10MethodInfoPvPS4_
zVj:_emscripten_glGetUniformiv__wrapper
ozj:__ZN6il2cpp2vm13ManagedObject14QueryInterfaceERK10Il2CppGuidPPv
cv:__ZN11AudioSource4StopEb
Ifb:__ZN14SafeBinaryRead21TransferSTLStyleArrayI13dynamic_arrayI10Matrix4x4fLj4EEEEvRT_17TransferMetaFlags
xHa:__ZN15LODGroupManager26CollectAllLODGroupManagersERK16CoreCameraValuesR13dynamic_arrayIPS_Lj4EEb
_Dj:__ZN6il2cpp2os14WindowsRuntime13DeleteHStringEP15Il2CppHString__
nkg:_UInt32_System_IConvertible_ToUInt32_m1744564280_AdjustorThunk
Cva:__ZN18GlslGpuProgramGLESD2Ev
YNb:__ZN13RenderTexture14SetVolumeDepthEi
yG:__ZN11UnityEngine15CloudWebService14DataErrorEvent12ToJsonStringERN4core12basic_stringIcNS2_20StringStorageDefaultIcEEEEjPKc
$Sg:__Z86RuntimeInvoker_Void_t1185182177_UInt16_t2177724958_SByte_t1669577662_SByte_t1669577662PFvvEPK10MethodInfoPvPS4_
Yaa:__Z22LoadGpuProgramFromDataPKhS0_Rj
ylc:__ZN10Matrix4x4f8TransferI8JSONReadEEvRT_
wNc:__ZN14SafeBinaryRead21TransferSTLStyleArrayI13dynamic_arrayIN4core17string_with_labelILi35EEELj4EEEEvRT_17TransferMetaFlags
wXe:_PositionAsUV1_ModifyMesh_m4231919476
BBd:_Hashtable__ctor_m1941859523
jze:_Comparer_1_get_Default_m1947376189_gshared
k_e:_ScrollRect_set_horizontalScrollbarSpacing_m2209919081
TM:__ZN17PersistentManager18ReadObjectThreadedEi
rsa:__ZN25TransformFeedbackSkinning31CleanupTransformFeedbackShadersEv
lHa:__Z22scripting_object_unbox18ScriptingObjectPtr
sfe:_AsyncResult_get_NextSink_m1844209137
COc:__ZNK20TextRenderingPrivate8FontImpl19GetCharacterAdvanceEjijfPj
RTf:_Array_InternalArray__ICollection_Add_TisUriScheme_t722425697_m3142345403_gshared
EIj:_fmt_u
sMh:_Dictionary_2_Do_CopyTo_TisDictionaryEntry_t3123975638_TisDictionaryEntry_t3123975638_m1126292988_gshared
$Wa:__ZN10VertexData8TransferI18StreamedBinaryReadILb0EEEEvRT_
FHj:__ZN6il2cpp8metadata25Il2CppGenericClassCompare7CompareEPK18Il2CppGenericClassS4_
uVd:_MonoType_get_Assembly_m4290914179
HRh:__ZL70RuntimeArray_CustomAttributesCacheGenerator_Array_GetValue_m1062368071P21CustomAttributesCache
Sba:__ZN9ShaderLab7ProgramC2E10MemLabelIdi10ShaderType
iOb:__ZN14PreloadManager16UpdatePreloadingEv
mS:__ZN12BaseRendererD2Ev
JKf:_String_LastIndexOf_m95398196
UJh:_Array_InternalArray__set_Item_TisUILineInfo_t4195266810_m2313892078_gshared
aCh:__ZN28GenericInterfaceFuncInvoker1Ib40CustomAttributeTypedArgument_t2723150157E6InvokeEPK10MethodInfoP12Il2CppObjectS0_
qxg:_PlayableAsset__ctor_m2395156306
doi:__ZL79StandaloneInputModule_t2760469101_CustomAttributesCacheGenerator_m_SubmitButtonP21CustomAttributesCache
VJ:__ZNK21UnityDefaultAllocatorI17LowLevelAllocatorE8ContainsEPKv
L4i:__ZNSt3__213__vector_baseI6pollfdNS_9allocatorIS1_EEED2Ev
Gid:_RuntimeTypeHandle_Equals_m2857439487
Zh:_emscripten_get_main_loop_timing
Hae:_SafeHandle_Finalize_m3866180675
lVa:__ZN24GenerateTypeTreeTransfer21TransferSTLStyleArrayINSt3__26vectorIN15QualitySettings14QualitySettingENS1_9allocatorIS4_EEEEEEvRT_17TransferMetaFlags
jQd:_MemoryStream_ToArray_m3911744835
xBe:_Enumerator_System_Collections_IDictionaryEnumerator_get_Entry_m859540448_AdjustorThunk
T_g:__Z72RuntimeInvoker_Boolean_t97287965_RaycastHitU26_t2429360258_RuntimeObjectPFvvEPK10MethodInfoPvPS4_
tHj:__ZN6il2cpp2os5Event4WaitEjb
eig:_Type_GetHashCode_m1947148725
WOg:__Z91RuntimeInvoker_Void_t1185182177_RuntimeObject_RuntimeObject_RuntimeObject_SByte_t1669577662PFvvEPK10MethodInfoPvPS4_
p8a:__ZNK2UI13RectTransform22GetTypeVirtualInternalEv
op:getTempRet0
nHf:_StrongName_get_Version_m4243032012
xre:_InternalEnumerator_1_MoveNext_m2234422530_gshared
E8i:__ZN6il2cpp2gc19AppendOnlyGCHashMapINSt3__24pairIPK14Il2CppAssemblyP11Il2CppClassEEP24Il2CppReflectionAssembly17ReflectionMapHashIS9_ENS2_8equal_toIS9_EEE10CopyValuesEPv
Z2c:_BaseRaycaster_OnEnable_m2678466030
JAe:_Enumerator_get_CurrentKey_m627428048_AdjustorThunk
vsg:_UnityEventBase__ctor_m1851535676
SLh:_Array_Sort_TisVector4_t3319028937_m2797285308_gshared
aTd:_UnexceptionalStreamWriter_Write_m1834931241
hqh:_Collection_1_System_Collections_IList_get_Item_m3314684800_gshared
_lj:__ZN6il2cpp6icalls8mscorlib6System9ThreadingL21lookup_cached_cultureEP12Il2CppThreadi
zDj:__ZN6il2cpp2os11EventHandleD2Ev
Srg:_NetFxCoreExtensions_CreateDelegate_m751211712
hJb:__ZN18DeferredRenderLoopD2Ev
_Vi:_AnimationLayerMixerPlayable__cctor_m4086299972
MS:__ZNK16TypeTreeIterator4NameEv
hMh:_Array_swap_TisUICharInfo_t75501106_m3934244159_gshared
_Q:__ZN15FileSystemEntry3SetEPKc
e_d:_ConstructorBuilder_Invoke_m3010446651
T7c:_AspectRatioFitter_get_aspectMode_m3735191157
T4e:_IPv6Address_set_ScopeId_m3907190992
fsh:_ReadOnlyCollection_1_System_Collections_Generic_IListU3CTU3E_Insert_m568455025_gshared
Uw:__ZN20SoundChannelInstance15ParameterBuffer5ApplyEPN4FMOD7ChannelE
H4e:_IPv6Address__ctor_m4117281080
Kai:__ZL88GameObject_t1113636619_CustomAttributesCacheGenerator_GameObject_SendMessage_m3720186693P21CustomAttributesCache
zOc:__ZN20TextRenderingPrivate19NativeTextGenerator9InsertTabEv
VMj:_sbrk
DYg:__Z66RuntimeInvoker_Boolean_t97287965_Vector2_t2156229523_RuntimeObjectPFvvEPK10MethodInfoPvPS4_
Hlh:_Collection_1_System_Collections_Generic_ICollectionU3CTU3E_get_IsReadOnly_m1032650589_gshared
J7f:_Enumerator_VerifyState_m3474272061_AdjustorThunk
$Qh:__ZL70IntPtr_t_CustomAttributesCacheGenerator_IntPtr_op_Explicit_m2520637223P21CustomAttributesCache
Ji:_glIsEnabled
P7a:__ZN15CacheWriterBaseD2Ev
KZd:_DerivedType__ctor_m1853298054
xeb:__Z25scripting_class_get_image17ScriptingClassPtr
vAd:_CaseInsensitiveComparer_Compare_m1224120810
u9f:_List_1_RemoveAt_m2730968292_gshared
N4a:__ZNSt3__26vectorIN4core12basic_stringIcNS1_20StringStorageDefaultIcEEEE13stl_allocatorIS5_L18MemLabelIdentifier13ELi16EEEC2INS_11__wrap_iterIPS5_EEEET_SE_RKS8_PNS_9enable_ifIXaasr21__is_forward_iteratorISE_EE5valuesr16is_constructibleIS5_NS_15iterator_traitsISE_E9referenceEEE5valueEvE4typeE
Ni:_emscripten_glDrawElementsInstanced
SPf:_Array_InternalArray__IEnumerable_GetEnumerator_TisSlot_t3975888750_m1869932007_gshared
KUe:_LayoutGroup_get_preferredWidth_m3816902260
$Ia:__ZN18JobBatchDispatcherD2Ev
k8a:__ZN9Transform17MainThreadCleanupEv
fCj:_GC_clear_hdr_marks
uXj:_emscripten_glCreateShader__wrapper
JCc:_cff_fd_select_get
s1e:_Text_set_resizeTextForBestFit_m4095249125
Q6e:_OidEnumerator_MoveNext_m3138911739
U0g:__Z53RuntimeInvoker_Boolean_t97287965_Keyframe_t4206410242PFvvEPK10MethodInfoPvPS4_
Yi:_emscripten_glGetShaderiv
Ux:__ZN4FMOD6System10getVersionEPj
KRc:__ZN2UI6Canvas23VirtualRedirectTransferER24GenerateTypeTreeTransfer
iPj:dynCall_viiiififfi
B$e:_Selectable_set_animationTriggers_m2970345687
Toh:_Collection_1_CopyTo_m4271769704_gshared
ajc:__ZN9JSONWrite8TransferIN4math12int2_storageEEEvRT_PKc17TransferMetaFlags
iNc:__ZN13TextRendering4Font13AwakeFromLoadE17AwakeFromLoadMode
nzf:_CompareInfo_LastIndexOf_m2688553706
Ewf:_Enum__ctor_m3602080049
hea:__ZN9GfxDevice21ReleaseSharedMeshDataEP14SharedMeshData
P5c:_MouseState__ctor_m1467839005
ZFi:_Uri_IsDomainAddress_m2867513594
W1a:__ZNSt3__27__sort5IRNS_6__lessINS_4pairIPKN5Unity4TypeE7Hash128EES8_EEPS8_EEjT0_SC_SC_SC_SC_T_
y3h:__ZL79Convert_t2465617642_CustomAttributesCacheGenerator_Convert_ToDouble_m2949593046P21CustomAttributesCache
Rcd:_Dropdown_CreateItem_m2954407740
mBj:_GC_unreachable_finalize_mark_proc
l8e:_X509Chain_ProcessCrlExtensions_m236234529
KCj:_maybe_finalize
C_i:__ZN6il2cpp2vm5Class40GetInterfaceInvokeDataFromVTableSlowPathEPK12Il2CppObjectPK11Il2CppClassj
iSf:_Array_InternalArray__IndexOf_TisLabelData_t360167391_m1826525656_gshared
F7b:__Z43RectTransform_CUSTOM_INTERNAL_get_anchorMaxP12Il2CppObjectP13Vector2fIcall
JSi:_TextGenerator_INTERNAL_CALL_Populate_Internal_cpp_m4171649399
Ode:_RealProxy_get_ObjectIdentity_m2790771985
$ce:_RemotingConfiguration_RegisterChannelTemplate_m3105688054
ITa:__ZN8Material28UpdateHashesOnPropertyChangeEN9ShaderLab16FastPropertyNameE
ykh:_Collection_1_System_Collections_IList_get_Item_m1368877441_gshared
tWh:__ZL56MethodBuilder_t2807316753_CustomAttributesCacheGeneratorP21CustomAttributesCache
Fcf:_Locale_GetText_m3520169047
t8b:__Z53Register_UnityEngine_SortingLayer_GetLayerValueFromIDv
bbi:__ZL85RectOffset_t1369453676_CustomAttributesCacheGenerator_RectOffset_set_right_m807318764P21CustomAttributesCache
pdb:__Z18Transfer_BlittableI14SafeBinaryReadLb1E8Vector4fEvRK29SerializationCommandArgumentsR31RuntimeSerializationCommandInfo
Z6i:_SessionStateChanged_EndInvoke_m3128001178
dA:__ZN11AudioSource12AddToManagerEv
aqj:__ZN6il2cpp2vm5Image13ClassFromNameEPK11Il2CppImagePKcS6_
zNj:dynCall_vdddddd
H8:__ZN24GenerateTypeTreeTransfer21TransferSTLStyleArrayINSt3__26vectorIN9ShaderLab14SerializedPassENS1_9allocatorIS4_EEEEEEvRT_17TransferMetaFlags
v_:__ZL32MarkLevelGameManagerDependenciesR27GarbageCollectorThreadState
Fga:__ZNK13GfxDeviceGLES26HasActiveRandomWriteTargetEv
skj:__GLOBAL__sub_I_Thread_cpp
YSh:__ZL54_MemberInfo_t3922476713_CustomAttributesCacheGeneratorP21CustomAttributesCache
oSj:_glGetActiveUniformsiv__wrapper
q8b:__Z43Register_UnityEngine_Material_EnableKeywordv
Zvg:_Mesh_GetIndices_m2873123901
lO:__ZN13MonoBehaviour19SetupScriptingCacheE17ScriptingClassPtrP10MonoScript
c5i:__ZNSt3__214__split_bufferIP12Il2CppThreadRNS_9allocatorIS2_EEED2Ev
ath:_ReadOnlyCollection_1_System_Collections_IList_get_Item_m1900827001_gshared
pWg:__Z106RuntimeInvoker_Void_t1185182177_Single_t1397266774_Single_t1397266774_Single_t1397266774_Int32_t2950945753PFvvEPK10MethodInfoPvPS4_
cbd:_FloatTween_set_targetValue_m3604919944_AdjustorThunk
AN:__ZN17PersistentManager29ReadAndActivateObjectThreadedEiRK26SerializedObjectIdentifierP14SerializedFilebb
Uxd:_ArrayList_get_IsReadOnly_m913775115
D5c:_PointerEventData_get_dragging_m746831934
Shg:_Type_get_TypeHandle_m160082026
Qxh:_ReadOnlyCollection_1_System_Collections_IEnumerable_GetEnumerator_m2781605075_gshared
_1:__ZZN15DirectorManager15InitializeClassEvEN52PreLateUpdateDirectorUpdateAnimationBeginRegistrator7ForwardEv
AMf:_Array_get_swapper_TisCustomAttributeNamedArgument_t287865710_m4254011335_gshared
Ved:_Graphic_RegisterDirtyMaterialCallback_m106898453
iIi:_GUILayoutEntry_get_margin_m3174861737
qya:__ZN4PPtrI6SpriteE8TransferI14SafeBinaryReadEEvRT_
L$f:_EqualityComparer_1_System_Collections_IEqualityComparer_Equals_m1672604045_gshared
qjj:__ZN15dense_hashtableINSt3__24pairIK10KeyWrapperIP11Il2CppClassES4_EES5_N6il2cpp8metadata16SZArrayClassHashEN14dense_hash_mapIS5_S4_SA_NS5_14EqualsComparerINS9_19SZArrayClassCompareEEENS0_9allocatorIS7_EEE9SelectKeyESE_SG_E16reset_thresholdsEv
Ddh:_List_1_GetEnumerator_m2095602005_gshared
Z7:__ZNSt3__26vectorIN9ShaderLab14SerializedPassENS_9allocatorIS2_EEE8__appendEj
i7:__ZNSt3__26vectorIN9ShaderLab20SerializedSubProgram13BufferBindingENS_9allocatorIS3_EEEC2INS_11__wrap_iterIPS3_EEEET_SB_RKS5_PNS_9enable_ifIXaasr21__is_forward_iteratorISB_EE5valuesr16is_constructibleIS3_NS_15iterator_traitsISB_E9referenceEEE5valueEvE4typeE
A6g:__Z37RuntimeInvoker_Enumerator_t3436819725PFvvEPK10MethodInfoPvPS4_
Oxg:_PlayableOutputHandle_op_Equality_m388301694
Sag:_Encoding_get_ISOLatin1_m2107621369
Ypc:__ZNK16PhysicsManager2D21GetAutoSyncTransformsEv
Mdf:_BigInteger_op_Inequality_m2697143438
Tbi:__ZL89Mathf_t3464937446_CustomAttributesCacheGenerator_Mathf_SmoothDamp_m394423605____maxSpeed4P21CustomAttributesCache
woc:__ZN12b2WheelJoint24SolveVelocityConstraintsERK12b2SolverData
XQh:__ZL72IntPtr_t_CustomAttributesCacheGenerator_IntPtr_op_Inequality_m3063970704P21CustomAttributesCache
myi:_SafeBag_get_ASN1_m2293701606
pTa:__ZN9Texture2D23VirtualRedirectTransferER18StreamedBinaryReadILb0EE
bxc:__ZN10Collider2D8TransferI24GenerateTypeTreeTransferEEvRT_
Mof:_DateTime_System_IConvertible_ToDouble_m2116720007_AdjustorThunk
lAd:_BitArrayEnumerator__ctor_m2359341397
W5f:_Enumerator_MoveNext_m1177880931_gshared
sRa:__ZNK12CubemapArray12GetDataWidthEv
Jxe:_DefaultComparer__ctor_m3288720761_gshared
w1g:__Z102RuntimeInvoker_Int32_t2950945753_RuntimeObject_Vector2_t2156229523_Int32_t2950945753_Int32_t2950945753PFvvEPK10MethodInfoPvPS4_
C$i:__ZN30dense_hashtable_const_iteratorINSt3__24pairIK10KeyWrapperIPKcEP11Il2CppClassEES5_N6il2cpp5utils11StringUtils12StringHasherIS4_EEN14dense_hash_mapIS5_S8_SE_NS5_14EqualsComparerINSB_13VmStringUtils21CaseSensitiveComparerEEENS0_9allocatorIS9_EEE9SelectKeyESJ_SL_E30advance_past_empty_and_deletedEv
chi:__ZL73g_UnityEngine_TextRenderingModule_Assembly_CustomAttributesCacheGeneratorP21CustomAttributesCache
IP:__ZN16ScriptingManager27NativeTypeForScriptingClassE17ScriptingClassPtr
Okg:_UInt64_System_IConvertible_ToDateTime_m3434604642
Nhg:_Type_get_IsSerializable_m1040556850
xHc:_get_sfnt_table
RKh:_Array_Resize_TisUIVertex_t4057497605_m1219201596_gshared
XVh:__ZL55StreamWriter_t1266378904_CustomAttributesCacheGeneratorP21CustomAttributesCache
_Vf:_Dictionary_2_System_Collections_ICollection_get_IsSynchronized_m256515291_gshared
xL:__ZN8Renderer20RendererAddedToSceneEv
CKb:__ZL22ScheduleSceneNodesJobsP25ScheduleSceneNodesJobDataj
Ok:_emscripten_set_canvas_size
Zdd:_Graphic_SetVerticesDirty_m2124914069
qzf:_CultureInfo__ctor_m3285927757
zWe:_MaskableGraphic_get_rootCanvasRect_m3492154629
MKh:_Array_Resize_TisRaycastResult_t3360306849_m1811054291_gshared
Osh:_ReadOnlyCollection_1_System_Collections_Generic_ICollectionU3CTU3E_get_IsReadOnly_m3152485890_gshared
D7:__ZNSt3__26vectorIN9ShaderLab20SerializedSubProgramENS_9allocatorIS2_EEE8__appendEj
DK:__ZN20DynamicHeapAllocatorI17LowLevelAllocatorE8AllocateEji
GJi:_Locale_GetText_m2427493201
wDb:__ZN20DynamicPropertySheet15SetVectorQueuedERKN9ShaderLab16FastPropertyNameERK8Vector4fN19ShaderPropertySheet8SetFlagsE
$Ka:__ZN31CanvasBatchIntermediateRendererD0Ev
Kue:_InternalEnumerator_1_System_Collections_IEnumerator_Reset_m996811230_AdjustorThunk
_La:__ZN14RenderSettings23VirtualRedirectTransferER19StreamedBinaryWriteILb0EE
WZd:_ConstructorBuilder_get_TypeBuilder_m2755629087
Qq:__ZN13dynamic_arrayI8Vector2fLj4EE9push_backERKS0_
zhc:__ZL26Transfer_SimpleNativeClassI9JSONWrite10RectOffsetLb0EEvRK29SerializationCommandArgumentsR31RuntimeSerializationCommandInfo
GBj:_GC_push_conditional
Ika:__ZN17GenericDynamicVBO10AllocateVBEjR21DynamicVBOChunkHandle
jsf:_DBNull_ToString_m3638608738
drj:__ZN30dense_hashtable_const_iteratorI10KeyWrapperIP18Il2CppGenericClassES3_N6il2cpp8metadata22Il2CppGenericClassHashEN14dense_hash_setIS3_S6_NS3_14EqualsComparerINS5_25Il2CppGenericClassCompareEEENSt3__29allocatorIS3_EEE8IdentityESA_SD_EppEv
iAd:_BitArray_Clone_m3537018332
rke:_ObjectRecord_UnchainFixup_m3191243952
Bwi:_TlsStream_get_CanWrite_m16389328
$Ug:__Z65RuntimeInvoker_RuntimeObject_RuntimeObject_Vector3U26_t3464235976PFvvEPK10MethodInfoPvPS4_
ml:_glMapBufferRange
hTa:__ZN9Texture2D8TransferI18StreamedBinaryReadILb0EEEEvRT_
D6b:__Z31Input_CUSTOM_GetMouseButtonDowni
TZb:__Z29AddCanvasIntermediateRendererPN2UI6CanvasEPNS_13CanvasBuffersEP17VertexDeclarationjRK10Matrix4x4ftRK4AABB4PPtrI8MaterialEi17ShadowCastingModebP6Camerab
KBb:__ZNK9Transform16GetLocalPositionEv
R9f:_EncoderExceptionFallbackBuffer_get_Remaining_m1573636148
xVd:_MonoType_get_BaseType_m1098640416
wza:__ZN13LoadOperation19IntegrateTimeSlicedEi
Uwi:_TlsStream_Read_m3392972801
Qga:__ZN13GfxDeviceGLES22DispatchComputeProgramE12ObjectHandleI18ComputeProgram_TagPvE15ComputeBufferIDj
Eyb:__ZN20DefaultGfxDeviceImpl32InitStereoGlobalsBuffersPlatformEiijPKv
zbg:_Latin1Encoding_GetString_m254210343
r6a:__Z17TransformAABBSlowRK4AABBRK10Matrix4x4fRS_
Fsd:_Array_combsort_m4052486289
JWa:__ZN15SerializeTraitsI13dynamic_arrayI12SpriteVertexLj4EEE19ResizeSTLStyleArrayERS2_i
C7g:_List_1_System_Collections_ICollection_get_SyncRoot_m314215814_gshared
_5:__ZN9ShaderLab21SerializedShaderState8TransferI14SafeBinaryReadEEvRT_
Fxf:_Environment_GetWindowsFolderPath_m1738399646
sih:_Queue_1_System_Collections_Generic_IEnumerableU3CTU3E_GetEnumerator_m2263220760_gshared
Ifh:_List_1_Sort_m378918663_gshared
KDc:_cf2_stack_pushInt
lQc:__ZNSt3__26__treeINS_12__value_typeIN20TextRenderingPrivate7FontRefEP11FT_FaceRec_EENS_19__map_value_compareIS3_S6_NS_4lessIS3_EELb1EEENS_9allocatorIS6_EEE7destroyEPNS_11__tree_nodeIS6_PvEE
qle:_U3CGetEnumeratorU3Ec__Iterator0_System_Collections_IEnumerator_get_Current_m3208659014_gshared
Z4d:_Module_GetCustomAttributes_m76573271
bkd:_CryptoConfig_EncodeOID_m2635914623
J8:__ZN15SerializeTraitsINSt3__24pairIN4core12basic_stringIcNS2_20StringStorageDefaultIcEEEES6_EEE8TransferI24GenerateTypeTreeTransferEEvRS7_RT_
IUj:b89
HUj:b88
fUj:b81
eUj:b80
mta:__ZN7ApiGLES19CreateSparseTextureEjj14GraphicsFormatiiiiRiS1_S1_
qQ:__ZN18ResourceImageGroup7CleanupEv
vUj:b85
uUj:b84
GUj:b87
Kdi:__ZL96Transform_t3600365921_CustomAttributesCacheGenerator_Transform_Rotate_m1660364534____relativeTo3P21CustomAttributesCache
Kp:__ZN11Quaternionf8TransferI24GenerateTypeTreeTransferEEvRT_
Dhe:_RemotingSurrogateSelector_GetSurrogate_m3900875713
XIf:_Single_IsNaN_m4024467661
lvh:_ReadOnlyCollection_1_System_Collections_IList_get_IsReadOnly_m3626439112_gshared
jhf:_CertificateValidationCallback_Invoke_m1014111289
tqh:__ZN23InterfaceActionInvoker2Ii19Vector2_t2156229523E6InvokeEjP11Il2CppClassP12Il2CppObjectiS0_
T_i:__ZN15dense_hashtableINSt3__24pairIK10KeyWrapperIPK11Il2CppClassEPKcEES6_N6il2cpp5utils11PointerHashIS3_EEN14dense_hash_mapIS6_S9_SE_NS6_14EqualsComparerINS0_8equal_toIS5_EEEENS0_9allocatorISA_EEE9SelectKeyESJ_SL_EC2ERKSO_j
$l:_glDeleteShader
Loa:__ZN6prcoreL17RemapGenericFloatI15TexFormatRGHalf16TexFormatRGFloatEEvPKNS_9InnerInfoE
DLh:_Array_Sort_TisUICharInfo_t75501106_m128665067_gshared
bGc:_otv_GSUB_validate
mDf:_RSAPKCS1SignatureDeformatter_SetHashAlgorithm_m1602190713
Iwf:_Enum_System_IConvertible_ToByte_m1219166845
XHe:_Dictionary_2_CopyToCheck_m45332585_gshared
jdh:_List_1_System_Collections_ICollection_get_IsSynchronized_m3630704857_gshared
uoe:_InternalEnumerator_1_System_Collections_IEnumerator_Reset_m4239728915_AdjustorThunk
P2b:__Z27scripting_add_internal_callPKcPKv
pph:__ZN21InterfaceFuncInvoker1Ib20UIVertex_t4057497605E6InvokeEjP11Il2CppClassP12Il2CppObjectS0_
Pej:__ZN13Il2CppHashMapINSt3__24pairIPK9EventInfoP11Il2CppClassEEj17ReflectionMapHashIS7_ENS0_8equal_toIS7_EENS0_9allocatorINS1_IK10KeyWrapperIS7_EjEEEEEC2EjRKS9_RKSB_
Vrj:__GLOBAL__sub_I_GarbageCollector_cpp
fV:__Z17GetPlayerSettingsv
P7:__ZNSt3__26vectorIN9ShaderLab20SerializedSubProgram16SamplerParameterENS_9allocatorIS3_EEE6assignIPS3_EENS_9enable_ifIXaasr21__is_forward_iteratorIT_EE5valuesr16is_constructibleIS3_NS_15iterator_traitsISA_E9referenceEEE5valueEvE4typeESA_SA_
R5d:_MonoField_get_FieldHandle_m3729647377
JZe:_ScrollRect_get_content_m2477524320
FBe:_Enumerator_MoveNext_m1556953412_AdjustorThunk
EWc:__Z44Register_UnityEngine_Canvas_get_pixelPerfectv
hXb:__ZN12CubemapArrayC2E10MemLabelId18ObjectCreationMode
cei:__ZL101RectTransform_t3704657025_CustomAttributesCacheGenerator_RectTransform_INTERNAL_set_pivot_m1160676233P21CustomAttributesCache
VTc:__ZN2UI14CanvasRenderer12SyncMaterialENS0_8SyncFlagE
SRd:_StreamWriter_Write_m1660535366
V2g:__Z66RuntimeInvoker_Void_t1185182177_Int32_t2950945753_Link_t3209266973PFvvEPK10MethodInfoPvPS4_
EFj:__ZN6il2cpp2vm9Parameter30GetDefaultParameterValueObjectEPK10MethodInfoPK13ParameterInfoPb
sdg:_UTF8Encoding_GetByteCount_m4152118078
w2g:__Z71RuntimeInvoker_Void_t1185182177_CustomAttributeNamedArgument_t287865710PFvvEPK10MethodInfoPvPS4_
_Ne:_KeyPairPersistence__CanSecure_m3516574278
rWf:_Dictionary_2_make_pair_m3116882385_gshared
FPg:__Z95RuntimeInvoker_Void_t1185182177_RuntimeObject_RuntimeObject_Int32_t2950945753_SByte_t1669577662PFvvEPK10MethodInfoPvPS4_
Bmd:_MD5CryptoServiceProvider_Dispose_m3502499818
Fmh:_Collection_1_System_Collections_IList_get_Item_m2422562729_gshared
WWg:__Z87RuntimeInvoker_Void_t1185182177_RuntimeObject_StringU26_t181565287_StringU26_t181565287PFvvEPK10MethodInfoPvPS4_
zze:_Comparer_1_get_Default_m1596450988_gshared
TRh:__ZL74RuntimeArray_CustomAttributesCacheGenerator_Array_BinarySearch_m3171087170P21CustomAttributesCache
sRh:__ZL72Enum_t4135868527_CustomAttributesCacheGenerator_Enum_ToObject_m122225012P21CustomAttributesCache
kIc:_UNITY_tt_face_done_kern
oif:_SecurityParameters_get_ServerWriteMAC_m3430427271
mji:__ZL90GUIStyle_t3956901511_CustomAttributesCacheGenerator_GUIStyle_get_stretchHeight_m4172805773P21CustomAttributesCache
Ule:_ArrayReadOnlyList_1_RemoveAt_m2104218585_gshared
_Za:__ZN12BoneWeights48TransferI24GenerateTypeTreeTransferEEvRT_
hQf:_Array_InternalArray__IEnumerable_GetEnumerator_TisParameterModifier_t1461694466_m3675077728_gshared
fri:__ZL60RawImage_t3182918964_CustomAttributesCacheGenerator_m_UVRectP21CustomAttributesCache
jvb:__Z19scripting_gc_enablev
ove:_InternalEnumerator_1_get_Current_m2907722321_gshared
kzb:__ZZ23InitPlayerLoopCallbacksvEN41InitializationPlayerUpdateTimeRegistrator7ForwardEv
z2b:__ZN11UTF16StringC2ERKS_10MemLabelId
CPb:__Z29StdTemplateConversionFunctionIihEbPvR14SafeBinaryRead
zwe:_InternalEnumerator_1_get_Current_m3792939945_AdjustorThunk
FVc:__Z55Register_UnityEngine_CanvasRenderer_DisableRectClippingv
zZa:__ZN14SafeBinaryRead21TransferSTLStyleArrayI13dynamic_arrayI11ColorRGBA32Lj4EEEEvRT_17TransferMetaFlags
kjb:__ZL26Transfer_SimpleNativeClassI24GenerateTypeTreeTransfer8GradientLb0EEvRK29SerializationCommandArgumentsR31RuntimeSerializationCommandInfo
Lqi:__ZL118U3CCaretBlinkU3Ec__Iterator0_t2589889038_CustomAttributesCacheGenerator_U3CCaretBlinkU3Ec__Iterator0_Reset_m1547565867P21CustomAttributesCache
Pwa:__ZN9GfxDevice22UploadTextureCubeArrayE9TextureIDPKhjii14GraphicsFormati18TextureUploadFlags
Vpe:_InternalEnumerator_1_System_Collections_IEnumerator_get_Current_m888718134_gshared
zLg:__Z175RuntimeInvoker_Void_t1185182177_SByte_t1669577662_SByte_t1669577662_SByte_t1669577662_SByte_t1669577662_SByte_t1669577662_SByte_t1669577662_SByte_t1669577662_SByte_t1669577662PFvvEPK10MethodInfoPvPS4_
Nwg:_Object_Destroy_m3118546832
Cpf:_DateTime_FromTicks_m4059645178_AdjustorThunk
XSh:__ZL67ICustomAttributeProvider_t1530824137_CustomAttributesCacheGeneratorP21CustomAttributesCache
ade:_ConfigHandler_ParseTime_m1787834288
Jaa:__ZN9ShaderLab7Program27CreateFromSerializedProgramERKNS_17SerializedProgramE10ShaderTypeiP16PropertyNamesSetPK6Shader
XXd:_Assembly_Load_m3487507613
pLa:__ZNSt3__27__sort4IRNS_6__lessIN4core12basic_stringIcNS2_20StringStorageDefaultIcEEEES6_EEPS6_EEjT0_SA_SA_SA_T_
eOj:dynCall_viiiifii
rdj:__ZN6il2cpp2gc19AppendOnlyGCHashMapINSt3__24pairIPK11Il2CppImageP11Il2CppClassEEP22Il2CppReflectionModule17ReflectionMapHashIS9_ENS2_8equal_toIS9_EEEC2Ev
QM:__Z20GetPersistentManagerv
ALc:_UNITY_TT_Set_Var_Design
lY:__ZN21SystemInfoStringCache16StaticInitializeEPv
w3h:__ZL80Convert_t2465617642_CustomAttributesCacheGenerator_Convert_ToDecimal_m1695757674P21CustomAttributesCache
C$e:_Selectable_get_targetGraphic_m559777690
gsh:_ReadOnlyCollection_1_System_Collections_Generic_ICollectionU3CTU3E_Remove_m1100818788_gshared
asj:__ZNK10KeyWrapperIP12Il2CppObjectE14EqualsComparerINSt3__28equal_toIS1_EEEclERKS2_S9_
c7:__ZNSt3__26vectorIN9ShaderLab20SerializedSubProgram15StructParameterENS_9allocatorIS3_EEE6assignIPS3_EENS_9enable_ifIXaasr21__is_forward_iteratorIT_EE5valuesr16is_constructibleIS3_NS_15iterator_traitsISA_E9referenceEEE5valueEvE4typeESA_SA_
prh:_Collection_1_IsSynchronized_m2291009199_gshared
ysb:__ZNK13MonoBehaviour7GetNameEv
u7a:__ZN19ScriptingInvocation28AdjustArgumentsToMatchMethodEv
dHh:_IndexedSet_1_Contains_m1525966688_gshared
Fu:__Z15_CheckFMODError11FMOD_RESULTPKciS1_
klj:__ZN6il2cpp6icalls8mscorlib6SystemL16ThrowInvalidCastEPK11Il2CppClassS5_
_Ja:__Z20RenderMultipleMeshesRK15RenderNodeQueueRK18RenderMultipleData17ShaderChannelMask
k1f:_EqualityComparer_1_get_Default_m79107703_gshared
e$c:__ZN11UnityEngine15PlatformWrapper20GetPlayerPrefsStringERKN4core12basic_stringIcNS1_20StringStorageDefaultIcEEEES5_
vWe:_MaskableGraphic_get_maskable_m1260382606
Vag:_Latin1Encoding__ctor_m498920120
Bgj:__ZN6il2cpp2vm4Type19GetGenericParameterEPK10Il2CppType
qRd:_StreamReader_Peek_m2272511193
wqf:_DateTimeFormatInfo_FillAllDateTimePatterns_m2683124783
eVc:__Z51Register_UnityEngine_CanvasGroup_get_blocksRaycastsv
qWd:_NumberFormatter_get_IsFloatingSource_m3714711779
Tnh:_Collection_1_System_Collections_IList_Add_m1403891193_gshared
Ape:_InternalEnumerator_1_System_Collections_IEnumerator_Reset_m169899350_AdjustorThunk
tig:_Type_GetConstructor_m1195697116
xd:_glBeginQuery
ddi:__ZL81Object_t631007953_CustomAttributesCacheGenerator_Object_set_hideFlags_m1648752846P21CustomAttributesCache
mVh:__ZL104RegionInfo_t1090270226_CustomAttributesCacheGenerator_RegionInfo_t1090270226____DisplayName_PropertyInfoP21CustomAttributesCache
izc:__ZN10Effector2D25CheckEffectorColliderMaskEP10Collider2DS1_
LAb:__ZN6Camera12RenderStereoENS_10RenderFlagE8CullFlagPNS_24PerformEyeRenderFunctionE
yab:__ZN20LocalFileSystemPosix10ToAbsoluteEPKc
PJa:__ZN20TierGraphicsSettings8TransferI19StreamedBinaryWriteILb0EEEEvRT_
HXj:b111
SX:__GLOBAL__sub_I_runtime_input_0_cpp
Gyj:__ZN6il2cpp2vm13ComObjectBase16DisconnectObjectEj
L2f:_GenericComparer_1__ctor_m3652072706_gshared
Gm:f0
eya:__ZN9BehaviourD0Ev
pJa:__Z32TransferEnumWithNameForceIntSizeI14SafeBinaryRead7HDRModeEvRT_RT0_PKc17TransferMetaFlags
CJj:_getcwd
Pqc:__ZN16b2CapsuleContact6CreateEP9b2FixtureiS1_iP16b2BlockAllocator
Hya:__ZN25ThreadsafeLinearAllocatorD2Ev
k2b:__ZL50GetAndClearChangedTransformsForMultilpleSystemsJobP45GetChangedTransformsForMultipleSystemsJobDatajPK23TransformAccessReadOnlyPKyj
I5a:__Z21SendMessageToEveryoneRK17MessageIdentifier11MessageData
G0:__ZN21BillboardBatchManager16StaticInitializeEPv
tof:_DateTime_AbsoluteDays_m4235097773
yZ:__ZN12_GLOBAL__N_138ArchiveRedirectFileSystemStaticDestroyEPv
JSh:__ZL126U3CGetEnumeratorU3Ec__Iterator0_t1202911786_CustomAttributesCacheGenerator_U3CGetEnumeratorU3Ec__Iterator0_Dispose_m2078994225P21CustomAttributesCache
LGg:__Z74RuntimeInvoker_RuntimeObject_RuntimeObject_RuntimeObject_SByte_t1669577662PFvvEPK10MethodInfoPvPS4_
TSh:__ZL69Type_t_CustomAttributesCacheGenerator_Type_GetConstructor_m1195697116P21CustomAttributesCache
Sbd:_DefaultControls_CreateScrollView_m3842770629
wRa:__ZN12CubemapArray34UpdateFileTextureUploadInstructionEP26FileAssetUploadInstructionj
gWh:__ZL94EnumBuilder_t2400448213_CustomAttributesCacheGenerator_EnumBuilder_GetConstructors_m3294436155P21CustomAttributesCache
b4g:__Z55RuntimeInvoker_TableRange_t3332867892_Int32_t2950945753PFvvEPK10MethodInfoPvPS4_
Nse:_InternalEnumerator_1_MoveNext_m1020308708_gshared
lta:__Z23CreateSparseTextureGLES9TextureIDii14GraphicsFormati
JGc:_otv_Anchor_validate
EBf:_Guid_CompareTo_m243656946_AdjustorThunk
pyf:_CCMath_mod_m3631663509
Xgg:_TimeSpan_Negate_m1889505500_AdjustorThunk
Dvh:_ReadOnlyCollection_1_System_Collections_ICollection_CopyTo_m2715087453_gshared
ili:__ZL84Canvas_t3310196443_CustomAttributesCacheGenerator_Canvas_get_scaleFactor_m3314757802P21CustomAttributesCache
$Ce:_Transform_1__ctor_m2810088858_gshared
hPc:__ZNSt3__23mapIN20TextRenderingPrivate7FontRefEP11FT_FaceRec_NS_4lessIS2_EENS_9allocatorINS_4pairIKS2_S4_EEEEEixERS9_
bBa:__ZN17ArchiveFileSystem10AddStorageEP20ArchiveStorageReader
wnc:__ZNK12b2MotorJoint16GetReactionForceEf
b4i:__ZN6il2cpp2vm13MetadataCache37GetParameterDefaultValueDataFromIndexEi
Ghj:_il2cpp_class_get_assemblyname
vQg:__Z50RuntimeInvoker_SByte_t1669577662_SByte_t1669577662PFvvEPK10MethodInfoPvPS4_
Eed:_Graphic_OnFillVBO_m1026749972
eZi:__ZN6il2cpp2vm5Class15GetEnumBaseTypeEP11Il2CppClass
vkf:_Context_set_WriteSequenceNumber_m942577065
ae:_glVertexAttrib4fv
Zyj:__ZNK6il2cpp5utils13VmStringUtils23CaseInsensitiveComparerclERKNSt3__212basic_stringIcNS3_11char_traitsIcEENS3_9allocatorIcEEEEPKc
_8c:_CanvasScaler_SetScaleFactor_m3006968999
j6g:__Z78RuntimeInvoker_Boolean_t97287965_Navigation_t3049316579_Navigation_t3049316579PFvvEPK10MethodInfoPvPS4_
ySa:__ZNK9Texture2D16GetNpotTexelSizeEv
mWd:_NumberFormatter_Init_m3576155222
zAa:__ZL33FileEntryInfoListToFolderContentsRKN4core12basic_stringIcNS_20StringStorageDefaultIcEEEERK19dynamic_block_arrayI13FileEntryInfoLj32EERNSt3__23setIS3_NSB_4lessIS3_EENSB_9allocatorIS3_EEEE
Lyd:_ArrayListWrapper_IndexOf_m3692065720
Wlg:__ZN23InterfaceActionInvoker1IP39UnhandledExceptionEventArgs_t2886101344E6InvokeEjP11Il2CppClassP12Il2CppObjectS1_
f3c:_EventSystem_set_sendNavigationEvents_m983981895
Xda:__ZN9GfxDevice22GetDefaultVertexBufferE26GfxDefaultVertexBufferTypej
eNf:_Array_InternalArray__ICollection_Contains_TisInt64_t3736567304_m2911357929_gshared
GAb:__ZNK6Camera16GetTargetDisplayEv
Smh:_Collection_1_Remove_m3022471627_gshared
UJj:___fseeko_unlocked
WWd:_Object_ToString_m1740002499
MJj:_sscanf
E4c:_ExecuteEvents_GetEventChain_m2404658789
iwb:__Z17BeginSplashScreenv
QKh:_Array_Resize_TisUILineInfo_t4195266810_m3763058392_gshared
xjd:_SByte_ToString_m3584531119_AdjustorThunk
A9:__ZN9ShaderLab16SerializedShader8TransferI19StreamedBinaryWriteILb0EEEEvRT_
Gtc:__ZNK4PPtrI7Joint2DEcvPS0_Ev
ss:__ZN7mecanim9animation18CreateAvatarMemoryEPKNS0_14AvatarConstantERNS_6memory9AllocatorE
Hwd:_Convert_ToInt32_m1876369743
kdf:_ModulusRing__ctor_m2420310199
XEd:_Convert_ToDateTime_m626620011
_Be:_Enumerator_System_Collections_IDictionaryEnumerator_get_Key_m2500634048_AdjustorThunk
kjj:__ZN14dense_hash_mapI10KeyWrapperIP11Il2CppClassES2_N6il2cpp8metadata16SZArrayClassHashENS3_14EqualsComparerINS5_19SZArrayClassCompareEEENSt3__29allocatorINSA_4pairIKS3_S2_EEEEE15set_deleted_keyERSD_
zlb:__Z18Transfer_BlittableI19StreamedBinaryWriteILb0EELb0EaEvRK29SerializationCommandArgumentsR31RuntimeSerializationCommandInfo
w8f:_List_1_Remove_m3037048099_gshared
qka:__ZN18GfxFramebufferGLES18GetFramebufferNameERK20GfxRenderTargetSetup
_Bj:_GC_print_block_list
Qfj:__ZN6il2cpp2vm14TypeNameParser12ParseVersionERKNSt3__212basic_stringIcNS2_11char_traitsIcEENS2_9allocatorIcEEEERtSB_SB_SB_
YSe:_InputField_MoveDown_m1455948167
Ndc:__Z30Event_Get_Custom_PropCharacterP12Il2CppObject
t2:__ZN13PlayableGraph27SchedulePlayableDestructionERK9HPlayable
UFc:_cff_get_mm_var
qRj:_glGetFramebufferAttachmentParameteriv__wrapper
Obe:_ChannelServices_GetCurrentChannelInfo_m3041604116
w$c:__Z13RegisterClassI20UnityConnectSettingsEvv
Pve:_InternalEnumerator_1__ctor_m2635640285_AdjustorThunk
ueb:__Z22scripting_array_length17ScriptingArrayPtr
cSd:_SynchronizedReader_Peek_m148942882
tKg:__Z95RuntimeInvoker_Void_t1185182177_RuntimeObject_Int32_t2950945753_Int32_t2950945753_RuntimeObjectPFvvEPK10MethodInfoPvPS4_
JRa:__ZN14SafeBinaryRead20TransferTypelessDataEjPvi
N$a:__ZN14SpriteRenderer18UpdateCachedSpriteEb
SMc:_Horizontal_Sweep_Init
yB:__ZN13dynamic_arrayI12SoundChannelLj4EE9push_backERKS0_
cV:__Z19GetActiveColorSpacev
MHc:_UNITY_tt_face_load_kern
t5d:_MonoMethodInfo_GetDeclaringType_m2924452727
uxb:__ZN13sorted_vectorINSt3__24pairIiN17InstancingBatcher12PropertyTypeEEEN10vector_mapIiS3_NS0_4lessIiEE13stl_allocatorIS4_L18MemLabelIdentifier1ELi16EEE13value_compareESA_E21sort_clear_duplicatesEv
FP:__Z6StrCmpPKcS0_
GJd:_NumberFormatter_AppendIntegerString_m2257376141
Rba:__Z21CheckGpuProgramUsable20ShaderGpuProgramType
GVb:__ZN13ProduceHelperI14Texture2DArrayLb0EE7ProduceE10MemLabelId18ObjectCreationMode
Gvj:__ZN6il2cpp2os9Directory20GetFileSystemEntriesERKNSt3__212basic_stringIcNS2_11char_traitsIcEENS2_9allocatorIcEEEESA_iiPi
prd:_Array_System_Collections_IList_Add_m1063688101
_qi:__ZL66Navigation_t3049316579_CustomAttributesCacheGenerator_m_SelectOnUpP21CustomAttributesCache
rOc:__ZN20TextRenderingPrivate19NativeTextGenerator5SetupEv
RHb:__ZNK15SharedLightData24GetFinalShadowResolutionEv
$Bi:_PatternCompiler_EmitAlternationEnd_m2444359097
Gai:__ZL91GameObject_t1113636619_CustomAttributesCacheGenerator_GameObject_get_activeSelf_m1767405923P21CustomAttributesCache
b3a:__ZN12AspectRatios8TransferI18StreamedBinaryReadILb0EEEEvRT_
JZb:__ZN10GameObject14CopyPropertiesERS_
Bec:__Z44Register_UnityEngine_GUIStyle_get_fixedWidthv
cOf:_Array_InternalArray__ICollection_Remove_TisLink_t544317964_m1280781374_gshared
cvj:__ZNSt3__214__split_bufferIN6il2cpp2os10ThreadImpl10APCRequestERNS_9allocatorIS4_EEEC2EjjS7_
Mtd:_BitConverter_DoubleWordsAreSwapped_m1474345095
qYg:__Z114RuntimeInvoker_Int32_t2950945753_Vector2_t2156229523_Vector2_t2156229523_ContactFilter2D_t3805203441_RuntimeObjectPFvvEPK10MethodInfoPvPS4_
$Va:__ZNK13ScreenManager12IsFullScreenEv
czd:_FixedSizeArrayListWrapper_set_Capacity_m4221053039
nKj:_rand
URj:_emscripten_glFramebufferRenderbuffer__wrapper
s0b:__ZN13MeshScripting10CreateMeshE21ScriptingObjectOfTypeI4MeshE
bIh:_ListPool_1__cctor_m3480273184_gshared
MWg:__Z56RuntimeInvoker_Void_t1185182177_PropertyName_t3749835189PFvvEPK10MethodInfoPvPS4_
k4c:__ZN23InterfaceActionInvoker1IP25BaseEventData_t3903027533E6InvokeEjP11Il2CppClassP12Il2CppObjectS1_
pyg:_Quaternion_INTERNAL_CALL_Internal_ToEulerRad_m1913372122
qfb:__ZN14SafeBinaryRead21TransferSTLStyleArrayINSt3__26vectorI17AnimationCurveTplIfE13stl_allocatorIS4_L18MemLabelIdentifier1ELi16EEEEEEvRT_17TransferMetaFlags
Hzd:_SynchronizedArrayListWrapper_Contains_m3809499313
pOf:_Array_InternalArray__ICollection_Remove_TisLabelData_t360167391_m3556246844_gshared
wbj:__ZN15dense_hashtableINSt3__24pairIK10KeyWrapperINS1_IPK11Il2CppImageP11Il2CppClassEEEjEES9_17ReflectionMapHashIS8_EN14dense_hash_mapIS9_jSD_NS9_14EqualsComparerINS0_8equal_toIS8_EEEENS0_9allocatorISB_EEE9SelectKeyESI_SK_E12expand_arrayEjN21dense_hash_map_traits17integral_constantIbLb0EEE
$ld:_HMACSHA256__ctor_m346174875
wpg:_Color_op_Multiply_m2887457390
GNi:__ZL25UnresolvedVirtualCall_107P12Il2CppObjectS0_S0_iiPK10MethodInfo
lKb:__Z22PrepareOptimizedPlanesPK5PlaneiPKN4math7_float4E
Ipe:_InternalEnumerator_1__ctor_m1559487635_gshared
rJ:__ZN11UnityEngine15CloudWebService17WebFileDownloaderINS0_20WebRequestRestClientENS0_23WebRequestRestHeaderMapEE10InitializeERKN4core12basic_stringIcNS5_20StringStorageDefaultIcEEEE
E0:__ZN17UniqueIDGenerator15CreatePureIndexEv
nr:__ZN11UnityEngine9Animation28GenericAnimationBindingCache15DidReloadDomainEv
HOi:__ZL25UnresolvedVirtualCall_162P12Il2CppObject39CustomAttributeNamedArgument_t287865710S1_PK10MethodInfo
T3a:__ZNSt3__26vectorIN15ResourceManager10DependencyE13stl_allocatorIS2_L18MemLabelIdentifier52ELi16EEE6assignINS_11__wrap_iterIPS2_EEEENS_9enable_ifIXaasr21__is_forward_iteratorIT_EE5valuesr16is_constructibleIS2_NS_15iterator_traitsISC_E9referenceEEE5valueEvE4typeESC_SC_
tYi:__ZN15dense_hashtableINSt3__24pairIK10KeyWrapperIPK22Il2CppGenericParameterEP11Il2CppClassEES6_N6il2cpp5utils11PointerHashIS4_EEN14dense_hash_mapIS6_S9_SE_NS6_14EqualsComparerINS0_8equal_toIS5_EEEENS0_9allocatorISA_EEE9SelectKeyESJ_SL_E14squash_deletedEv
HOa:__ZN9ShaderLabL27GetDesiredRenderTextureDescEPK6Camera
$ue:_InternalEnumerator_1_get_Current_m1523142935_AdjustorThunk
lpc:__ZNK12b2MouseJoint17GetReactionTorqueEf
xIh:_Array_InternalArray__Insert_TisMark_t3471605523_m2854535880_gshared
ana:__ZN6prcoreL29inner_stretch_rgb565_bilinearEPKNS_9InnerInfoE
Xbc:__Z14GUIClipTextureP9Texture2DPhiiii
Lhi:__ZL52HumanBone_t2465339518_CustomAttributesCacheGeneratorP21CustomAttributesCache
hdi:__ZL81Scene_t2348375561_CustomAttributesCacheGenerator_Scene_GetNameInternal_m992487900P21CustomAttributesCache
khe:_MethodReturnDictionary__cctor_m278392388
yM:__ZNK9Transform18TransformDirectionERK8Vector3f
Fvi:_SslStreamBase_get_CanWrite_m1622082918
PBa:__ZNK17ArchiveFileSystem12GetAssetGUIDERK13FileEntryData
Jba:__ZNSt3__26vectorIN9ShaderLab20SerializedSubProgram15MatrixParameterENS_9allocatorIS3_EEE21__push_back_slow_pathIKS3_EEvRT_
Gsi:__ZL80CanvasScaler_t2767979955_CustomAttributesCacheGenerator_m_ReferencePixelsPerUnitP21CustomAttributesCache
uGc:_otv_MarkLigPos_validate
vLe:_PrimalityTests_RabinMillerTest_m1471415870
y5f:_Enumerator_MoveNext_m2114485647_gshared
b1d:_GenericTypeParameterBuilder_GetCustomAttributes_m580748276
L2i:__ZN15dense_hashtableINSt3__24pairIK10KeyWrapperIPK11Il2CppClassEPKcEES6_N6il2cpp5utils11PointerHashIS3_EEN14dense_hash_mapIS6_S9_SE_NS6_14EqualsComparerINS0_8equal_toIS5_EEEENS0_9allocatorISA_EEE9SelectKeyESJ_SL_E12resize_deltaEjj
ZLj:__ZNK10__cxxabiv120__si_class_type_info27has_unambiguous_public_baseEPNS_19__dynamic_cast_infoEPvi
Ut:__ZN9AudioClip23VirtualRedirectTransferER14SafeBinaryRead
pdf:_Kernel_LeftShift_m4140742987
KXd:_Assembly_GetManifestResourceInternal_m1224391897
Mka:__Z30AddDefaultStreamsToMeshBuffersR9GfxDeviceR11MeshBuffersj17ShaderChannelMaskS3_
hZ:__ZL16GetInterfaceImpl18UnityInterfaceGUID
xZi:__ZN6il2cpp2vmL17SetupFieldOffsetsENS0_15FieldLayoutKindEP11Il2CppClassjRKNSt3__26vectorIjNS4_9allocatorIjEEEE
vyj:__ZN6il2cpp6icalls8mscorlib6System15MonoCustomAttrs27GetCustomAttributesInternalEP12Il2CppObjectP20Il2CppReflectionTypeb
Zb:invoke_viifi
XLc:_UNITY_TT_Set_MM_Blend
TX:__GLOBAL__sub_I_runtime_math_random_0_cpp
Hui:_InternalAsyncResult_get_FromWrite_m4228047810
JNg:__Z53RuntimeInvoker_MonoEventInfo_t346866618_RuntimeObjectPFvvEPK10MethodInfoPvPS4_
Dph:_Collection_1_CopyTo_m955200729_gshared
vwb:__ZN14PreloadManager35WaitForAllAsyncOperationsToCompleteEv
Y0f:_EqualityComparer_1__ctor_m1138336971_gshared
FO:__ZNK18ScriptingObjectPtr17ToScriptingStringEv
mw:__ZL31InitializeAudioScriptingClassesv
FBb:__Z14SortGUIByDepthP10GUIElementS0_
DY:__ZN13RuntimeStaticI13dynamic_arrayIPK31TransferFunctionScriptingTraitsLj4EELb0EE16StaticInitializeEPv
TTg:__Z69RuntimeInvoker_UInt32_t2560061978_Int32_t2950945753_SByte_t1669577662PFvvEPK10MethodInfoPvPS4_
HGi:_UriParser__cctor_m3655686731
AVe:_LayoutRebuilder_U3Cs_RebuildersU3Em__0_m589488547
H5g:__Z53RuntimeInvoker_KeyValuePair_2_t71524366_RuntimeObjectPFvvEPK10MethodInfoPvPS4_
_ab:__ZNK20LocalFileSystemPosix21GetAvailableDiskSpaceEPKcRy
rY:__ZNSt3__26__treeIiNS_4lessIiEENS_9allocatorIiEEE7destroyEPNS_11__tree_nodeIiPvEE
qda:__ZNK9GfxDevice14GetWorldMatrixEv
Tkc:__ZN8JSONRead8TransferI8Vector2fEEvRT_PKc17TransferMetaFlagsb
nEg:_Transform_set_parent_m786917804
nxj:__ZN15dense_hashtableINSt3__24pairIK10KeyWrapperIPK19Il2CppGenericMethodEP10MethodInfoEES6_N6il2cpp8metadata23Il2CppGenericMethodHashEN14dense_hash_mapIS6_S9_SD_NS6_14EqualsComparerINSC_26Il2CppGenericMethodCompareEEENS0_9allocatorISA_EEE9SelectKeyESH_SJ_E13set_empty_keyERKSA_
u0e:_Slider_get_value_m739683640
o9a:__Z19scripting_array_new17ScriptingClassPtrjj
mB:__ZN11SoundHandle13CreateChannelEb
qfg:_WaitCallback_BeginInvoke_m3012509827
_Ta:__ZN14SafeBinaryRead21TransferSTLStyleArrayI13dynamic_arrayI12LightmapDataLj4EEEEvRT_17TransferMetaFlags
L7:__ZNSt3__26vectorIN9ShaderLab20SerializedSubProgram16TextureParameterENS_9allocatorIS3_EEE6assignIPS3_EENS_9enable_ifIXaasr21__is_forward_iteratorIT_EE5valuesr16is_constructibleIS3_NS_15iterator_traitsISA_E9referenceEEE5valueEvE4typeESA_SA_
m1i:__ZN13Il2CppHashMapIN6il2cpp5utils13dynamic_arrayIPK10Il2CppTypeLj4EEEPFvvENS0_8metadata19Il2CppSignatureHashENS9_22Il2CppSignatureCompareENSt3__29allocatorINSC_4pairIK10KeyWrapperIS6_ES8_EEEEEC2EjRKSA_RKSB_
k7b:__Z51Quaternion_CUSTOM_INTERNAL_CALL_Internal_ToEulerRadRK11QuaternionfR8Vector3f
UKg:__Z122RuntimeInvoker_Void_t1185182177_RuntimeObject_RuntimeObject_ContractionU5BU5DU26_t2277527001_Level2MapU5BU5DU26_t359320357PFvvEPK10MethodInfoPvPS4_
Zdj:__ZN15dense_hashtableINSt3__24pairIK10KeyWrapperIPK22Il2CppGenericParameterEPK24MonoGenericParameterInfoEES6_N6il2cpp5utils11PointerHashIS4_EEN14dense_hash_mapIS6_SA_SF_NS6_14EqualsComparerINS0_8equal_toIS5_EEEENS0_9allocatorISB_EEE9SelectKeyESK_SM_E15set_deleted_keyERKSB_
vjd:_SByte_TryParse_m2431806379
K5h:__ZL64ObjectDisposedException_t21392786_CustomAttributesCacheGeneratorP21CustomAttributesCache
uSb:__ZN6prcoreL11inner_clearILj2EEEvPhjjj
mai:__ZL92Debug_t3317548046_CustomAttributesCacheGenerator_Debug_LogWarningFormat_m1153215311____args2P21CustomAttributesCache
Zkd:_DSACryptoServiceProvider_get_KeySize_m786836990
xoc:__ZN12b2WheelJoint24SolvePositionConstraintsERK12b2SolverData
Ng:_emscripten_exit_fullscreen
VWd:_Object_MemberwiseClone_m1474068832
nuj:__ZN6il2cpp6icalls8mscorlib6System6String19InternalAllocateStrEi
_lc:__Z29Transfer_Blittable_ArrayFieldI8JSONRead11QuaternionfEvRT_R9ArrayInfoRK23StaticTransferFieldInfo
Hab:__ZN20LocalFileSystemPosix8SetFlagsER13FileEntryDatajj
L4b:__Z45Register_UnityEngine_Camera_get_targetDisplayv
UXb:__ZNK24RendererAnimationBinding15GenerateBindingERKN4core12basic_stringIcNS0_20StringStorageDefaultIcEEEEbRN11UnityEngine9Animation14GenericBindingE
X4e:_IPv6Address__ctor_m3704187391
_Bb:__Z15GetFlareManagerv
sTb:__ZN15ApplicationInfo24GetApplicationIdentifierEv
$xa:__ZN9Behaviour8TransferI18StreamedBinaryReadILb0EEEEvRT_
fs:__ZN8Animator13GetAvatarRootEv
GTf:_Array_InternalArray__ICollection_Add_TisResourceCacheItem_t51292791_m3851804827_gshared
pIj:___toread
Cub:__ZNSt3__26vectorI10vector_mapIiiNS_4lessIiEE13stl_allocatorINS_4pairIiiEEL18MemLabelIdentifier38ELi16EEES4_IS9_LS7_38ELi16EEE26__swap_out_circular_bufferERNS_14__split_bufferIS9_RSA_EE
Ncf:_BigInteger_get_Rng_m3283260184
AMj:___cxa_is_pointer_type
Zs:__ZN8Animator22ScriptingStringToCRC32ERK11ICallString
s6h:__ZL55EventHandler_t1348719766_CustomAttributesCacheGeneratorP21CustomAttributesCache
A6c:_RaycastResult_ToString_m2678663776_AdjustorThunk
PNh:_Array_InternalArray__get_Item_TisKeyValuePair_2_t2530217319_m2886833132_gshared
P_e:_ScrollRect_OnEndDrag_m3202230060
O9b:__Z34Transform_CUSTOM_SetAsFirstSiblingP12Il2CppObject
N8i:__ZNK15dense_hashtableINSt3__24pairIK10KeyWrapperINS1_IPK14Il2CppAssemblyP11Il2CppClassEEEjEES9_17ReflectionMapHashIS8_EN14dense_hash_mapIS9_jSD_NS9_14EqualsComparerINS0_8equal_toIS8_EEEENS0_9allocatorISB_EEE9SelectKeyESI_SK_E10test_emptyEj
NKg:__Z63RuntimeInvoker_Void_t1185182177_RuntimeObject_SByte_t1669577662PFvvEPK10MethodInfoPvPS4_
Mei:__ZL57SetupCoroutine_t2062820429_CustomAttributesCacheGeneratorP21CustomAttributesCache
NSe:_InputField_Delete_m3471899192
L4h:__ZL79Convert_t2465617642_CustomAttributesCacheGenerator_Convert_ToUInt64_m1627266664P21CustomAttributesCache
sZh:__ZL91UrlAttribute_t221584584_CustomAttributesCacheGenerator_UrlAttribute_IsContextOK_m1228378186P21CustomAttributesCache
$be:_RemotingConfiguration_get_ProcessId_m2180277012
oT:__ZN17PersistentManager40GlobalToLocalSerializedFileIndexInternalERK26SerializedObjectIdentifier
oG:__ZN11UnityEngine15CloudWebService17SessionEventQueue14ParseEventDataERKN4core12basic_stringIcNS2_20StringStorageDefaultIcEEEE
Qia:__ZN13TranslateGLES4InitERK12GraphicsCaps16GfxDeviceLevelGL
vrb:__Z29Transfer_Blittable_ArrayFieldI18StreamedBinaryReadILb0EE10ColorRGBAfEvRT_R9ArrayInfoRK23StaticTransferFieldInfo
M7i:_NativeTypeAttribute_set_CodegenOptions_m3839252515
W$f:_EqualityComparer_1_get_Default_m180770000_gshared
qLd:_Int64_System_IConvertible_ToUInt16_m848637338_AdjustorThunk
Tpi:__ZL74GraphicRaycaster_t2999697109_CustomAttributesCacheGenerator_m_BlockingMaskP21CustomAttributesCache
XRf:_Array_InternalArray__IndexOf_TisLink_t544317964_m455584088_gshared
bih:_Enumerator_get_Current_m2282646120_AdjustorThunk
rvh:_ReadOnlyCollection_1_IndexOf_m2539022912_gshared
YOe:_KeyGeneratedEventHandler__ctor_m1990062371
Ori:__ZL66Selectable_t3250028441_CustomAttributesCacheGenerator_m_TransitionP21CustomAttributesCache
iGj:__ZN6il2cpp2os6Memory12AlignedAllocEjj
A1e:_Text_set_alignByGeometry_m3828822280
Tzj:__ZN6il2cpp8metadataL7CompareEPK10Il2CppTypeS3_
qhb:__Z18Transfer_BlittableI17RemapPPtrTransferLb0E11ColorRGBA32EvRK29SerializationCommandArgumentsR31RuntimeSerializationCommandInfo
c2e:_HybridDictionary__ctor_m1681134385
$R:__ZN21ScalableBufferManager11GetInstanceEv
Npb:__Z18Transfer_BlittableI18StreamedBinaryReadILb0EELb1E10ColorRGBAfEvRK29SerializationCommandArgumentsR31RuntimeSerializationCommandInfo
oRa:__ZN12CubemapArray23VirtualRedirectTransferER17RemapPPtrTransfer
fhg:_TimeSpan_op_LessThan_m1594498345
V2b:__ZL27GetComponentsImplementationILb0ELi0EEbR10GameObjectbRK17CompareParametersRK39GetComponentsImplementation_ReturnValue
ktb:__ZN9Scripting36IsSystemCollectionsGenericDictionaryE17ScriptingClassPtr
hGh:_UnityEvent_1_FindMethod_Impl_m322741469_gshared
WZh:__ZL92ConstructionCallDictionary_t686578562_CustomAttributesCacheGenerator_U3CU3Ef__switchU24map24P21CustomAttributesCache
isi:__ZL64Slider_t3903728902_CustomAttributesCacheGenerator_m_WholeNumbersP21CustomAttributesCache
EEg:_Enumerator_get_Current_m2591725252
UQ:__ZL16ReadTypeTreeImplILb0EEbR8TypeTreeRK16TypeTreeIteratorRPKhS6_i
ncf:_Interval_Contains_m110351300_AdjustorThunk
OFd:_Convert_ToInt32_m3048308591
Oti:__ZL77LayoutUtility_t2745813735_CustomAttributesCacheGenerator_U3CU3Ef__amU24cache6P21CustomAttributesCache
PXe:_RectMask2D_OnCanvasHierarchyChanged_m3195492255
yrf:_DateTimeOffset_Equals_m3030958070
pMa:__ZNK22BuiltinResourceManager21GetResourceInstanceIDEPKN5Unity4TypeERKN4core12basic_stringIcNS4_20StringStorageDefaultIcEEEE
u6b:__Z42Register_UnityEngine_RectOffset_set_bottomv
cnc:__ZN10Effector2D5ResetEv
kec:__Z28GUIStyleState_CUSTOM_CleanupP12Il2CppObject
ipf:_DateTimeFormatInfo_GetMonthName_m2034512315
KDb:__ZN28LightProbeProxyVolumeContext8CopyFromERKS_
zob:__ZN18StreamedBinaryReadILb1EE8TransferI13dynamic_arrayI8BitFieldLj4EEEEvRT_PKc17TransferMetaFlags
$vh:_ReadOnlyCollection_1_System_Collections_Generic_IListU3CTU3E_Insert_m2489506856_gshared
DW:__ZN23TransformChangeDispatch32QueueTransformChangeIfHasChangedER18TransformHierarchy
nJe:_SimpleCollator_ToDashTypeValue_m6184468
Ira:__ZN7ApiGLES18DeleteRenderbufferERj
kqa:__ZL23ProgramUniformMatrix4fvPK7ApiGLESjiihPKv
Rra:__ZN7ApiGLES13CreateTextureEjj14GraphicsFormatiiiii
Ksd:_Array_new_gap_m262136975
p7:__ZN9ShaderLab20SerializedSubProgram15MatrixParameter8TransferI14SafeBinaryReadEEvRT_
X2b:__ZL27GetComponentsImplementationILb0ELi1EEbR10GameObjectbRK17CompareParametersRK39GetComponentsImplementation_ReturnValue
q8e:_X509Store__ctor_m275383717
UJe:_SimpleCollator_LastIndexOfOrdinalIgnoreCase_m2984667899
GKc:_Round_Down_To_Grid
Dsa:__ZN13RenderTexture7ReleaseEv
xjc:__Z18Transfer_BlittableI8JSONReadLb1EN4math12int3_storageEEvRK29SerializationCommandArgumentsR31RuntimeSerializationCommandInfo
V_a:__ZN10MeshFilter23VirtualRedirectTransferER14SafeBinaryRead
nti:__ZL64LayoutGroup_t2436138090_CustomAttributesCacheGenerator_m_PaddingP21CustomAttributesCache
Jod:_X509CertificateEnumerator_MoveNext_m2269241175
d$a:__ZN12MeshRenderer17MainThreadCleanupEv
iZi:__ZN6il2cpp2vmL10InitLockedEP11Il2CppClassRKNS_2os12FastAutoLockE
xva:__ZN22CreateGpuProgramOutput12CreateParamsEv
xx:__ZN10ObjectPoolIN4FMOD7ChannelENS0_8ChannelIEE7GetFreeEi
Y6g:__Z96RuntimeInvoker_RuntimeObject_CustomAttributeNamedArgument_t287865710_RuntimeObject_RuntimeObjectPFvvEPK10MethodInfoPvPS4_
kdd:_FontData_get_font_m2720086288
xqe:_InternalEnumerator_1_System_Collections_IEnumerator_get_Current_m548105685_gshared
Gia:__ZNK14GfxContextGLES13GetDefaultFBOEv
U3g:__Z99RuntimeInvoker_Void_t1185182177_UILineInfoU5BU5DU26_t2468919161_Int32_t2950945753_Int32_t2950945753PFvvEPK10MethodInfoPvPS4_
ivd:_Byte_System_IConvertible_ToType_m2251112646
Soh:_Collection_1_Contains_m692247505_gshared
WZg:__Z81RuntimeInvoker_Char_t3634460470_RuntimeObject_Int32_t2950945753_Int16_t2552820387PFvvEPK10MethodInfoPvPS4_
Hpf:_DateTime_get_Hour_m4153505178_AdjustorThunk
ARi:_AudioExtensionManager_WriteExtensionProperties_m3028464154
RGf:_Evidence_Equals_m1478353107
qAi:_CostDelegate__ctor_m4027655829
x$b:__Z13GetImagePixelI10ColorRGBAfET_PKhii13TextureFormat15TextureWrapModeS5_ii
ubh:_List_1_System_Collections_IList_set_Item_m1842844683_gshared
kIh:_ObjectPool_1__ctor_m2535233435_gshared
PGh:_EventFunction_1__ctor_m4292798223_gshared
Ikj:__ZN6il2cpp2vm6Thread49CheckCurrentThreadForInterruptAndThrowIfNecessaryEv
Szf:_CultureInfo_construct_datetime_format_m1928121315
kV:__ZNSt3__23mapIN9ShaderLab16FastPropertyNameEN18UnityPropertySheet11UnityTexEnvENS_4lessIS2_EENS_9allocatorINS_4pairIKS2_S4_EEEEEixERS9_
Lqa:__ZNK13TranslateGLES25GetTextureTargetDimensionEj
wXd:_RankException__ctor_m3453633632
Fzh:_Comparison_1__ctor_m533218197_gshared
_3g:__Z96RuntimeInvoker_Void_t1185182177_Vector3U5BU5DU26_t3038522815_Int32_t2950945753_Int32_t2950945753PFvvEPK10MethodInfoPvPS4_
yth:_ReadOnlyCollection_1_System_Collections_IList_Remove_m1842121503_gshared
eOd:_File_OpenRead_m2936789020
a9b:__Z47Texture2D_CUSTOM_INTERNAL_CALL_GetPixelBilinearP12Il2CppObjectffR10ColorRGBAf
BDd:_Enumerator_get_Entry_m3561948123
oXg:__Z94RuntimeInvoker_Void_t1185182177_RuntimeObject_PlayableGraph_t3515989261_RuntimeObject_IntPtr_tPFvvEPK10MethodInfoPvPS4_
Oi:_emscripten_glVertexAttrib4f
Mwe:_InternalEnumerator_1_System_Collections_IEnumerator_Reset_m4072625129_AdjustorThunk
mba:__ZNSt3__26vectorIN20GpuProgramParameters14ConstantBufferENS_9allocatorIS2_EEE8__appendEj
_8e:_X509CertificateCollection_AddRange_m3683116910
yte:_InternalEnumerator_1_Dispose_m1837758743_AdjustorThunk
ice:_SinkProviderData__ctor_m1624738837
WEb:__ZN11HaloManager21ReleaseGeometryJobMemEP25DynamicVBOGeometryJobData
UNd:_DirectoryNotFoundException__ctor_m1689636868
qZg:__Z88RuntimeInvoker_RuntimeObject_RuntimeObject_SByte_t1669577662_RuntimeObject_RuntimeObjectPFvvEPK10MethodInfoPvPS4_
Sth:_ReadOnlyCollection_1_System_Collections_Generic_IListU3CTU3E_get_Item_m978644313_gshared
Nph:_Collection_1_get_Item_m2253972692_gshared
l3d:_RefEmitPermissionSet_t484390987_marshal_pinvoke_cleanup
lZd:_CustomAttributeTypedArgument_Equals_m2261980307
Yfa:__ZN9GfxDevice18SetGlobalDepthBiasEff
t5i:__ZN6il2cpp6icalls8mscorlib6System8MonoType12get_AssemblyEP20Il2CppReflectionType
SPd:_IsolatedStorageException__ctor_m3386787868
F3d:_TypeBuilder_MakeGenericType_m2799607032
Ao:FUNCTION_TABLE_vi
Jyh:_ReadOnlyCollection_1_IndexOf_m3669095250_gshared
aj:_emscripten_glGetPointerv
IMh:_Dictionary_2_Do_CopyTo_TisKeyValuePair_2_t3842366416_TisRuntimeObject_m1564656153_gshared
Zqj:__ZN15dense_hashtableI10KeyWrapperIP18Il2CppGenericClassES3_N6il2cpp8metadata22Il2CppGenericClassHashEN14dense_hash_setIS3_S6_NS3_14EqualsComparerINS5_25Il2CppGenericClassCompareEEENSt3__29allocatorIS3_EEE8IdentityESA_SD_E5clearEv
Yvb:__Z26ApplyMaterialPassWithCacheRK18SharedMaterialDataR17ShaderPassContextP6ShaderPN9ShaderLab4PassEibPKNS6_10GrabPassesEPNS6_11SubProgramsEPK22DeviceRenderStateBlock
aRg:__Z55RuntimeInvoker_DateTime_t3738529785_TimeSpan_t881159249PFvvEPK10MethodInfoPvPS4_
TVd:_MulticastDelegate_KPM_m22863605
due:_InternalEnumerator_1_get_Current_m1897120917_AdjustorThunk
rVd:_MonoType_ReorderParamArrayArguments_m2458683451
Rje:_FormatterConverter_ToInt16_m4282804414
KOg:__Z81RuntimeInvoker_Void_t1185182177_Int64_t3736567304_RuntimeObject_Int64_t3736567304PFvvEPK10MethodInfoPvPS4_
e7c:_StandaloneInputModule_ProcessTouchPress_m4019232747
$Nd:_FileStream__ctor_m3151488352
Jsd:_Array_swap_m547389985
BT:__ZN8Renderer23VirtualRedirectTransferER14SafeBinaryRead
Fkg:_UInt32_ToString_m2420423038
s8g:_List_1_System_Collections_IList_Add_m634558835_gshared
Cyh:_ReadOnlyCollection_1_System_Collections_IList_get_IsFixedSize_m1923250479_gshared
Pli:__ZL105CanvasRenderer_t2598313366_CustomAttributesCacheGenerator_CanvasRenderer_set_popMaterialCount_m1224846275P21CustomAttributesCache
DOd:_FileStream_get_Length_m426703983
EFe:_Enumerator__ctor_m1558933899_AdjustorThunk
Q7h:__ZL88BigInteger_t2902905090_CustomAttributesCacheGenerator_BigInteger_op_Implicit_m3414367033P21CustomAttributesCache
sZi:__ZN6il2cpp2vmL15GetBitmapNoInitEP11Il2CppClassPjRjj
Dfh:_List_1_Remove_m2092085040_gshared
dRb:__ZL13MotionHandleriPK27EmscriptenDeviceMotionEventPv
Uv:__ZN12AudioManager5ResetEv
THg:__Z67RuntimeInvoker_Boolean_t97287965_RuntimeObject_SByteU26_t3619038962PFvvEPK10MethodInfoPvPS4_
YIg:__Z143RuntimeInvoker_Boolean_t97287965_RuntimeObject_Int32_t2950945753_RuntimeObject_SByte_t1669577662_DoubleU26_t1739162597_ExceptionU26_t3600731591PFvvEPK10MethodInfoPvPS4_
Kth:_ReadOnlyCollection_1_get_Count_m1336304542_gshared
Wti:__ZL111LayoutUtility_t2745813735_CustomAttributesCacheGenerator_LayoutUtility_U3CGetPreferredHeightU3Em__6_m3049688934P21CustomAttributesCache
Xoa:__ZN6prcoreL17RemapGenericFloatI17TexFormatRGBAHalf15TexFormatRGHalfEEvPKNS_9InnerInfoE
Mdj:__ZNK15dense_hashtableINSt3__24pairIK10KeyWrapperIPK14Il2CppAssemblyEPK22Il2CppMonoAssemblyNameEES6_N6il2cpp5utils11PointerHashIS4_EEN14dense_hash_mapIS6_SA_SF_NS6_14EqualsComparerINS0_8equal_toIS5_EEEENS0_9allocatorISB_EEE9SelectKeyESK_SM_E10test_emptyEj
wwj:__ZN6il2cpp6icalls8mscorlib6System11Environment20GetWindowsFolderPathEi
rEd:_Convert_ToBoolean_m2833752130
TKi:_Toggle_GraphicUpdateComplete_m2285510719
PEc:_UNITY_FT_RoundFix
AF:__ZN23CloudWebServicesManager23VirtualRedirectTransferER17RemapPPtrTransfer
fDj:_GC_is_heap_ptr
kMe:_ASN1_DecodeTLV_m1200977460
Csg:_UnityEventBase_PrepareInvoke_m1785382128
dwh:_ReadOnlyCollection_1_System_Collections_Generic_IListU3CTU3E_set_Item_m1584697503_gshared
Z3d:__ZN23InterfaceActionInvoker2IP12Il2CppObjectP20Delegate_t1188392813E6InvokeEjP11Il2CppClassS1_S1_S3_
f$a:__ZNK12MeshRenderer22GetTypeVirtualInternalEv
Uwd:_Char_System_IConvertible_ToUInt32_m3901815580
UYe:_Scrollbar_set_onValueChanged_m346467699
tzc:__ZN13ProduceHelperI13BoxCollider2DLb0EE7ProduceE10MemLabelId18ObjectCreationMode
iRg:__Z157RuntimeInvoker_Int32_t2950945753_RuntimeObject_Int32_t2950945753_Int32_t2950945753_Int32_t2950945753_SByte_t1669577662_SByte_t1669577662_Int32U26_t1369213839PFvvEPK10MethodInfoPvPS4_
QHh:_ListPool_1_Release_m957266927_gshared
I_h:__ZL105ConfigHandler_t4192437216_CustomAttributesCacheGenerator_ConfigHandler_ValidatePath_m3895556516____paths1P21CustomAttributesCache
HMe:_BitConverterLE_ToInt16_m1855092160
S5:__ZN14SafeBinaryRead19TransferSTLStyleMapINSt3__23mapIN4core12basic_stringIcNS3_20StringStorageDefaultIcEEEES7_NS1_4lessIS7_EE13stl_allocatorINS1_4pairIKS7_S7_EEL18MemLabelIdentifier1ELi16EEEEEEvRT_17TransferMetaFlags
xTc:__ZN2UI6Canvas27UpdateEventIndexesRecursiveERi
uG:__ZN11UnityEngine15CloudWebService16SessionContainer21PrepareDataErrorEventERN4core12basic_stringIcNS2_20StringStorageDefaultIcEEEE
s4c:_ExecuteEvents_get_pointerUpHandler_m3515704212
Pxd:_ArrayList_set_Item_m2003485935
lxj:__ZNSt3__218uninitialized_copyIPNS_4pairIK10KeyWrapperIPK19Il2CppGenericMethodEP10MethodInfoEESB_EET0_T_SD_SC_
v9d:_SatelliteContractVersionAttribute__ctor_m3630863995
I4h:__ZL79Convert_t2465617642_CustomAttributesCacheGenerator_Convert_ToUInt64_m3102114524P21CustomAttributesCache
l6c:_MouseButtonEventData_PressedThisFrame_m1060658845
T1c:_AxisEventData_get_moveVector_m270528189
Vlb:__Z19TransferField_ArrayI19StreamedBinaryWriteILb0EE27Converter_SimpleNativeClassI8GUIStyleEEvRK23StaticTransferFieldInfoR31RuntimeSerializationCommandInfoRT0_
vBb:__Z27SetClippingPlaneShaderPropsR9GfxDevice
Rth:_ReadOnlyCollection_1_System_Collections_Generic_IListU3CTU3E_RemoveAt_m3969985996_gshared
nii:__ZL83AudioSource_t3935305588_CustomAttributesCacheGenerator_AudioSource_Play_m3389845180P21CustomAttributesCache
dUj:_emscripten_glCopyTexSubImage2D__wrapper
UVa:__ZNK13ScreenManager12GetIsFocusedEv
gfd:_GraphicRegistry_GetGraphicsForCanvas_m4219276355
HPd:__ZN23InterfaceActionInvoker3IP22ByteU5BU5D_t4116647657iiE6InvokeEjP11Il2CppClassP12Il2CppObjectS1_ii
FJd:_NumberFormatter_FastToDecHex_m699829267
vBi:_PatternCompiler_MakeFlags_m1977119795
ljc:__Z35Transfer_Blittable_FixedBufferFieldI8JSONReadiEvRK29SerializationCommandArgumentsR31RuntimeSerializationCommandInfo
Y9:__ZN15SerializeTraitsIN9ShaderLab16FastPropertyNameEE8TransferI19StreamedBinaryWriteILb0EEEEvRS1_RT_
p$h:__ZL59StreamingContext_t3711869237_CustomAttributesCacheGeneratorP21CustomAttributesCache
w4i:__ZNSt3__213__vector_baseIN6il2cpp2os19SocketHandleWrapperENS_9allocatorIS3_EEED2Ev
_Sh:__ZL48_Type_t3588564251_CustomAttributesCacheGeneratorP21CustomAttributesCache
Fpi:__ZL81FontUpdateTracker_t1839077620_CustomAttributesCacheGenerator_U3CU3Ef__mgU24cache0P21CustomAttributesCache
gc:invoke_viiffi
oVh:__ZL103RegionInfo_t1090270226_CustomAttributesCacheGenerator_RegionInfo_t1090270226____NativeName_PropertyInfoP21CustomAttributesCache
rLd:_Int64_System_IConvertible_ToUInt32_m109903525
fG:__ZNSt3__26__treeINS_12__value_typeIN4core12basic_stringIcNS2_20StringStorageDefaultIcEEEEjEENS_19__map_value_compareIS6_S7_NS_4lessIS6_EELb1EEE13stl_allocatorIS7_L18MemLabelIdentifier88ELi16EEE4findIS6_EENS_15__tree_iteratorIS7_PNS_11__tree_nodeIS7_PvEEiEERKT_
bfc:__ZN5Unity9rapidjson13GenericReaderINS0_4UTF8IcEES3_13JSONAllocatorE10ParseFalseILj0ENS0_19GenericStringStreamIS3_EENS0_15GenericDocumentIS3_S4_S4_EEEEvRT0_RT1_
Vug:_Mathf_CeilToInt_m432108984
lRa:__ZNK12CubemapArray20GetRuntimeMemorySizeEv
Qgg:_TimeSpan_FromHours_m1109641064
hUi:_playerHealth_Die_m7015727
n8:__Z14resize_trimmedINSt3__26vectorIN9ShaderLab18SerializedPropertyENS0_9allocatorIS3_EEEEEvRT_j
Ngb:__Z18Transfer_BlittableI17RemapPPtrTransferLb0EN4math12int3_storageEEvRK29SerializationCommandArgumentsR31RuntimeSerializationCommandInfo
uve:_InternalEnumerator_1__ctor_m4124630986_gshared
s2i:__ZN6il2cpp2vm13MetadataCache38GetMethodInfoFromMethodDefinitionIndexEi
d3c:_EventSystem_set_current_m38955169
Uke:_TypeMetadata__ctor_m646635308
wAi:_CostDelegate_EndInvoke_m2797921932
SWa:__ZN10VertexData8TransferI24GenerateTypeTreeTransferEEvRT_
jwf:_Double_IsInfinity_m820013146
eud:__ZN21InterfaceFuncInvoker1I19Decimal_t2948259380P12Il2CppObjectE6InvokeEjP11Il2CppClassS2_S2_
Swj:__ZN13Il2CppHashMapIPK19Il2CppGenericMethodP10MethodInfoN6il2cpp8metadata23Il2CppGenericMethodHashENS6_26Il2CppGenericMethodCompareENSt3__29allocatorINS9_4pairIK10KeyWrapperIS2_ES4_EEEEEC2EjRKS7_RKS8_
g8g:_List_1_TrimExcess_m440552561_gshared
SBg:_Screen_get_dpi_m495672463
rdg:_UTF8Encoding_InternalGetByteCount_m2120178851
HJb:__ZL10CullLightsRK22SceneCullingParametersR11CullResults
qHd:_Convert_ToUInt64_m3170916409
nEh:_InvokableCall_3__ctor_m4245235439_gshared
eLd:_Int64_System_IConvertible_ToInt16_m4062196970_AdjustorThunk
NVd:_MonoType_GetGenericTypeDefinition_m3201894896
pSb:__Z40GetTemporaryCachePathApplicationSpecificv
cea:__ZN9GfxDevice16EndAsyncJobFrameEv
X_g:__Z99RuntimeInvoker_Int32_t2950945753_Ray_t3785851493_RuntimeObject_Single_t1397266774_Int32_t2950945753PFvvEPK10MethodInfoPvPS4_
hcj:__ZNK15dense_hashtableINSt3__24pairIK10KeyWrapperINS1_IPK12PropertyInfoP11Il2CppClassEEEjEES9_17ReflectionMapHashIS8_EN14dense_hash_mapIS9_jSD_NS9_14EqualsComparerINS0_8equal_toIS8_EEEENS0_9allocatorISB_EEE9SelectKeyESI_SK_E10test_emptyERK30dense_hashtable_const_iteratorISB_S9_SD_SM_SI_SK_E
FHc:_UNITY_tt_face_load_hhea
Z_d:_DerivedType_get_Assembly_m2979298667
Yk:___syscall3
mYg:__Z135RuntimeInvoker_RaycastHit2D_t2279581989_Vector2_t2156229523_Vector2_t2156229523_Single_t1397266774_Int32_t2950945753_Single_t1397266774PFvvEPK10MethodInfoPvPS4_
$k:___syscall6
zfa:__ZN9GfxDevice15GetNextCPUFenceEv
bl:___syscall4
tH:__ZN11UnityEngine15CloudWebService20WebRequestRestClient17GetResponseStatusEv
Fhe:_ReturnMessage__ctor_m2352989078
lMg:__Z99RuntimeInvoker_Void_t1185182177_RuntimeObject_Int32_t2950945753_SByte_t1669577662_SByte_t1669577662PFvvEPK10MethodInfoPvPS4_
Vbb:__ZNSt3__26__treeINS_12__value_typeIN4core12basic_stringIcNS2_20StringStorageDefaultIcEEEEPN16MemoryFileSystem4NodeEEENS_19__map_value_compareIS6_SA_NS_4lessIS6_EELb1EEE13stl_allocatorISA_L18MemLabelIdentifier55ELi16EEE7destroyEPNS_11__tree_nodeISA_PvEE
xRh:__ZL70RuntimeArray_CustomAttributesCacheGenerator_Array_get_Length_m21610649P21CustomAttributesCache
Hsj:__ZN6il2cpp2vm3RCW14QueryInterfaceILb1EEEP14Il2CppIUnknownP15Il2CppComObjectRK10Il2CppGuid
Hjf:_TlsServerCertificateRequest__ctor_m1334974076
Isc:__ZNSt3__26__sortIR24RayHitsByDepthComparitorP12RaycastHit2DEEvT0_S5_T_
QFd:_Convert_ToInt32_m1613163543
A4g:__Z52RuntimeInvoker_TimeSpan_t881159249_Int32_t2950945753PFvvEPK10MethodInfoPvPS4_
qWe:_MatEntry__ctor_m1949610076
rth:_ReadOnlyCollection_1_System_Collections_ICollection_CopyTo_m3127175806_gshared
rl:_emscripten_glShaderBinary
zgi:__ZL80Logger_t274032455_CustomAttributesCacheGenerator_U3ClogEnabledU3Ek__BackingFieldP21CustomAttributesCache
HH:__ZN15DownloadHandler19OnFinishReceiveDataEv
Mjg:_UInt16_ToString_m760649087
Sab:__ZNK20LocalFileSystemPosix6ExistsERK13FileEntryData
LRg:__Z21RuntimeInvoker_Guid_tPFvvEPK10MethodInfoPvPS4_
aUg:__Z46RuntimeInvoker_CipherAlgorithmType_t1174400495PFvvEPK10MethodInfoPvPS4_
Wog:_Camera_GetAllCameras_m668492922
PWc:__Z58Register_UnityEngine_Canvas_GetETC1SupportedCanvasMaterialv
ehg:_TimeSpan_op_Inequality_m2467851530
sob:__ZN17AnimationCurveTplIfE8TransferI18StreamedBinaryReadILb1EEEEvRT_
gge:__ZN28GenericInterfaceFuncInvoker1IP12Il2CppObjectP23HeaderU5BU5D_t204812840E6InvokeEPK10MethodInfoS1_S3_
ILh:_Array_Sort_TisUIVertex_t4057497605_m3996333845_gshared
dFf:_ToBase64Transform_get_CanReuseTransform_m702204640
kZc:__ZN18UnityConnectClientD2Ev
KWg:__Z53RuntimeInvoker_PropertyName_t3749835189_RuntimeObjectPFvvEPK10MethodInfoPvPS4_
btd:_Swapper_BeginInvoke_m1688449973
grg:_Display_get_renderingWidth_m1970428952
lEa:__ZN16LevelGameManager23VirtualRedirectTransferER19StreamedBinaryWriteILb0EE
eUg:__Z81RuntimeInvoker_Void_t1185182177_RuntimeObject_Int32_t2950945753_Int64_t3736567304PFvvEPK10MethodInfoPvPS4_
NWa:__Z32TransferEnumWithNameForceIntSizeI14SafeBinaryRead16GfxPrimitiveTypeEvRT_RT0_PKc17TransferMetaFlags
SQ:__ZN13dynamic_arrayIcLj1EE6insertEPcPKcS3_
MNi:__ZL25UnresolvedVirtualCall_113P12Il2CppObjecttaaPK10MethodInfo
Wei:__ZL92Mesh_t3648964284_CustomAttributesCacheGenerator_Mesh_SetTriangles_m2205169959____baseVertex3P21CustomAttributesCache
e2g:__Z52RuntimeInvoker_Int32_t2950945753_HitInfo_t3229609740PFvvEPK10MethodInfoPvPS4_
mPg:__Z86RuntimeInvoker_Boolean_t97287965_Int16_t2552820387_Int16_t2552820387_Int32_t2950945753PFvvEPK10MethodInfoPvPS4_
f3h:__ZL80Convert_t2465617642_CustomAttributesCacheGenerator_Convert_ToBoolean_m2807110707P21CustomAttributesCache
fRh:__ZL72Enum_t4135868527_CustomAttributesCacheGenerator_Enum_GetName_m2151614395P21CustomAttributesCache
hHh:_IndexedSet_1_IndexOf_m241693686_gshared
oYc:__ZN11UnityEngine15PlatformWrapper30GetGraphicsDriverLibraryStringEv
Aid:_RuntimeMethodHandle_Equals_m3301340296_AdjustorThunk
blg:_UInt64_System_IConvertible_ToSingle_m925613075_AdjustorThunk
tMi:__ZL24UnresolvedVirtualCall_40P12Il2CppObjectS0_PK10MethodInfo
jIh:_ListPool_1__cctor_m704263611_gshared
Opb:__Z18Transfer_BlittableI18StreamedBinaryReadILb0EELb0E4AABBEvRK29SerializationCommandArgumentsR31RuntimeSerializationCommandInfo
Y3a:__ZN24GenerateTypeTreeTransfer19TransferSTLStyleMapINSt3__28multimapIN4core12basic_stringIcNS3_20StringStorageDefaultIcEEEE4PPtrI6ObjectENS1_4lessIS7_EE13stl_allocatorINS1_4pairIKS7_SA_EEL18MemLabelIdentifier52ELi16EEEEEEvRT_17TransferMetaFlags
Is:__ZN16MecanimAnimation24DeleteAnimatedPropertiesERP26IAnimatedPropertyEvaluator
gVi:_CanvasRenderer_SetMaterial_m824577244
pAb:__Z14DrawGUITextureRK5RectTIfEP7Texture11ColorRGBA32P8Materiali
Zai:__ZL84RectOffset_t1369453676_CustomAttributesCacheGenerator_RectOffset_Cleanup_m2552807639P21CustomAttributesCache
Nth:_ReadOnlyCollection_1_System_Collections_Generic_ICollectionU3CTU3E_Add_m2686599243_gshared
cBb:__ZN22RenderingCommandBuffer20ExecuteCommandBufferER17ShaderPassContextR15RenderNodeQueuejP13dynamic_arrayINSt3__24pairIN9ShaderLab16FastPropertyNameEP13RenderTextureEELj4EE16ComputeQueueTypeSA_
AEg:_Transform_IsChildOf_m224006092
Src:__ZNK11b2EdgeShape7RayCastEP15b2RayCastOutputRK14b2RayCastInputRK11b2Transformi
Wic:__ZN9JSONWrite8TransferI4AABBEEvRT_PKc17TransferMetaFlags
n6:__ZN15dense_hashtableINSt3__24pairIKiN4core17string_with_labelILi1EEEEEi18SInt32HashFunctionN14dense_hash_mapIiS5_S7_NS0_8equal_toIiEE13stl_allocatorIS6_L18MemLabelIdentifier1ELi16EEE9SelectKeyESA_SD_E12expand_arrayEjN21dense_hash_map_traits17integral_constantIbLb0EEE
K2g:__Z58RuntimeInvoker_Void_t1185182177_ContactPoint2D_t3390240644PFvvEPK10MethodInfoPvPS4_
k8f:_List_1_Clear_m2154023298_gshared
MMi:__ZL24UnresolvedVirtualCall_59P12Il2CppObjectiPK10MethodInfo
O1c:_AbstractEventData_get_used_m2991176710
f$g:__Z94RuntimeInvoker_Void_t1185182177_ObjectU5BU5DU26_t712384779_Int32_t2950945753_Int32_t2950945753PFvvEPK10MethodInfoPvPS4_
Nuc:__ZN10Collider2D13AwakeFromLoadE17AwakeFromLoadMode
DMh:_Dictionary_2_Do_ICollectionCopyTo_TisRuntimeObject_m1855083806_gshared
kKi:_Aes__ctor_m178909601
oSa:__ZNK9Texture2D20GetRuntimeMemorySizeEv
Bac:__ZN11Marshalling39CreateNullExceptionForUnityEngineObjectE18ScriptingObjectPtr
afc:__ZN5Unity9rapidjson13GenericReaderINS0_4UTF8IcEES3_13JSONAllocatorE9ParseTrueILj0ENS0_19GenericStringStreamIS3_EENS0_15GenericDocumentIS3_S4_S4_EEEEvRT0_RT1_
xdh:_List_1_Clear_m2003943277_gshared
zm:_emscripten_glUniform2iv
G3f:_Enumerator_Dispose_m1204547613_AdjustorThunk
kCc:_UNITY_FT_Outline_Transform
Mhf:_CipherSuite_get_ExchangeAlgorithmType_m1633709183
LZi:__ZN6il2cpp2vm5Class10GetMethodsEP11Il2CppClassPPv
A0c:__ZNK25UnityWebRequestJavaScript17GetUploadProgressEv
FFb:__Z30AddDefaultStreamsToMeshBuffersR9GfxDeviceR11MeshBuffersRK16DrawBuffersRange17ShaderChannelMaskS6_
P9g:_List_1_GetEnumerator_m1430071802_gshared
Wqa:__ZN7ApiGLES17DeleteFramebufferERN2gl6HandleILNS0_10ObjectTypeE9EEES3_
zua:__ZN15UniformTFMethod13MapBoneBufferEj
sSc:__ZN2UI14CanvasRendererD2Ev
gOh:_Array_InternalArray__get_Item_TisParameterModifier_t1461694466_m29553316_gshared
wLd:_Int64_CompareTo_m1928360444_AdjustorThunk
Wub:__Z9SetupArgviPPKc
eGd:_Convert_ToInt64_m2075031821
E6a:__ZN13dynamic_arrayIP10UnitySceneLj4EE9push_backERKS1_
Ure:_InternalEnumerator_1__ctor_m236665673_gshared
YUj:_glTexParameteri__wrapper
kT:__ZN12ImmediatePtrI10GameObjectE8TransferI19StreamedBinaryWriteILb0EEEEvRT_
pRa:__ZN12CubemapArray23VirtualRedirectTransferER24GenerateTypeTreeTransfer
yR:__ZN12FileAccessor4OpenER15FileSystemEntry14FilePermission16FileAutoBehavior
xJa:__ZNSt3__26vectorI4PPtrI6ShaderE13stl_allocatorIS3_L18MemLabelIdentifier53ELi16EEE8__appendEj
Fvj:__ZN6il2cpp2os9Directory6CreateERKNSt3__212basic_stringIcNS2_11char_traitsIcEENS2_9allocatorIcEEEEPi
d9:__ZN4PPtrI6ShaderE8TransferI18StreamedBinaryReadILb0EEEEvRT_
CW:__ZN23TransformChangeDispatch32QueueTransformChangeIfHasChangedERK15TransformAccess
BQa:__ZNSt3__26vectorINS_4pairIN9ShaderLab16FastPropertyNameEN18UnityPropertySheet11UnityTexEnvEEENS_9allocatorIS6_EEE21__push_back_slow_pathIKS6_EEvRT_
jCa:__ZN15ArchiveReadFile5WriteEyPKvPy
GXd:_Assembly_get_FullName_m293988418
pAc:__ZN22WorldContactListener2D8PreSolveEP9b2ContactPK10b2Manifold
jUi:_powerupBehavior__ctor_m2917725924
B:tempValue
pQb:__Z29StdTemplateConversionFunctionIaiEbPvR14SafeBinaryRead
UGj:__ZN6il2cpp8metadata24Il2CppGenericContextHash4HashEPK20Il2CppGenericContext
lse:_InternalEnumerator_1_get_Current_m356936020_AdjustorThunk
Sph:_Collection_1_CheckWritable_m1583234367_gshared
LKd:_Int32_ToString_m141394615_AdjustorThunk
Tyd:_ArrayListWrapper_CopyTo_m498486826
yNd:_Directory_GetCurrentDirectory_m219218555
qpd:_SmallXmlParser_UnexpectedEndError_m1914362401
W_h:__ZL61FormatterTypeStyle_t3400733584_CustomAttributesCacheGeneratorP21CustomAttributesCache
Nja:__ZN14DelayedDeletorI15dense_hashtableINSt3__24pairIK9TextureIDiEES3_14GfxGenericHashIS3_EN14GfxDoubleCacheIS3_iS7_NS1_8equal_toIS3_EEN31GfxDoubleCacheConcurrencyPolicy11LocklessGetE42GfxDoubleCacheDefaultEmptyDeletedGeneratorIS3_EE9SelectKeyESA_13stl_allocatorIS5_L18MemLabelIdentifier24ELi16EEEEclEv
DB:__ZN11AudioSource19CreateOpenALRolloffEfff
zHc:_UNITY_FT_Stream_ReadAt
dgg:_TimeSpan__ctor_m1896986612_AdjustorThunk
H0f:_EqualityComparer_1_System_Collections_IEqualityComparer_Equals_m1907027006_gshared
Lnd:_ArgumentException__ctor_m1216717135
Uyg:_Ray_ToString_m1732834890_AdjustorThunk
EQi:__ZL25UnresolvedVirtualCall_267P12Il2CppObject17Scene_t2348375561S1_PK10MethodInfo
rd:_glReadBuffer
kbh:_List_1_System_Collections_IList_Contains_m3860993176_gshared
pC:__ZN11AudioModule22CreateAudioClipFromWWWEP10IWWWStreamPKcbbi
fXb:__ZN9Texture2DC2E10MemLabelId18ObjectCreationMode
Xi:_emscripten_glRotatef
Qjg:_UInt32_System_IConvertible_ToBoolean_m1763673183_AdjustorThunk
JBg:_SceneManager_INTERNAL_CALL_GetActiveScene_m1427626561
wsg:_UnityEvent_AddListener_m2276267359
dVg:__Z35RuntimeInvoker_RangeInt_t2094684618PFvvEPK10MethodInfoPvPS4_
_ng:_Bounds_get_extents_m1304537151
wSb:__ZN6prcoreL11inner_clearILj4EEEvPhjjj
Gge:_MethodCall_get_Args_m148309537
hhe:_DictionaryEnumerator_get_Value_m2166220004
YQi:_PCMReaderCallback_BeginInvoke_m3391809637
r5h:__ZL72LoaderOptimization_t1484956347_CustomAttributesCacheGenerator_DomainMaskP21CustomAttributesCache
LJg:__Z74RuntimeInvoker_Void_t1185182177_RuntimeObject_StreamingContext_t3711869237PFvvEPK10MethodInfoPvPS4_
ryg:_Quaternion_Euler_m3049309462
s2:__ZNK8Playable6HandleEv
lRe:_SetPropertyUtility_SetColor_m2229203028
xMj:___cxa_guard_abort
eBe:_Enumerator_MoveNext_m481679286_gshared
EP:__ZN14MessageHandler28MessageIDToMessageIdentifierEi
mXa:__ZNK11SpriteAtlas20GetRuntimeRenderDataEPK6Sprite
oNd:_FileSystemInfo__ctor_m3035148496
tng:_AssetBundleCreateRequest_t3119663542_marshal_pinvoke_cleanup
bKd:_Int32_System_IConvertible_ToDecimal_m2190376994_AdjustorThunk
k4f:_KeyValuePair_2_set_Key_m2121548577_AdjustorThunk
$4g:__Z46RuntimeInvoker_RefEmitPermissionSet_t484390987PFvvEPK10MethodInfoPvPS4_
OWg:__Z57RuntimeInvoker_PropertyName_t3749835189_Int32_t2950945753PFvvEPK10MethodInfoPvPS4_
aPc:__ZN20TextRenderingPrivate15DynamicFontData36GetFaceForCharacterIfAvailableInFontERKNS_7FontRefERK13dynamic_arrayI4PPtrIN13TextRendering4FontEELj4EEj
kt:__Z51Register_UnityEngine_Animator_get_hasBoundPlayablesv
olh:_Collection_1_CopyTo_m3142835220_gshared
Jd:emscriptenWebGLGetUniform
Bo:FUNCTION_TABLE_iiiiiiiiiii
xHi:_GUI_CallWindowDelegate_m3309453386
DGe:_ValueCollection_System_Collections_IEnumerable_GetEnumerator_m2535969909_gshared
SFc:_cff_set_mm_blend
uyb:__ZN19GfxThreadableDevice15OnDeviceCreatedEb
oLb:__ZL10CleanUpJobP20CullingGroupsJobData
EFb:__Z20IsRunningNativeTestsv
jNd:_DirectoryInfo_get_Exists_m3142069876
x1a:__ZN11TimeManager23VirtualRedirectTransferER17RemapPPtrTransfer
gAb:__ZN13RenderManager15BatchModeUpdateEv
QBh:_Predicate_1__ctor_m327447107_gshared
n8e:_X509Chain_get_CertificateAuthorities_m804805415
wWa:__ZN14SafeBinaryRead21TransferSTLStyleArrayI13dynamic_arrayI8Vector2fLj4EEEEvRT_17TransferMetaFlags
kWh:__ZL123GenericTypeParameterBuilder_t1988827940_CustomAttributesCacheGenerator_GenericTypeParameterBuilder_IsSubclassOf_m2266644074P21CustomAttributesCache
nT:__ZN17PersistentManager51InstanceIDToLocalSerializedObjectIdentifierInternalEiR31LocalSerializedObjectIdentifier
YAg:_Vector2_get_one_m738793577
Iwc:__ZN10ClipperLib7Clipper15SetWindingCountERNS_5TEdgeE
z$b:__ZNK4Mesh14GetIndexFormatEv
s3f:_GenericEqualityComparer_1__ctor_m4072188982_gshared
LGi:_UriParser_set_DefaultPort_m4007715058
Zrj:__ZN14dense_hash_mapI10KeyWrapperIP12Il2CppObjectEN6il2cpp2gc9CachedCCWENS4_5utils11PointerHashIS1_EENS3_14EqualsComparerINSt3__28equal_toIS2_EEEENSB_9allocatorINSB_4pairIKS3_S6_EEEEE13set_empty_keyERSH_
md:_glVertexAttribIPointer
Pbg:_StringBuilder_ToString_m3317489284
nqa:__ZN13dynamic_arrayI21ComputeShaderResourceLj4EE9push_backERKS0_
K$b:__ZNK6Sprite10GetPaddingE20SpriteRenderDataMode
EOf:_Array_InternalArray__ICollection_Remove_TisUInt32_t2560061978_m733727733_gshared
Qjd:_CryptographicException__ctor_m503735289
Mfe:_ConstructionCall_get_CallSiteActivationAttributes_m3498917408
YOd:_Stream_EndRead_m1896469262
cHg:__Z93RuntimeInvoker_Boolean_t97287965_Int32_t2950945753_SByte_t1669577662_ExceptionU26_t3600731591PFvvEPK10MethodInfoPvPS4_
zDb:__ZN14qsort_internal5QSortIP15RODataDepthPassi17ROSorterDepthPassEEvT_S4_T0_T1_
jIc:_UNITY_ft_glyphslot_alloc_bitmap
fnf:_RSASslSignatureDeformatter_SetHashAlgorithm_m895570787
Mzi:_X509CrlEntry__ctor_m4013514048
o0i:__ZN15dense_hashtableI10KeyWrapperIPK17Il2CppGenericInstES4_N6il2cpp8metadata21Il2CppGenericInstHashEN14dense_hash_setIS4_S7_NS4_14EqualsComparerINS6_24Il2CppGenericInstCompareEEENSt3__29allocatorIS4_EEE8IdentityESB_SE_E16reset_thresholdsEv
tWg:__Z87RuntimeInvoker_Color_t2555686324_Color_t2555686324_Color_t2555686324_Single_t1397266774PFvvEPK10MethodInfoPvPS4_
cNc:_ft_raster1_render
R7b:__Z57Register_UnityEngine_RectTransform_INTERNAL_set_anchorMaxv
pea:__ZN9GfxDevice27UpdateComputeSkinPoseBufferEP9GfxBufferP12SkinMeshInfo
S6f:_Enumerator_get_Current_m3382684163_AdjustorThunk
Ine:_InternalEnumerator_1_System_Collections_IEnumerator_Reset_m3677481164_AdjustorThunk
hLj:__ZNKSt3__221__basic_string_commonILb1EE20__throw_length_errorEv
C0f:_EqualityComparer_1_System_Collections_IEqualityComparer_Equals_m245992594_gshared
VQg:__Z52RuntimeInvoker_UInt64_t4134040092_Single_t1397266774PFvvEPK10MethodInfoPvPS4_
nSf:_Array_InternalArray__IndexOf_TisParameterModifier_t1461694466_m1227120810_gshared
Xra:__ZN18GfxFramebufferGLES13ReadbackImageER14ImageReferenceiiiiii
Efc:__ZN5Unity9rapidjson6WriterI16TempBufferWriterNS0_4UTF8IcEES4_13JSONAllocatorE11WriteStringEPKcj
Khd:_SerializationInfo_SetType_m3923964808
Ana:__ZN6prcoreL12RemapGenericI17TexFormatARGB888815TexFormatRGB565EEvPKNS_9InnerInfoE
fx:__ZN4FMOD7Channel19setReverbPropertiesEPK29FMOD_REVERB_CHANNELPROPERTIES
mRd:_StreamReader_Dispose_m156389394
oO:__ZN13MonoBehaviour22GetScriptFullClassNameEv
lij:_il2cpp_object_get_class
YEf:_SymmetricAlgorithm_get_Padding_m1011382560
MUb:__ZN13ProduceHelperI11MonoManagerLb0EE7ProduceE10MemLabelId18ObjectCreationMode
kCf:_RIPEMD160Managed_JJ_m112143231
XCb:__ZN13BatchRendererC2ER15RenderLoopStatsRK15RenderNodeQueuebb
kze:_Comparer_1__ctor_m191896560_gshared
oKe:_PreviousInfo_t2148130204_marshal_pinvoke_back
Mbb:__ZNK16MemoryFileSystem9EnumerateEPKcP19dynamic_block_arrayI13FileEntryInfoLj32EEbPPv19FileEnumerationFlag
Usb:__ZN13MonoBehaviour9CallAwakeEv
JMa:__ZN20SphericalHarmonicsL211AddWeightedERKS_f
eKg:__Z82RuntimeInvoker_RuntimeObject_Int64_t3736567304_Int64_t3736567304_Int64_t3736567304PFvvEPK10MethodInfoPvPS4_
_hb:__Z19TransferField_ArrayI17RemapPPtrTransfer27Converter_SimpleNativeClassI8GUIStyleEEvRK23StaticTransferFieldInfoR31RuntimeSerializationCommandInfoRT0_
W4:__ZL22StaticInitializeShaderPv
ogc:__ZN9JSONWrite8TransferI10ColorRGBAfEEvRT_PKc17TransferMetaFlags
Zve:_InternalEnumerator_1__ctor_m3913006324_AdjustorThunk
yP:__Z25scripting_method_get_name18ScriptingMethodPtr
qnf:_SslCipherSuite_ComputeKeys_m661027754
Awe:_InternalEnumerator_1__ctor_m3322594868_gshared
Rwg:_Object_set_name_m291480324
vEd:_Convert_ToBoolean_m481380807
Ltf:_Decimal_Equals_m2486655999
BCj:_GC_exit_check
sYd:_AssemblyName_SetPublicKeyToken_m582470133
HWg:__Z52RuntimeInvoker_Boolean_t97287965_HitInfo_t3229609740PFvvEPK10MethodInfoPvPS4_
jA:__ZNK4PPtrI9AudioClipEcvPS0_Ev
ZM:__Z20UnlockObjectCreationv
Vzh:__ZN16VirtFuncInvoker2Ii19Color32_t2600501292S0_E6InvokeEjP12Il2CppObjectS0_S0_
d6d:_MonoField_ToString_m2518484388
nNe:_DSAManaged_get_Random_m923751780
zDe:_Transform_1_Invoke_m2385719192_gshared
GFg:_Vector3_set_Item_m1772472431_AdjustorThunk
gbf:_Interpreter_PopulateGroup_m4042796257
Ueb:__ZN15SerializeTraitsI13dynamic_arrayIyLj8EEE19ResizeSTLStyleArrayERS1_i
fPb:__ZNSt3__26vectorINS_4pairIN4core12basic_stringIcNS2_20StringStorageDefaultIcEEEES6_EE13stl_allocatorIS7_L18MemLabelIdentifier38ELi16EEE6insertENS_11__wrap_iterIPKS7_EERSD_
Xsg:_RenderPipelineManager_DoRenderLoop_Internal_m3799666479
tci:__ZL78Sprite_t280657092_CustomAttributesCacheGenerator_Sprite_get_packed_m1179604684P21CustomAttributesCache
kN:__ZN4core8hash_mapIiP6ObjectNS_4hashIiEENSt3__28equal_toIiEEE4growEi
jN:__ZN4core8hash_mapIiP6ObjectNS_4hashIiEENSt3__28equal_toIiEEE4growEv
jnh:_Collection_1_System_Collections_IList_IndexOf_m3894953546_gshared
Q2e:_NameObjectCollectionBase_Init_m2525481323
lyj:__ZN6il2cpp2vm6String8NewUtf16EPKDsi
Mid:_SByte_System_IConvertible_ToByte_m2268214252_AdjustorThunk
avj:__ZN6il2cpp2os10ThreadImpl12QueueUserAPCEPFvPvES2_
Xt:__Z32TransferEnumWithNameForceIntSizeI14SafeBinaryReadN10SampleClip17CompressionFormatEEvRT_RT0_PKc17TransferMetaFlags
aFi:_RegularExpression__ctor_m119502265
aZc:__ZN22BaseUnityConnectClient10QueueEventERN11UnityEngine15CloudWebService17CloudServiceEventEPKcjb
Oth:_ReadOnlyCollection_1_System_Collections_Generic_ICollectionU3CTU3E_Clear_m522482168_gshared
Izc:__ZN13ProduceHelperI17PhysicsMaterial2DLb0EE7ProduceE10MemLabelId18ObjectCreationMode
O_d:_DerivedType_IsByRefImpl_m2585680005
uPa:__ZN13dynamic_arrayI11ShaderTagIDLj4EE9push_backERKS0_
Ofe:_ConstructionCall_InitMethodProperty_m2021094586
$Kc:_UNITY_FT_Hypot
_ne:_InternalEnumerator_1__ctor_m2636293838_gshared
whi:__ZL95TextGenerator_t3211863866_CustomAttributesCacheGenerator_TextGenerator_get_lineCount_m916872812P21CustomAttributesCache
Nsi:__ZL74CanvasScaler_t2767979955_CustomAttributesCacheGenerator_m_DefaultSpriteDPIP21CustomAttributesCache
yhj:_il2cpp_class_is_abstract
Df:_emscripten_glGetError
Cdj:__ZN15dense_hashtableINSt3__24pairIK10KeyWrapperIPK14Il2CppAssemblyEPK22Il2CppMonoAssemblyNameEES6_N6il2cpp5utils11PointerHashIS4_EEN14dense_hash_mapIS6_SA_SF_NS6_14EqualsComparerINS0_8equal_toIS5_EEEENS0_9allocatorISB_EEE9SelectKeyESK_SM_E14squash_deletedEv
Sx:__Z14FMOD_FILE_SeekPvjS_
LWe:_MaskableGraphic_OnDisable_m1757789159
dNa:__ZN7TextureC2E10MemLabelId18ObjectCreationMode
AUe:_LayoutGroup__ctor_m2162961217
$lg:_ValueType_t3640485471_marshal_pinvoke_cleanup
pMb:__ZNK13RenderTexture32CalculateNeedsInvertedProjectionEv
tRb:__ZN10systeminfo18GetOperatingSystemEv
Lf:emscriptenWebGLGet
M_:__Z19CanReplaceComponentRN5Unity9ComponentEPKNS_4TypeEPN4core12basic_stringIcNS5_20StringStorageDefaultIcEEEE
mTd:_UnmanagedMemoryStream_Flush_m1540584491
amh:_Collection_1_GetEnumerator_m3986802482_gshared
BHd:_GuidParser_ParseGuid2_m1914838819
_Wb:__ZN12CubemapArray11InitTextureEiii13TextureFormatb
M1b:__Z17GetSceneBuildInfoRKN4core12basic_stringIcNS_20StringStorageDefaultIcEEEEiR14SceneBuildInfo
C8g:_List_1_System_Collections_IList_get_Item_m1112579679_gshared
FGd:_Convert_ToSingle_m3983149863
Nme:_InternalEnumerator_1_System_Collections_IEnumerator_get_Current_m55999184_gshared
g9e:_X509CertificateEnumerator_get_Current_m364341970
lGe:_ValueCollection_System_Collections_Generic_ICollectionU3CTValueU3E_Contains_m1842955046_gshared
qaj:__ZN24dense_hashtable_iteratorINSt3__24pairIK10KeyWrapperIPK10Il2CppTypeEjEES6_N6il2cpp8metadata14Il2CppTypeHashEN14dense_hash_mapIS6_jSB_NS6_14EqualsComparerINSA_26Il2CppTypeEqualityComparerEEENS0_9allocatorIS8_EEE9SelectKeyESF_SH_E30advance_past_empty_and_deletedEv
ied:_Graphic_get_depth_m815589653
$Gi:_Event_set_displayIndex_m1342258734
oad:_ContentSizeFitter_get_horizontalFit_m2773126143
uHh:_U3CStartU3Ec__Iterator0__ctor_m2366347741_gshared
nGb:__ZL24AssignProjectorQueuesJobP30AssignProjectorQueuesJobHeader
NXf:_KeyValuePair_2_get_Key_m1218836954_gshared
S7d:_ParameterModifier_t1461694466_marshal_pinvoke
I1i:__ZN15dense_hashtableINSt3__24pairIK10KeyWrapperIN6il2cpp5utils13dynamic_arrayIPK10Il2CppTypeLj4EEEEPFvvEEESA_NS3_8metadata19Il2CppSignatureHashEN14dense_hash_mapISA_SD_SG_NSA_14EqualsComparerINSF_22Il2CppSignatureCompareEEENS0_9allocatorISE_EEE9SelectKeyESK_SM_E4swapERSP_
eId:_Int16_System_IConvertible_ToUInt32_m3410279543
uba:__ZN9ShaderLab20SerializedSubProgram14SetConstBufferEPKci
h8i:__ZN6il2cpp2os4File5CloseEPNS0_10FileHandleEPi
h1i:__ZNSt3__27__sort5IRN6il2cpp5utils11collections13ArrayValueMapIPK10Il2CppType17Il2CppInteropData26InteropDataToTypeConverterNS1_8metadata14Il2CppTypeLessENSA_26Il2CppTypeEqualityComparerEE12SortComparerEPS8_EEjT0_SH_SH_SH_SH_T_
oDg:_Touch_get_fingerId_m859576425_AdjustorThunk
z0g:__Z48RuntimeInvoker_Boolean_t97287965_Link_t544317964PFvvEPK10MethodInfoPvPS4_
dXe:_Navigation_get_selectOnDown_m1912812616_AdjustorThunk
kah:_List_1_System_Collections_ICollection_CopyTo_m2688165607_gshared
h0g:__Z53RuntimeInvoker_UIVertex_t4057497605_Int32_t2950945753PFvvEPK10MethodInfoPvPS4_
ujg:_UInt16_CompareTo_m2664746316_AdjustorThunk
uGe:_ValueCollection_GetEnumerator_m616748621_gshared
dL:__Z40DebugStringToFilePostprocessedStacktraceRK21DebugStringToFileData
alc:__Z29Transfer_Blittable_ArrayFieldI8JSONReadjEvRT_R9ArrayInfoRK23StaticTransferFieldInfo
Fxh:_ReadOnlyCollection_1_get_Item_m679165083_gshared
HCj:_GC_check_finalizer_nested
rg:__setLetterbox
OQa:__ZNSt3__26__treeINS_12__value_typeIN9ShaderLab16FastPropertyNameEfEENS_19__map_value_compareIS3_S4_NS_4lessIS3_EELb1EEENS_9allocatorIS4_EEE12__find_equalIS3_EERPNS_16__tree_node_baseIPvEENS_21__tree_const_iteratorIS4_PNS_11__tree_nodeIS4_SE_EEiEESH_RKT_
K_e:_ScrollRect_OnScroll_m3861066534
iIe:_Dictionary_2_ToTKey_m224697230_gshared
Xgi:__ZL72FormerlySerializedAsAttribute_t2859083114_CustomAttributesCacheGeneratorP21CustomAttributesCache
AQe:_OnValidateInput_Invoke_m1009124904
RBi:_PatternCompiler_EmitFastRepeat_m3012952683
RZa:__ZNSt3__26vectorI17BlendShapeChannelNS_9allocatorIS1_EEE6assignINS_11__wrap_iterIPS1_EEEENS_9enable_ifIXaasr21__is_forward_iteratorIT_EE5valuesr16is_constructibleIS1_NS_15iterator_traitsISA_E9referenceEEE5valueEvE4typeESA_SA_
mRb:__ZN11TimeManager11GetRealtimeEv
gbi:__ZL91RectOffset_t1369453676_CustomAttributesCacheGenerator_RectOffset_get_horizontal_m2663785949P21CustomAttributesCache
Uwg:_Object_GetHashCode_m1944636947
cNd:_BinaryReader_ReadUInt32_m2210658763
ky:__ZN29AudioEffectInternalDefinitionC2EP26UnityAudioEffectDefinitionb
yyh:_ReadOnlyCollection_1_System_Collections_IList_Remove_m2434650390_gshared
Njg:_UInt16_ToString_m3056878594_AdjustorThunk
RCe:_ShimEnumerator_get_Value_m1878724567_gshared
GYf:_Dictionary_2_System_Collections_Generic_ICollectionU3CSystem_Collections_Generic_KeyValuePairU3CTKeyU2CTValueU3EU3E_Contains_m2803718146_gshared
WFj:__ZN6il2cpp2os9FastMutexD2Ev
dcf:_Interval_get_IsSingleton_m3386290029
Tgj:__ZNSt3__2plIcNS_11char_traitsIcEENS_9allocatorIcEEEENS_12basic_stringIT_T0_T1_EERKS9_PKS6_
iDg:_Time_get_unscaledDeltaTime_m4270080131
s$a:__ZN4Mesh14GetMeshBuffersER11MeshBuffers17ShaderChannelMaskPS_b
aEf:_SHA384Managed__ctor_m3220477113
zma:_stbir_resize
ARf:_Array_IndexOf_TisCustomAttributeTypedArgument_t2723150157_m3158556463_gshared
c0f:_EqualityComparer_1_System_Collections_IEqualityComparer_GetHashCode_m360549782_gshared
Bxf:_Environment_GetOSVersionString_m407782784
gMf:_DecoderExceptionFallback_Equals_m1082173956
$1f:_EqualityComparer_1_System_Collections_IEqualityComparer_GetHashCode_m345188086_gshared
SWh:__ZL69Assembly_t_CustomAttributesCacheGenerator_Assembly_GetName_m981771927P21CustomAttributesCache
__a:__ZN4PPtrI4MeshE8TransferI14SafeBinaryReadEEvRT_
Xqc:__ZN24b2ChainAndCapsuleContact6CreateEP9b2FixtureiS1_iP16b2BlockAllocator
GCa:__Z37ReadDirectoryInfo_UnityWebAndUnityRawR12FileAccessorRKN20ArchiveStorageHeader6HeaderERNS1_13DirectoryInfoE
kyi:_PKCS12_get_Keys_m3893933360
VZ:__ZNSt3__26__treeINS_12__value_typeIPKciEENS_19__map_value_compareIS3_S4_15compare_tstringIS3_ELb1EEENS_9allocatorIS4_EEE7destroyEPNS_11__tree_nodeIS4_PvEE
IVf:_Array_InternalArray__Insert_TisIntPtr_t_m189626842_gshared
s7e:_X509Certificate2_get_IssuerName_m1277209535
nIe:_Locale_GetText_m3374010885
Jqh:_Collection_1_System_Collections_IEnumerable_GetEnumerator_m1598238343_gshared
jnd:_RijndaelManaged_CreateEncryptor_m263736311
Mfg:_WaitCallback__ctor_m1893321019
xDb:__ZN20DynamicPropertySheet14SetValueQueuedEN9ShaderLab16FastPropertyNameEN19ShaderPropertySheet12PropertyTypeEjNS2_8SetFlagsE
gTc:__ZN2UI6Canvas26MarkAllNestedCanvasesDirtyEv
bsg:_InvokableCallList_ClearPersistent_m1904264973
eva:__ZN16GeometryJobTasks20ScheduleGeometryJobsER9GfxDevicePFvP15GeometryJobDataEPK22GeometryJobInstructionjb
uub:__ZN25PathNamePersistentManagerD2Ev
SM:__ZN17PersistentManager48IntegrateObjectAndUnlockIntegrationMutexInternalEi
L4:__ZZ29InitializeSortingGroupManagerPvEN44PostLateUpdateSortingGroupsUpdateRegistrator7ForwardEv
vmi:__ZL55EventTrigger_t1076084509_CustomAttributesCacheGeneratorP21CustomAttributesCache
IHf:_SecurityElement_SearchForChildByTag_m900466299
wp:__ZN6Object12SetHideFlagsENS_9HideFlagsE
gqc:__ZN9b2Fixture11SynchronizeEP12b2BroadPhaseRK11b2TransformS4_
yGd:_Convert_ToSingle_m3227075028
VRj:_emscripten_glGetFramebufferAttachmentParameteriv__wrapper
IAb:__ZN13RendererScene15InitializeUmbraEv
sEe:__ZN21InterfaceFuncInvoker2I26KeyValuePair_2_t2401056908P12Il2CppObjectiE6InvokeEjP11Il2CppClassS2_S2_i
ALa:__Z28CalculateGlobalMatrixInverse23TransformAccessReadOnly
fwg:_MonoBehaviour__ctor_m1579109191
rki:__ZL59GUITargetAttribute_t25796337_CustomAttributesCacheGeneratorP21CustomAttributesCache
f3f:_GenericEqualityComparer_1_Equals_m3457564127_gshared
fdf:_BigInteger_ModInverse_m2426215562
Eoe:_InternalEnumerator_1_System_Collections_IEnumerator_Reset_m2386791007_AdjustorThunk
cMf:_DecoderExceptionFallback__ctor_m4044614564
wqe:_InternalEnumerator_1_System_Collections_IEnumerator_Reset_m3011999097_AdjustorThunk
Ukj:__ZN6il2cpp2vm6Thread17FullMemoryBarrierEv
rTd:_LocalDataStoreSlot__cctor_m644942532
SGj:__ZN6il2cpp6icalls8mscorlib6System6Object7GetTypeEP12Il2CppObject
T6d:_MonoProperty_CachePropertyInfo_m2968057423
iYc:__ZN11UnityEngine15PlatformWrapper18GetWin8ScalingModeEv
z0c:__ZNK25UnityWebRequestJavaScript18GetDownloadedBytesEv
Syg:_Ray_GetPoint_m1852405345_AdjustorThunk
jVh:__ZL53RegionInfo_t1090270226_CustomAttributesCacheGeneratorP21CustomAttributesCache
qli:__ZL85Canvas_t3310196443_CustomAttributesCacheGenerator_Canvas_get_sortingOrder_m1860900812P21CustomAttributesCache
vQh:__ZL74Single_t1397266774_CustomAttributesCacheGenerator_Single_IsNaN_m4024467661P21CustomAttributesCache
DMf:_Array_get_swapper_TisColor32_t2600501292_m2310851009_gshared
r0c:__ZN12HeaderHelper14SetUnvalidatedERKN4core12basic_stringIcNS0_20StringStorageDefaultIcEEEES6_b
iu:__ZN4FMOD6SoundI7releaseEv
B$a:__ZN14SpriteRenderer13AwakeFromLoadE17AwakeFromLoadMode
uQi:__ZL25UnresolvedVirtualCall_257P12Il2CppObjecti19Vector3_t3722313464PK10MethodInfo
EEc:_cff_parse_num
iDa:__ZN10MemoryFile9SetLengthEy
dkb:__ZN5RectTIiE8TransferI24GenerateTypeTreeTransferEEvRT_
Toc:__ZNK15b2RevoluteJoint10GetAnchorBEv
eUa:__ZN14SafeBinaryRead21TransferSTLStyleArrayI13dynamic_arrayI7Hash128Lj8EEEEvRT_17TransferMetaFlags
wtb:__Z28scripting_class_is_interface17ScriptingClassPtr
Ih:_glTexStorage2D
LCd:_SyncHashtable_get_Item_m2686606216
Raa:__ZNK9ShaderLab10SubProgram14EnsureCompiledEv
b2d:_MethodBuilder_GetGenericArguments_m1765425737
$pf:_DateTime_CompareTo_m3687348273
wBj:_GC_push_marked
hrf:_DateTime_ToUniversalTime_m1945318289_AdjustorThunk
ZKe:_Kernel_modInverse_m668448880
Bwf:_Enum_t4135868527_marshal_pinvoke
oP:__Z18BuildScriptClassId17ScriptingClassPtr
GSi:_TextGenerator_Init_m1168488231
LOe:_RSAManaged_Finalize_m3915335854
Aq:__ZNK16LevelGameManager7GetNameEv
JAa:__ZL31DeleteLastPathNameComponentImplRKN4core12basic_stringIcNS_20StringStorageDefaultIcEEEEPKc
JTb:__Z13RegisterClassI18DelayedCallManagerEvv
nZc:__ZN18UnityConnectClient15GetCloudServiceEv
Jfb:__Z29Transfer_Blittable_ArrayFieldI14SafeBinaryRead5RectTIiEEvRT_R9ArrayInfoRK23StaticTransferFieldInfo
kre:_InternalEnumerator_1_get_Current_m2698009637_gshared
q4i:__ZN6il2cpp2os19SocketHandleWrapperD2Ev
wFe:_Enumerator_System_Collections_IEnumerator_Reset_m278261807_gshared
Bqc:__ZN15b2CircleContact6CreateEP9b2FixtureiS1_iP16b2BlockAllocator
ptb:__ZL28SerializationCommandGroupForRK31TransferFunctionScriptingTraits17ScriptingClassPtr17ScriptingFieldPtrRK20CoreScriptingClasses
QFa:__ZN10TagManager32RegisterDefaultTagsAndLayerMasksEv
Zfg:_WaitHandle_Dispose_m738127030
jeh:_List_1_System_Collections_IList_get_IsReadOnly_m1729002068_gshared
iQg:__Z50RuntimeInvoker_Double_t594665363_Int32_t2950945753PFvvEPK10MethodInfoPvPS4_
TBh:_Predicate_1_EndInvoke_m1490920825_gshared
s5h:__ZL78LoaderOptimization_t1484956347_CustomAttributesCacheGenerator_DisallowBindingsP21CustomAttributesCache
HYf:_Dictionary_2_System_Collections_Generic_ICollectionU3CSystem_Collections_Generic_KeyValuePairU3CTKeyU2CTValueU3EU3E_CopyTo_m3122240003_gshared
vZg:__Z104RuntimeInvoker_Void_t1185182177_Color_t2555686324_Single_t1397266774_SByte_t1669577662_SByte_t1669577662PFvvEPK10MethodInfoPvPS4_
Jdh:_List_1_Remove_m3853969205_gshared
i7f:_Enumerator_System_Collections_IEnumerator_get_Current_m1540440674_gshared
DIf:_Single_System_IConvertible_ToInt16_m809233024_AdjustorThunk
uJj:_fmodf
DQe:_InputField_UpdateLabel_m1837760870
Pia:__ZN4gles8InitCapsEP7ApiGLESP12GraphicsCapsR16GfxDeviceLevelGL
pga:__ZN13GfxDeviceGLES22GetNativeBufferPointerEP9GfxBuffer
dJa:__Z24CalculateVertexLightDataRK15SharedLightDataR14GfxVertexLight
qi:_glEnable
Tte:_InternalEnumerator_1_MoveNext_m973048327_gshared
Oaa:__ZNK9ShaderLab7Program28BeginReadUnsupportedVariantsEv
oW:__ZN12CachedWriter11Align4WriteEv
F4a:__ZNSt3__26vectorIN30RuntimeInitializeOnLoadManager9ClassInfoE13stl_allocatorIS2_L18MemLabelIdentifier13ELi16EEE7reserveEj
Bgc:__Z35Transfer_Blittable_FixedBufferFieldI9JSONWriteiEvRK29SerializationCommandArgumentsR31RuntimeSerializationCommandInfo
DWi:_HumanBone_t2465339518_marshal_pinvoke_cleanup
v3f:_Enumerator__ctor_m1590062855_AdjustorThunk
Aej:__ZN14dense_hash_mapI10KeyWrapperINSt3__24pairIPK10MethodInfoP11Il2CppClassEEEj17ReflectionMapHashIS8_ENS9_14EqualsComparerINS1_8equal_toIS8_EEEENS1_9allocatorINS2_IKS9_jEEEEEC2EjRKSB_RKSF_
N_h:__ZL54SoapServices_t133988723_CustomAttributesCacheGeneratorP21CustomAttributesCache
SSd:_UnexceptionalStreamReader_Peek_m1842169584
OXc:__ZN11UnityEngine7Connect15DeviceInfoEvent16CollectExtraInfoEv
zGg:_TypeInferenceRuleAttribute__ctor_m2736695831
$ng:_Bounds_GetHashCode_m1844059663_AdjustorThunk
fkd:_CryptographicException__ctor_m1422015889
cGg:_Vector4_Equals_m1779210055_AdjustorThunk
rHd:_Convert_ChangeType_m739676612
FKj:_atoi
gKd:_Int32_System_IConvertible_ToInt32_m265310525_AdjustorThunk
GKj:_atol
xzj:__ZThn8_N6il2cpp2vm13CachedCCWBaseINS0_13ManagedObjectEE6AddRefEv
Zgf:_Alert_GetAlertMessage_m1942367141
Vri:__ZL88Selectable_t3250028441_CustomAttributesCacheGenerator_U3CisPointerDownU3Ek__BackingFieldP21CustomAttributesCache
Hde:_RemotingServices_GetRealProxy_m2081098851
OMe:_BlockProcessor_Core_m189015002
I$i:__ZN15dense_hashtableINSt3__24pairIK10KeyWrapperIPKcEP11Il2CppClassEES5_N6il2cpp5utils11StringUtils12StringHasherIS4_EEN14dense_hash_mapIS5_S8_SE_NS5_14EqualsComparerINSB_13VmStringUtils21CaseSensitiveComparerEEENS0_9allocatorIS9_EEE9SelectKeyESJ_SL_EC2EjRKSE_RKSJ_RKSN_
bSj:_emscripten_glScissor__wrapper
Go:FUNCTION_TABLE_viifi
Ho:FUNCTION_TABLE_viiff
Snd:_X501__cctor_m1166912714
qni:__ZL102PointerEventData_t3807901092_CustomAttributesCacheGenerator_PointerEventData_set_lastPress_m2928324031P21CustomAttributesCache
UWe:_MaskUtilities_GetRectMasksForClip_m532898711
qLc:_UNITY_tt_face_free_hdmx
etc:__ZNSt3__26__sortIRN18Overlap2DQueryBase29ColliderHitsByDepthComparitorEPP10Collider2DEEvT0_S7_T_
Bog:_Bounds_ToString_m4208690781
Tij:__ZN15dense_hashtableINSt3__24pairIK10KeyWrapperINS1_IP11Il2CppClassjEEES4_EES6_N6il2cpp8metadata14ArrayClassHashEN14dense_hash_mapIS6_S4_SB_NS6_14EqualsComparerINSA_17ArrayClassCompareEEENS0_9allocatorIS8_EEE9SelectKeyESF_SH_E5clearEv
f$i:__ZNSt3__218uninitialized_copyIPNS_4pairIK10KeyWrapperIPK11Il2CppClassEPKcEESB_EET0_T_SD_SC_
zfj:__ZN6il2cpp2vm14TypeNameParser5ParseEb
ITd:_Math_Sqrt_m1297338011
FRd:_StreamWriter_Initialize_m3490883444
wig:_Type_GetGenericArguments_m3500465462
u$c:__ZN23UnityPurchasingSettingsC2Ev
fMj:__ZNSt9bad_allocD0Ev
a5d:_Module_IsDefined_m2423524910
B_d:_DerivedType_create_unmanaged_type_m747846525
Kji:__ZL60EventType_t3528516131_CustomAttributesCacheGenerator_repaintP21CustomAttributesCache
UHa:__ZN17GPUFenceInternals7ReleaseEv
Nri:__ZL66Selectable_t3250028441_CustomAttributesCacheGenerator_m_NavigationP21CustomAttributesCache
n8d:_ResolveEventHandler__ctor_m1911137231
Eoh:_Collection_1_System_Collections_IList_Contains_m2393482847_gshared
qMb:__ZL10RenderFaceR9GfxDeviceR18MaterialStateCacheP13RenderTextureiif
zRf:_Array_IndexOf_TisCustomAttributeNamedArgument_t287865710_m2817957199_gshared
A7:__ZN15SerializeTraitsI13dynamic_arrayIN9ShaderLab21SerializedBindChannelELj4EEE19ResizeSTLStyleArrayERS3_i
Jpj:__ZNK24NamespaceAndNamePairHashclERKNSt3__24pairIPKcS3_EE
lxi:_ExtendedKeyUsageExtension_ToString_m2116504780
z7a:__ZNK5Unity9Component38MarkGameObjectAndComponentDependenciesER27GarbageCollectorThreadState
OMd:_BinaryReader_Read_m3708759962
O0c:__ZN20UnityWebRequestProtoI24UnityWebRequestTransport16AtomicRefCounter14RedirectHelper14ResponseHelper15DownloadHandler13UploadHandler12HeaderHelper14AsyncOperationED0Ev
Fnc:__Z5b2LogPKcz
SB:__ZNK7Texture21GetShadowSamplingModeEv
gWa:__ZN13ScreenManager21OnWindowRegainedFocusEv
Dqb:__Z18Transfer_BlittableI18StreamedBinaryReadILb0EELb1EdEvRK29SerializationCommandArgumentsR31RuntimeSerializationCommandInfo
uia:__ZN9GfxDevice26CreateDefaultVertexBuffersEv
uTj:_emscripten_glVertexAttrib2fv__wrapper
q1c:__ZN13RuntimeStaticINSt3__26vectorIPN5physx15PxVehicleWheelsENS0_9allocatorIS4_EEEELb0EE13StaticDestroyEPv
eSd:_SynchronizedReader_ReadToEnd_m2160105378
Yvf:_Double_System_IConvertible_ToUInt16_m4132603953_AdjustorThunk
Nla:__ZN4crnd12symbol_codec32decode_receive_static_data_modelERNS_25static_huffman_data_modelE
KRb:__ZN18ScriptingArguments8AddFloatEf
xDg:_TouchScreenKeyboard_Open_m3325559252
ngd:_Image_set_fillOrigin_m469806249
CXc:__ZN11UnityEngine15PlatformWrapper16GetVRRenderScaleEv
Bhc:__Z18Transfer_BlittableI9JSONWriteLb0EaEvRK29SerializationCommandArgumentsR31RuntimeSerializationCommandInfo
QF:__ZN11UnityEngine15CloudWebService14DataDispatcher34OnSessionContainerArchivedAndReadyERNS0_16SessionContainerE
uwg:_ConnectionChangeEvent__ctor_m764126802
pnc:__ZN7b2World11CreateJointEPK10b2JointDef
tdf:_Kernel_Multiply_m193213393
EUd:_IntComparer__ctor_m2901422390
o8d:_ResolveEventHandler_Invoke_m1337322179
S$h:__ZL50HMACMD5_t2742219965_CustomAttributesCacheGeneratorP21CustomAttributesCache
Cye:_Comparer_1__ctor_m1078828713_gshared
Ikb:__Z18Transfer_BlittableI19StreamedBinaryWriteILb0EELb0E8Vector3fEvRK29SerializationCommandArgumentsR31RuntimeSerializationCommandInfo
a6f:_Enumerator_VerifyState_m2621680056_gshared
XFi:_UriParser_InternalRegister_m3643767086
shi:__ZL106TextGenerator_t3211863866_CustomAttributesCacheGenerator_TextGenerator_INTERNAL_get_rectExtents_m183810018P21CustomAttributesCache
Y5:__ZN14SafeBinaryRead19TransferSTLStyleMapINSt3__23mapIN4core12basic_stringIcNS3_20StringStorageDefaultIcEEEEiNS1_4lessIS7_EENS1_9allocatorINS1_4pairIKS7_iEEEEEEEEvRT_17TransferMetaFlags
Vqf:_DateTimeFormatInfo_get_RawAbbreviatedDayNames_m1257850285
WCf:_RSACryptoServiceProvider_EncryptValue_m944137256
sbj:__ZN15dense_hashtableINSt3__24pairIK10KeyWrapperINS1_IPK11Il2CppImageP11Il2CppClassEEEjEES9_17ReflectionMapHashIS8_EN14dense_hash_mapIS9_jSD_NS9_14EqualsComparerINS0_8equal_toIS8_EEEENS0_9allocatorISB_EEE9SelectKeyESI_SK_ED2Ev
CJc:_gray_move_to
esf:_DBNull_System_IConvertible_ToSingle_m13713620
vti:__ZL127U3CDelayedSetDirtyU3Ec__Iterator0_t3170500204_CustomAttributesCacheGenerator_U3CDelayedSetDirtyU3Ec__Iterator0_Reset_m160466733P21CustomAttributesCache
gpg:_CameraCallback__ctor_m899467377
Tsh:_ReadOnlyCollection_1_System_Collections_IList_Contains_m1327645028_gshared
Agd:_Image_GetDrawingDimensions_m3060965396
khi:__ZL69FontTextureRebuildCallback_t2467502454_CustomAttributesCacheGeneratorP21CustomAttributesCache
Pig:_TypeLoadException__ctor_m1154572625
nab:__ZN20LocalFileSystemPosixD0Ev
EQh:__ZL75Decimal_t2948259380_CustomAttributesCacheGenerator_Decimal__ctor_m593929528P21CustomAttributesCache
ukf:_Context_get_WriteSequenceNumber_m1115956887
hqd:_Activator_CreateInstanceInternal_m1337209899
QMh:_Dictionary_2_Do_ICollectionCopyTo_TisKeyValuePair_2_t2401056908_m1169495264_gshared
N2d:_OpCodes__cctor_m3821715395
nad:_ContentSizeFitter__ctor_m2349275633
H6h:__ZL56TypeConverter_t2249118273_CustomAttributesCacheGeneratorP21CustomAttributesCache
ooh:_Collection_1_RemoveAt_m3506636491_gshared
PIc:_tt_cmap_init
Tlc:__ZN8JSONRead8TransferI9BoundsIntEEvRT_PKc17TransferMetaFlagsb
Ka:invoke_viidi
rLh:_Array_Sort_TisOrderBlock_t1585977831_m2922111197_gshared
$dd:_Graphic_OnRectTransformDimensionsChange_m3695755375
Oid:_SByte_System_IConvertible_ToChar_m1489191771_AdjustorThunk
Lw:__ZN9AudioClip7CleanupEv
z3g:__Z76RuntimeInvoker_Void_t1185182177_Int32_t2950945753_PlayableBinding_t354260709PFvvEPK10MethodInfoPvPS4_
Zbf:_Interval_t1802865632_marshal_pinvoke_cleanup
dkj:__ZNK15dense_hashtableINSt3__24pairIK10KeyWrapperIP11Il2CppClassES4_EES5_N6il2cpp8metadata16SZArrayClassHashEN14dense_hash_mapIS5_S4_SA_NS5_14EqualsComparerINS9_19SZArrayClassCompareEEENS0_9allocatorIS7_EEE9SelectKeyESE_SG_E12test_deletedEj
ved:_Graphic_GraphicUpdateComplete_m1502194795
ukc:__Z18Transfer_BlittableI8JSONReadLb0EdEvRK29SerializationCommandArgumentsR31RuntimeSerializationCommandInfo
Vee:_SynchronizationAttribute_EnterContext_m1660729920
vUi:_Canvas_get_referencePixelsPerUnit_m3420541976
Zsh:_ReadOnlyCollection_1_System_Collections_ICollection_get_SyncRoot_m2522539235_gshared
dHi:_Event_get_current_m2393892120
mLi:_VertexHelper_Clear_m627349662
M_f:_DefaultComparer_Equals_m3688244916_gshared
rda:__ZNK9GfxDevice13GetViewMatrixEv
nTd:_UnmanagedMemoryStream_Dispose_m2681886347
z6a:__ZN17RemapPPtrTransferC2E24TransferInstructionFlagsb
zne:_InternalEnumerator_1_System_Collections_IEnumerator_get_Current_m1295084274_gshared
lFd:_Convert_ToDecimal_m889385228
MQ:__ZN8TypeTree8BlobReadERPKhS1_ib
rai:__ZL87Display_t1387065949_CustomAttributesCacheGenerator_Display_GetSystemExtImpl_m2808197389P21CustomAttributesCache
Bsd:_Array_Reverse_m3714848183
vcd:_Dropdown_ClearOptions_m4085591601
A9c:_CanvasUpdateRegistry_InternalRegisterCanvasElementForGraphicRebuild_m3522560454
bYf:_KeyValuePair_2__ctor_m880186442_gshared
a5a:__ZN18LoadSceneOperation23GetAllowSceneActivationEv
oGa:__ZN6CameraD0Ev
x3:__ZN31CanvasBatchIntermediateRenderer16StaticInitializeEPv
Nqh:_Collection_1_System_Collections_IList_IndexOf_m837396833_gshared
t4a:__ZN14SafeBinaryRead21TransferSTLStyleArrayINSt3__26vectorIi13stl_allocatorIiL18MemLabelIdentifier13ELi16EEEEEEvRT_17TransferMetaFlags
X9f:_EncoderFallback__cctor_m3806755293
joe:_InternalEnumerator_1__ctor_m962177456_AdjustorThunk
zPc:_raccess_guess_apple_double
Spa:__ZL18ProgramUniform1uivPK7ApiGLESjiihPKv
iXb:__ZN14Texture2DArray13RebuildMipMapEv
H_i:__ZN13Il2CppHashSetIPK17Il2CppGenericInstN6il2cpp8metadata21Il2CppGenericInstHashENS4_24Il2CppGenericInstCompareENSt3__29allocatorI10KeyWrapperIS2_EEEEC2EjRKS5_RKS6_
Jdb:__Z18Transfer_BlittableI14SafeBinaryReadLb1EaEvRK29SerializationCommandArgumentsR31RuntimeSerializationCommandInfo
iwj:__ZN6il2cpp2gc16GarbageCollector14RemoveWeakLinkEPPv
vba:__ZN9ShaderLab20SerializedSubProgram14AddVectorParamEPKcii15ShaderParamTypei
Mah:_List_1_GetEnumerator_m563931292_gshared
JWi:_Collision2D_t2842956331_marshal_pinvoke
MUc:__ZN2UI14CanvasRenderer12CleanupClassEv
TDd:_Enumerator__ctor_m3362421874
AXg:__Z117RuntimeInvoker_CSSSize_t3377836552_IntPtr_t_Single_t1397266774_Int32_t2950945753_Single_t1397266774_Int32_t2950945753PFvvEPK10MethodInfoPvPS4_
xXj:_emscripten_glIsFramebuffer__wrapper
htj:__ZN6il2cpp2vm6Object3BoxEP11Il2CppClassPv
Tkj:__ZN6il2cpp2vm6Thread7SetNameEP12Il2CppThreadP12Il2CppString
Cvb:__ZN13ScreenManager18SetAllowCursorLockEb
iH:__ZN11UnityEngine15CloudWebService10RestClientINS0_23WebRequestRestHeaderMapEE16SetRequestHeaderERKN4core12basic_stringIcNS4_20StringStorageDefaultIcEEEESA_
y4a:__ZN30RuntimeInitializeOnLoadManager15ClassMethodInfo8TransferI14SafeBinaryReadEEvRT_
Gfe:_ConstructionCall_InitDictionary_m2824447813
d8d:_TargetException__ctor_m3701535709
k1g:__Z86RuntimeInvoker_Int32_t2950945753_Vector3_t3722313464_Vector3_t3722313464_RuntimeObjectPFvvEPK10MethodInfoPvPS4_
HD:__ZL22InitializeModule_Audiov
zbb:__ZN16MemoryFileSystem8IsLockedERK13FileEntryData
knj:__ZN6il2cpp6icalls8mscorlib6System2IO6MonoIO5WriteEiP11Il2CppArrayiiPi
dvg:_Mathf_InverseLerp_m4155825980
vNg:__Z92RuntimeInvoker_RuntimeObject_RuntimeObject_RuntimeObject_SByte_t1669577662_SByte_t1669577662PFvvEPK10MethodInfoPvPS4_
cl:_emscripten_glBindRenderbuffer
wCj:_GC_dirty_init
Cqj:__ZN6il2cpp2vm5Image33GetCachedMemoryMappedResourceFileEP24Il2CppReflectionAssembly
Vsj:__ZN6il2cpp2vm5Field14GetValueObjectEP9FieldInfoP12Il2CppObject
oUc:__ZNK2UI6Canvas16GetTargetDisplayEv
o0g:__Z69RuntimeInvoker_Void_t1185182177_Int32_t2950945753_Vector2_t2156229523PFvvEPK10MethodInfoPvPS4_
Hgg:_TimeSpan_CompareTo_m3633415627_AdjustorThunk
m1:__ZN6Object17FindObjectsOfTypeEPKN5Unity4TypeER13dynamic_arrayIPS_Lj4EEb
B_b:__ZNSt3__26vectorINS_4pairIiiEE13stl_allocatorIS2_L18MemLabelIdentifier1ELi16EEE21__push_back_slow_pathIKS2_EEvRT_
MWe:_MaskableGraphic_OnTransformParentChanged_m329502413
ulh:_Collection_1_Remove_m3611142372_gshared
Osb:__ZN13MonoBehaviour17RemoveFromManagerEv
EFg:_Vector3_get_Item_m668685504_AdjustorThunk
VGa:__ZN12ImageFilters14AddImageFilterERK11ImageFilter
C5d:_MonoEventInfo_GetEventInfo_m873645389
Tde:_Context_NotifyDynamicSinks_m1841702879
FHi:_GUIUtility_get_pixelsPerPoint_m2369948084
uHf:_WindowsIdentity_System_Runtime_Serialization_IDeserializationCallback_OnDeserialization_m3428853631
tK:__ZN13MemoryManagerC2Ev
Lta:__ZN12SkinMeshInfo10DeallocateEPS_
v$i:__ZNK15dense_hashtableINSt3__24pairIK10KeyWrapperIPKcEP11Il2CppClassEES5_N6il2cpp5utils11StringUtils12StringHasherIS4_EEN14dense_hash_mapIS5_S8_SE_NS5_14EqualsComparerINSB_13VmStringUtils21CaseSensitiveComparerEEENS0_9allocatorIS9_EEE9SelectKeyESJ_SL_E8min_sizeEjj
l_e:_ScrollRect_SetDirty_m214267968
xDa:__ZN20ArchiveStorageReader28AcquireAndPrefillUnusedBlockEjPNS_11CacheResultE
oud:_Boolean_System_IConvertible_ToDateTime_m603510836
cXb:__Z12NHxRoughnessIA4_tEvP9Texture2DPT_iiii
pMe:_ASN1_get_Value_m1857007406
G1:__ZN18AsyncUploadManagerD2Ev
b9a:__ZN9Transform5ResetEv
kuf:_Decimal_op_Explicit_m1842265407
tkb:__Z22TransferField_NonArrayI24GenerateTypeTreeTransfer16Converter_StringEvRK23StaticTransferFieldInfoR31RuntimeSerializationCommandInfoRT0_
L2h:__ZL52Activator_t1841325713_CustomAttributesCacheGeneratorP21CustomAttributesCache
iFc:_UNITY_FT_CMap_New
Zne:_InternalEnumerator_1_get_Current_m4241643334_AdjustorThunk
ane:_InternalEnumerator_1_MoveNext_m154749640_AdjustorThunk
vvb:__Z17MainLoopKeepalivePv
esi:__ZL62Slider_t3903728902_CustomAttributesCacheGenerator_m_HandleRectP21CustomAttributesCache
s0i:__ZN15dense_hashtableI10KeyWrapperIPK17Il2CppGenericInstES4_N6il2cpp8metadata21Il2CppGenericInstHashEN14dense_hash_setIS4_S7_NS4_14EqualsComparerINS6_24Il2CppGenericInstCompareEEENSt3__29allocatorIS4_EEE8IdentityESB_SE_E12expand_arrayEjN21dense_hash_map_traits17integral_constantIbLb0EEE
nue:_InternalEnumerator_1_get_Current_m1588647567_AdjustorThunk
AIj:_printf_core
yYh:__ZL51GCHandle_t3351438187_CustomAttributesCacheGeneratorP21CustomAttributesCache
aRe:_InputField_get_caretBlinkRate_m3620074524
U6a:__ZN11PreloadData39ShouldIgnoreInGarbageDependencyTrackingEv
sDb:__Z19SetupLODFadeKeywordR17ShaderPassContexti
qDf:_RSAPKCS1SignatureFormatter_CreateSignature_m3191980616
VOa:__ZN10builtintex16GetDefaultTexEnvE16TextureDimensionb
nta:__ZL25CheckCopyTextureArgumentsRK7ApiGLESP11GLESTextureS3_
pue:_InternalEnumerator_1__ctor_m362401472_AdjustorThunk
L8g:_List_1_AsReadOnly_m2400800347_gshared
kWj:_glDeleteShader__wrapper
Sjb:__Z29Transfer_Blittable_ArrayFieldI24GenerateTypeTreeTransferyEvRT_R9ArrayInfoRK23StaticTransferFieldInfo
dmg:_ValueType_Equals_m1524437845
wei:__ZL71RuntimePlatform_t4159857903_CustomAttributesCacheGenerator_OSXWebPlayerP21CustomAttributesCache
wx:__ZN4FMOD7SystemI9playSoundE17FMOD_CHANNELINDEXPNS_5SoundEbPPNS_7ChannelE
Y_g:__Z123RuntimeInvoker_RuntimeObject_Ray_t3785851493_RuntimeObject_Single_t1397266774_Int32_t2950945753_RuntimeObject_RuntimeObjectPFvvEPK10MethodInfoPvPS4_
zLd:_Int64_GetHashCode_m703091690
Tzf:_CultureInfo_set_DateTimeFormat_m1843682751
cyc:__ZN17PhysicsMaterial2D5ResetEv
YGi:_Event_get_commandName_m4275147343
ruf:_Decimal_op_Implicit_m4256234411
Xv:__ZN12AudioManager23VirtualRedirectTransferER18StreamedBinaryReadILb0EE
YJg:__Z60RuntimeInvoker_RuntimeObject_RuntimeObject_Int16_t2552820387PFvvEPK10MethodInfoPvPS4_
AZa:__ZN10VertexData13SwapEndianessEv
iRd:_StreamReader__ctor_m3941437302
X9b:__Z57Register_UnityEngine_Transform_INTERNAL_get_localRotationv
L4e:_IPv6Address_get_Address_m1389170741
l4a:__ZN30RuntimeInitializeOnLoadManager23VirtualRedirectTransferER17RemapPPtrTransfer
NOj:dynCall_viif
jYd:_AssemblyName_get_Flags_m1616840602
Ir:__ZN7mecanim4hand8HandPoseC2Ev
mci:__ZL86Material_t340375123_CustomAttributesCacheGenerator_Material_DisableKeyword_m1245091008P21CustomAttributesCache
$Rd:_StringReader_ReadLine_m2337102945
yhb:__ZL26Transfer_SimpleNativeClassI17RemapPPtrTransfer8GradientLb0EEvRK29SerializationCommandArgumentsR31RuntimeSerializationCommandInfo
OCd:_SyncHashtable_Add_m3016107307
Xud:_Boolean_Equals_m2410333903_AdjustorThunk
_eh:_List_1_System_Collections_IList_Contains_m2131605266_gshared
d$h:__ZL61ISurrogateSelector_t3040401154_CustomAttributesCacheGeneratorP21CustomAttributesCache
nPj:dynCall_viifffi
Ggh:_List_1_ToArray_m1990123684_gshared
dI:__ZN13UploadHandlerD2Ev
hNj:dynCall_viiiiiffi
Ec:_emscripten_glBlendFuncSeparate
tnh:_Collection_1_Add_m809543251_gshared
HO:__Z20scripting_string_newPKc
i8b:__Z43Material_CUSTOM_Internal_CreateWithMaterialP12Il2CppObjectS0_
fFi:_Parser_IsSingleline_m326238187
SAd:_CollectionBase_get_Count_m1708965601
Cld:_HMAC__ctor_m97939284
Kuh:_ReadOnlyCollection_1_System_Collections_IList_get_Item_m1005238747_gshared
V4h:__ZL49DBNull_t3725197148_CustomAttributesCacheGeneratorP21CustomAttributesCache
cmg:_ValueType_DefaultEquals_m2927252100
Zfc:__ZN9JSONWrite12AppendToNodeEPN5Unity9rapidjson12GenericValueINS1_4UTF8IcEE13JSONAllocatorEEPKcRS6_
wMe:_ASN1_ToString_m1340204511
Upc:__ZN16PhysicsManager2D20GetRigidBodyVelocityERK11Rigidbody2D
t8e:_X509Store_get_Certificates_m2149701265
tZf:_DefaultComparer_GetHashCode_m2865442331_gshared
koi:__ZL144StandaloneInputModule_t2760469101_CustomAttributesCacheGenerator_StandaloneInputModule_t2760469101____allowActivationOnMobileDevice_PropertyInfoP21CustomAttributesCache
Obg:_StringBuilder_set_Chars_m3548656617
$7i:__ZN6il2cpp2os4File17GetFileAttributesERKNSt3__212basic_stringIcNS2_11char_traitsIcEENS2_9allocatorIcEEEEPi
V1g:__Z59RuntimeInvoker_Int32_t2950945753_X509ChainStatus_t133602714PFvvEPK10MethodInfoPvPS4_
av:__ZN17AudioCustomFilterD2Ev
Cdc:__ZN11IMGUIModule26SetDeveloperConsoleVisibleEb
B2g:__Z56RuntimeInvoker_Void_t1185182177_MonoResource_t4103430009PFvvEPK10MethodInfoPvPS4_
i9a:__ZN9Transform16ResetReplacementEv
pAj:_GC_unpromote_black_lists
QUh:__ZL64DebuggerBrowsableState_t747501856_CustomAttributesCacheGeneratorP21CustomAttributesCache
PTi:_pauseGame__ctor_m895475427
Era:__ZN18GfxFramebufferGLES18ReleaseFramebufferEP17RenderSurfaceBaseP14GfxContextGLES
kjc:__Z18Transfer_BlittableI8JSONReadLb1EiEvRK29SerializationCommandArgumentsR31RuntimeSerializationCommandInfo
sSd:_TextReader_Dispose_m4253712522
sJ:__ZN19CloudServiceHandler34HandleSaveFileWebRequestPlayerLoopEv
L7h:__ZL82BigInteger_t2902905090_CustomAttributesCacheGenerator_BigInteger__ctor_m2474659844P21CustomAttributesCache
Ku:__Z31GetParentSampleClipFromInstancePN11SoundHandle8InstanceE
tvi:_InternalAsyncResult_get_BytesRead_m3975435112
hVb:__ZNK28RectTransformPropertyBinding13GetFloatValueERKN11UnityEngine9Animation10BoundCurveE
NMb:__ZN6Camera22StandaloneCustomRenderENS_10RenderFlagEP6ShaderRKN4core12basic_stringIcNS3_20StringStorageDefaultIcEEEEPNS_21PerformRenderFunctionE
VRf:_Array_InternalArray__IndexOf_TisKeyValuePair_2_t2401056908_m4118889689_gshared
Q3a:__ZNSt3__26vectorI4PPtrI6ObjectE13stl_allocatorIS3_L18MemLabelIdentifier52ELi16EEE6assignINS_11__wrap_iterIPS3_EEEENS_9enable_ifIXaasr21__is_forward_iteratorIT_EE5valuesr16is_constructibleIS3_NS_15iterator_traitsISD_E9referenceEEE5valueEvE4typeESD_SD_
Brh:_Collection_1_System_Collections_ICollection_get_IsSynchronized_m500240145_gshared
d7h:__ZL68X509CertificateCollection_t3399372417_CustomAttributesCacheGeneratorP21CustomAttributesCache
nHj:__ZN6il2cpp2os16ThreadLocalValue8GetValueEPPv
w7e:_X509Certificate2_get_PublicKey_m370665820
vCc:_cff_slot_init
_2i:__ZN6il2cpp2vm13MetadataCache14GetGenericInstEPKPK10Il2CppTypej
KD:__ZN13AudioListener17ReadExtensionNameEi
Ob:invoke_iiidii
Xkh:_Collection_1_System_Collections_Generic_ICollectionU3CTU3E_get_IsReadOnly_m1419845799_gshared
pD:__ZN9AudioClip15InitializeClassEv
mp:setThrew
bie:_SoapMethodAttribute_get_XmlNamespace_m4029617514
VWb:__ZL21BuildEmptyCubeTexturePKci11ColorRGBA3217TextureColorSpace
h9h:__ZL106AsyncOperation_t1445031843_CustomAttributesCacheGenerator_AsyncOperation_InvokeCompletionEvent_m1410305036P21CustomAttributesCache
YBg:_SelectionBaseAttribute__ctor_m2749097321
$5:__ZN14SafeBinaryRead21TransferSTLStyleArrayINSt3__26vectorIN9ShaderLab20SerializedSubProgramENS1_9allocatorIS4_EEEEEEvRT_17TransferMetaFlags
sSf:_Array_InternalArray__IndexOf_TisX509ChainStatus_t133602714_m48896230_gshared
aCa:__ZN19dynamic_block_arrayI13FileEntryInfoLj32EE4growEj
tjc:__Z15Transfer_StringI8JSONReadLb1EEvRK29SerializationCommandArgumentsR31RuntimeSerializationCommandInfo
noa:__ZN6prcoreL17RemapGenericFloatI17TexFormatRGBFloat15TexFormatRGHalfEEvPKNS_9InnerInfoE
JZh:__ZL63IContributeEnvoySink_t2817847987_CustomAttributesCacheGeneratorP21CustomAttributesCache
CHc:_sfnt_load_face
YOc:_UNITY_FT_Render_Glyph_Internal
ymj:__ZNSt3__212basic_stringIDsNS_11char_traitsIDsEENS_9allocatorIDsEEE21__grow_by_and_replaceEjjjjjjPKDs
CFc:_UNITY_ft_service_list_lookup
rhb:__Z18Transfer_BlittableI17RemapPPtrTransferLb1E11ColorRGBA32EvRK29SerializationCommandArgumentsR31RuntimeSerializationCommandInfo
$cc:__ZN5IMGUI21SelectReceivingWindowER8GUIStateb
Sld:_HMAC_Initialize_m3157696427
itf:_Decimal_System_IConvertible_ToUInt64_m1323635232
AJj:___strchrnul
bdh:_List_1_System_Collections_ICollection_CopyTo_m3643417403_gshared
UJ:__ZN13BaseAllocator13TryDeallocateEPv
wmb:__Z29Transfer_Blittable_ArrayFieldI19StreamedBinaryWriteILb0EEfEvRT_R9ArrayInfoRK23StaticTransferFieldInfo
iIh:_ListPool_1_Release_m1363449253_gshared
p6e:_X509SubjectKeyIdentifierExtension__ctor_m2055934916
q6f:_Enumerator_Dispose_m2531396701_AdjustorThunk
hbb:__ZN16MemoryFileSystem5WriteER13FileEntryDatayPvPy
cIa:__ZNSt3__26vectorIN12FlareManager10FlareEntryENS_9allocatorIS2_EEE21__push_back_slow_pathIKS2_EEvRT_
wIj:_sprintf
bgi:__ZL67NativeContainerAttribute_t2600515814_CustomAttributesCacheGeneratorP21CustomAttributesCache
n3b:__ZN9Scripting25CreateNullExceptionObjectE18ScriptingObjectPtr
GOe:_PrivateKeyInfo_DecodeRSA_m2889346634
Ev:__ZN13AudioListener17RemoveFromManagerEv
yd:_glAttachShader
yad:_ContentSizeFitter_SetLayoutHorizontal_m2833273874
nhf:__ZN28GenericInterfaceFuncInvoker1IbP22Int32U5BU5D_t385246372E6InvokeEPK10MethodInfoP12Il2CppObjectS1_
lM:__ZNK6Camera19GetProjectionMatrixEv
wqi:__ZL70InputField_t3762917431_CustomAttributesCacheGenerator_m_SelectionColorP21CustomAttributesCache
CRe:_InputField_SetToCustomIfContentTypeIsNot_m2813459946
PGg:__Z49RuntimeInvoker_DateTime_t3738529785_RuntimeObjectPFvvEPK10MethodInfoPvPS4_
Cei:__ZL70RuntimePlatform_t4159857903_CustomAttributesCacheGenerator_FlashPlayerP21CustomAttributesCache
LBf:_Guid_GetHashCode_m3042133858_AdjustorThunk
gO:__Z38PreallocateObjectFromPersistentManagerib
OGi:_Event_t2956885303_marshal_pinvoke_cleanup
PHf:_SecurityException_get_FirstPermissionThatFailed_m3934559164
obf:_Interpreter_Backtrack_m2828876822
vSa:__ZNK9Texture2D20GetUnscaledTextureIDEv
IWh:__ZL103TypeBuilder_t1073948154_CustomAttributesCacheGenerator_TypeBuilder_DefineDefaultConstructor_m2168449784P21CustomAttributesCache
cjd:_SByte_System_IConvertible_ToType_m4075253447
AUj:_glFenceSync__wrapper
zYi:__ZNK15dense_hashtableINSt3__24pairIK10KeyWrapperIPK22Il2CppGenericParameterEP11Il2CppClassEES6_N6il2cpp5utils11PointerHashIS4_EEN14dense_hash_mapIS6_S9_SE_NS6_14EqualsComparerINS0_8equal_toIS5_EEEENS0_9allocatorISA_EEE9SelectKeyESJ_SL_E8min_sizeEjj
sEg:_Transform_INTERNAL_get_worldToLocalMatrix_m2730237241
SSe:_InputField_IsValidChar_m1928072643
P2g:__Z51RuntimeInvoker_Void_t1185182177_HitInfo_t3229609740PFvvEPK10MethodInfoPvPS4_
ASa:__ZNK9Texture2D26CanReuploadDataToGfxDeviceEv
urb:__ZN18StreamedBinaryReadILb0EE21TransferSTLStyleArrayI13dynamic_arrayI4AABBLj4EEEEvRT_17TransferMetaFlags
$0h:__ZL63CodeAccessPermission_t2681295399_CustomAttributesCacheGeneratorP21CustomAttributesCache
N5a:__Z29ClearRepeatingLogMessageStatev
Ase:_InternalEnumerator_1_get_Current_m3191242573_gshared
Zvd:_Byte_Equals_m1161982810_AdjustorThunk
f2g:__Z53RuntimeInvoker_Int32_t2950945753_UICharInfo_t75501106PFvvEPK10MethodInfoPvPS4_
vVb:__ZN15QualitySettings12CleanupClassEv
onf:_SslCipherSuite_ComputeMasterSecret_m3963626850
Uue:_InternalEnumerator_1_System_Collections_IEnumerator_Reset_m500203932_AdjustorThunk
GHj:__ZNK6il2cpp8metadata21Il2CppGenericInstHashclEPK17Il2CppGenericInst
hgh:_List_1_GrowIfNeeded_m278824317_gshared
Ixa:__ZN7ApiGLESD2Ev
jFa:__ZN9Transform47ClearTransformHierarchyAndApplyToSerializedDataEv
Ikc:__ZN8JSONRead21TransferSTLStyleArrayINSt3__26vectorI8MonoPPtr13stl_allocatorIS3_L18MemLabelIdentifier1ELi16EEEEEEvRT_17TransferMetaFlags
sMd:_IntPtr_op_Explicit_m536245531
uGa:__ZN6Camera23VirtualRedirectTransferER19StreamedBinaryWriteILb0EE
cPj:dynCall_fidi
n9i:__ZN15dense_hashtableINSt3__24pairIK10KeyWrapperINS1_IPK9FieldInfoP11Il2CppClassEEEjEES9_17ReflectionMapHashIS8_EN14dense_hash_mapIS9_jSD_NS9_14EqualsComparerINS0_8equal_toIS8_EEEENS0_9allocatorISB_EEE9SelectKeyESI_SK_E12resize_deltaEjj
d9g:_List_1_TrimExcess_m3433550210_gshared
QQh:__ZL63IntPtr_t_CustomAttributesCacheGenerator_IntPtr__ctor_m987082960P21CustomAttributesCache
V$i:__ZNK15dense_hashtableINSt3__24pairIK10KeyWrapperIPK19Il2CppGenericMethodEPK26Il2CppGenericMethodIndicesEES6_N6il2cpp8metadata23Il2CppGenericMethodHashEN14dense_hash_mapIS6_SA_SE_NS6_14EqualsComparerINSD_26Il2CppGenericMethodCompareEEENS0_9allocatorISB_EEE9SelectKeyESI_SK_E8min_sizeEjj
GZh:__ZL58IContextProperty_t840037424_CustomAttributesCacheGeneratorP21CustomAttributesCache
QHi:_GUILayoutEntry__ctor_m2229197035
yI:__ZN11UnityEngine15CloudWebService14RestDownloaderD2Ev
i$d:_EnumBuilder_get_Assembly_m1175292766
LPb:__Z29StdTemplateConversionFunctionIjhEbPvR14SafeBinaryRead
oU:__ZN15dense_hashtableINSt3__24pairIKN9ShaderLab7Program23ShaderKeywordSetAndHashEPKNS2_10SubProgramEEES4_NS3_24ShaderKeywordHashFunctorEN14dense_hash_mapIS4_S8_SA_NS0_8equal_toIS4_EE13stl_allocatorIS9_L18MemLabelIdentifier67ELi16EEE9SelectKeyESD_SG_E15insert_noresizeERKS9_
XLh:_Array_swap_TisCustomAttributeNamedArgument_t287865710_TisCustomAttributeNamedArgument_t287865710_m881919420_gshared
bNa:__ZN13RenderTexture12SetDimensionE16TextureDimension
aNe:_DSAManaged_add_KeyGenerated_m2286864968
oe:_SDL_FreeRW
Pmi:__ZL109ExecuteEvents_t3484638744_CustomAttributesCacheGenerator_ExecuteEvents_U3Cs_HandlerListPoolU3Em__0_m391641698P21CustomAttributesCache
n3g:__Z79RuntimeInvoker_Void_t1185182177_Int32_t2950945753_ParameterModifier_t1461694466PFvvEPK10MethodInfoPvPS4_
yVc:__Z34CanvasRenderer_Get_Custom_PropCullP12Il2CppObject
sB:__ZN20SoundChannelInstance8getDelayE14FMOD_DELAYTYPEPjS1_
PEj:__ZNSt3__26__treeINS_12__value_typeIPvxEENS_19__map_value_compareIS2_S3_NS_4lessIS2_EELb1EEENS_9allocatorIS3_EEE12__find_equalIS2_EERPNS_16__tree_node_baseIS2_EESF_RKT_
FU:__ZNSt3__26vectorIN20GpuProgramParameters15StructParameterENS_9allocatorIS2_EEEC2ERKS5_
cme:_ArrayReadOnlyList_1_Contains_m232667507_gshared
NPg:__Z77RuntimeInvoker_Boolean_t97287965_IntPtr_t_Int32_t2950945753_SByte_t1669577662PFvvEPK10MethodInfoPvPS4_
Kxg:_PlayableHandle_GetPlayableType_m432385838_AdjustorThunk
NNc:__ZNSt3__26vectorIN20TextRenderingPrivate8FontImpl13CharacterInfoE13stl_allocatorIS3_L18MemLabelIdentifier1ELi16EEE8__appendEj
v:tempBigInt
HIh:_Array_InternalArray__Insert_TisKeyframe_t4206410242_m1558638568_gshared
k3h:__ZL77Convert_t2465617642_CustomAttributesCacheGenerator_Convert_ToByte_m3567528984P21CustomAttributesCache
we:_emscripten_glVertexAttrib1fv
I6:__ZNSt3__26vectorIN9ShaderLab20SerializedSubProgram12UAVParameterENS_9allocatorIS3_EEE7reserveEj
cMj:__ZSt11__terminatePFvvE
Wx:__ZN12AudioManager14systemCallbackEP11FMOD_SYSTEM24FMOD_SYSTEM_CALLBACKTYPEPvS3_
sgi:__ZL57PlayableOutput_t3179894105_CustomAttributesCacheGeneratorP21CustomAttributesCache
Cwh:_ReadOnlyCollection_1_System_Collections_Generic_ICollectionU3CTU3E_Clear_m3451551308_gshared
i8c:_BaseMeshEffect_OnEnable_m3291426649
jpg:_ClassLibraryInitializer_Init_m988673678
Dt:__ZN10SampleClip23VirtualRedirectTransferER24GenerateTypeTreeTransfer
eCj:_clear_marks_for_block
CMa:__ZN16ReflectionProbes16UpdateSampleDataEv
Pgi:__ZL90PlayerEditorConnectionEvents_t3411787513_CustomAttributesCacheGenerator_disconnectionEventP21CustomAttributesCache
$zf:_CultureInfo_GetCultureInfo_m56098747
MXa:__ZN14Texture2DArray5ResetEv
QJb:__Z20AddActiveLocalLightsR11CullResultsR27LocalLightCullingParametersPPK15SharedLightDataPK8Vector4fRK9IndexListPfRSA_R12ActiveLightsSG_P5RectTIfEP13TargetEyeMask
rUh:__ZL80Hashtable_t1853889766_CustomAttributesCacheGenerator_Hashtable__ctor_m1763145853P21CustomAttributesCache
gFd:_Convert_ToDecimal_m1284148187
jph:_Collection_1__ctor_m3489157029_gshared
dSj:_emscripten_glRenderbufferStorage__wrapper
Vfj:__ZNK6il2cpp2vm14TypeNameParser10NextWillBeEcb
YCc:_cf2_getNormalizedVector
Te:_JS_Sound_Play
NYc:__Z26GetUnityConnectSettingsPtrv
zxh:_ReadOnlyCollection_1_System_Collections_IList_set_Item_m1538987737_gshared
n5:__ZN9ShaderLab16SerializedShader8TransferI14SafeBinaryReadEEvRT_
Eza:__ZN5Mutex7TryLockEv
yfd:_GridLayoutGroup_set_constraint_m3308895167
vii:__ZL103AudioSource_t3935305588_CustomAttributesCacheGenerator_AudioSource_ReadExtensionPropertyValue_m72717540P21CustomAttributesCache
Zfe:_ConstructionCallDictionary_SetMethodProperty_m3145285304
rKd:_Int32_System_IConvertible_ToUInt32_m3557270157
$Tg:__Z243RuntimeInvoker_Void_t1185182177_Int16_t2552820387_RuntimeObject_Int32_t2950945753_Int32_t2950945753_Int32_t2950945753_SByte_t1669577662_SByte_t1669577662_SByte_t1669577662_SByte_t1669577662_Int16_t2552820387_SByte_t1669577662_SByte_t1669577662PFvvEPK10MethodInfoPvPS4_
Xme:_InternalEnumerator_1_System_Collections_IEnumerator_get_Current_m1503522504_gshared
NXb:__ZN19ShaderPropertySheet16SetVectorIndexedEN9ShaderLab16FastPropertyNameEifRK8Vector4fNS_8SetFlagsE
zhg:_Type_get_IsAbstract_m1120089130
KFg:_Vector3_get_normalized_m2454957984_AdjustorThunk
tq:__ZN14SafeBinaryRead21TransferSTLStyleArrayIN4core12basic_stringIcNS1_20StringStorageDefaultIcEEEEEEvRT_17TransferMetaFlags
EGi:_UriFormatException__ctor_m1115096473
Aqe:_InternalEnumerator_1_Dispose_m2818366163_AdjustorThunk
TPf:_Array_InternalArray__IEnumerable_GetEnumerator_TisSlot_t384495010_m460993382_gshared
bci:__ZL114MonoBehaviour_t3962482529_CustomAttributesCacheGenerator_MonoBehaviour_StopCoroutineViaEnumerator_Auto_m3883784228P21CustomAttributesCache
Sij:__ZN15dense_hashtableINSt3__24pairIK10KeyWrapperINS1_IP11Il2CppClassjEEES4_EES6_N6il2cpp8metadata14ArrayClassHashEN14dense_hash_mapIS6_S4_SB_NS6_14EqualsComparerINSA_17ArrayClassCompareEEENS0_9allocatorIS8_EEE9SelectKeyESF_SH_E9copy_fromERKSK_j
nQb:__Z29StdTemplateConversionFunctionIayEbPvR14SafeBinaryRead
aeg:_WaitHandle__ctor_m1707080176
X6g:__Z55RuntimeInvoker_Boolean_t97287965_Nullable_1_t2603721331PFvvEPK10MethodInfoPvPS4_
zJi:_GUIUtility_IsExitGUIException_m3644066650
$I:__ZN11UnityEngine15CloudWebService14DataDispatcher4StopEv
lad:_ColorBlock_GetHashCode_m4264192507
gId:_Int16_System_IConvertible_ToUInt64_m134975563
K6:__ZNSt3__26vectorIN9ShaderLab20SerializedSubProgram12UAVParameterENS_9allocatorIS3_EEE8__appendEj
WXh:__ZL68TargetInvocationException_t4266643902_CustomAttributesCacheGeneratorP21CustomAttributesCache
Ucj:__ZNK15dense_hashtableINSt3__24pairIK10KeyWrapperINS1_IPK9EventInfoP11Il2CppClassEEEjEES9_17ReflectionMapHashIS8_EN14dense_hash_mapIS9_jSD_NS9_14EqualsComparerINS0_8equal_toIS8_EEEENS0_9allocatorISB_EEE9SelectKeyESI_SK_E12test_deletedERK24dense_hashtable_iteratorISB_S9_SD_SM_SI_SK_E
Tcc:__ZN5IMGUI9GUIWindow5OnGUIER8GUIState
$Ri:_AudioConfigurationChangeHandler_EndInvoke_m4175380841
zIf:_Single_System_IConvertible_ToDecimal_m325860800_AdjustorThunk
RUf:_Array_InternalArray__ICollection_CopyTo_TisSingle_t1397266774_m455540885_gshared
YAa:__ZN17ScriptingGCHandle7AcquireE18ScriptingObjectPtr25ScriptingGCHandleWeakness
$Rg:__Z74RuntimeInvoker_RuntimeObject_RuntimeObject_Int64_t3736567304_RuntimeObjectPFvvEPK10MethodInfoPvPS4_
yTc:__ZN2UI14CanvasRenderer14AttachToCanvasER8JobFencePNS_6CanvasENS0_15InstructionTypeE
OFe:_Enumerator__ctor_m1734342590_gshared
ZNj:dynCall_iifiii
wTg:__Z85RuntimeInvoker_Int32_t2950945753_RuntimeObject_Int32U26_t1369213839_Int32_t2950945753PFvvEPK10MethodInfoPvPS4_
nma:__Z21HasAlphaTextureFormat13TextureFormat
$C:__ZN12AudioManager6UpdateEv
gma:__ZN14ImageReference9BlitImageERKS_NS_8BlitModeE
RTd:_MissingFieldException__ctor_m3742452630
k9e:_X509Chain__ctor_m2674663382
Dwh:_ReadOnlyCollection_1_System_Collections_Generic_IListU3CTU3E_Insert_m1121807192_gshared
Itb:__ZN23CachedSerializationDataD2Ev
NLb:__ZNK25CameraStackRenderingState31CalculateStereoCameraTargetTypeEv
cMa:__ZN14RenderSettings23VirtualRedirectTransferER14SafeBinaryRead
Ive:_InternalEnumerator_1_get_Current_m114240259_gshared
usc:__ZNK13b2CircleShape5CloneEP16b2BlockAllocator
ivj:__ZN6il2cpp2os10ThreadImpl15CurrentThreadIdEv
RIh:_Array_InternalArray__Insert_TisVector2_t2156229523_m2148694950_gshared
FJa:__ZN17GlobalGameManager8TransferI17RemapPPtrTransferEEvRT_
REf:_SymmetricAlgorithm_get_Key_m3241860519
WTe:_U3CMouseDragOutsideRectU3Ec__Iterator1_Reset_m2233410497
mRe:_InputField_set_customCaretColor_m720445789
KLa:__ZN16LevelGameManager8TransferI18StreamedBinaryReadILb0EEEEvRT_
wLc:_UNITY_tt_face_load_fpgm
dFa:__Z17IsObjectAvailablei
U0a:__ZN12InputManagerD0Ev
vih:_Queue_1_Peek_m1713833142_gshared
Q$h:__ZL64DSASignatureFormatter_t2007981259_CustomAttributesCacheGeneratorP21CustomAttributesCache
keg:_ExecutionContext_Capture_m681135907
yYf:_Dictionary_2_System_Collections_IDictionary_Add_m4011968134_gshared
Zpb:__Z18Transfer_BlittableI18StreamedBinaryReadILb0EELb1EtEvRK29SerializationCommandArgumentsR31RuntimeSerializationCommandInfo
noe:_InternalEnumerator_1_System_Collections_IEnumerator_get_Current_m2889979481_AdjustorThunk
YKj:_posix_memalign
dzg:_Rect_get_position_m2115952571
ndi:__ZL90SceneManager_t2787271929_CustomAttributesCacheGenerator_SceneManager_LoadScene_m1758133949P21CustomAttributesCache
Ruh:_ReadOnlyCollection_1_get_Item_m4005849861_gshared
l0e:_Slider_get_direction_m3871593184
tMe:_ASN1_GetBytes_m3305539297
Agh:_List_1_Remove_m2092116835_gshared
P3h:__ZL77Convert_t2465617642_CustomAttributesCacheGenerator_Convert_ToSByte_m717245755P21CustomAttributesCache
Xxe:_DefaultComparer__ctor_m2039558311_gshared
kO:__ZNK15MonoScriptCache7ReleaseEv
vZi:__ZN6il2cpp2vm5Class13HasReferencesEP11Il2CppClass
Ixd:_CLSCompliantAttribute__ctor_m581760440
gg:_glBindTexture
nJj:_snprintf
xMd:_InvalidCastException__ctor_m2551002860
pZg:__Z50RuntimeInvoker_RuntimeObject_Resources_t1597885468PFvvEPK10MethodInfoPvPS4_
xbc:__Z51Register_UnityEngine_Physics2D_get_gravity_Injectedv
Z2g:__Z76RuntimeInvoker_Void_t1185182177_Int32_t2950945753_KeyValuePair_2_t2401056908PFvvEPK10MethodInfoPvPS4_
l7a:__Z36scripting_liveness_calculation_begin17ScriptingClassPtriPFvPP12Il2CppObjectiPvES3_PFvvES7_
MRi:_AudioExtensionManager_RemoveExtensionFromManager_m442924172
TRj:_emscripten_glGetProgramInfoLog__wrapper
Ms:__ZN25AnimatedPropertyEvaluator29BindCurveToScriptingObjectPtrERKN13AnimationClip10FloatCurveEj18ScriptingObjectPtrb
_0h:__ZL80AllowPartiallyTrustedCallersAttribute_t1828959166_CustomAttributesCacheGeneratorP21CustomAttributesCache
loi:__ZL52InputMode_t3382566315_CustomAttributesCacheGeneratorP21CustomAttributesCache
gQ:__ZN17PersistentManager23DestroyFromFileInternalEi
erg:_Display__ctor_m501911701
lth:_ReadOnlyCollection_1_System_Collections_Generic_IListU3CTU3E_Insert_m1020890112_gshared
icd:_Dropdown_get_onValueChanged_m2462066659
wbd:_DefaultControls_SetDefaultTextValues_m1943359795
YEb:__Z19SetupMotionMatricesR6CameraR18RPDataMotionVector
aYi:__ZL7log2_64y
tfd:_GridLayoutGroup_get_cellSize_m2967185053
lof:_CurrentSystemTimeZone_GetUtcOffset_m340358963
Nxi:_PKCS12_Decrypt_m1280162536
woe:_InternalEnumerator_1_get_Current_m3081223448_gshared
gHi:_Event_get_isMouse_m1058251071
MKa:__ZN10VertexDataC2ERKS_17ShaderChannelMask10MemLabelId
yAd:_CaseInsensitiveHashCodeProvider_AreEqual_m1790260777
mjh:_Collection_1_IndexOf_m3762683187_gshared
dGc:_otv_JSTF_validate
IU:__ZN22CreateGpuProgramOutputC2Ev
Qdf:_BigInteger_op_LessThanOrEqual_m3925173639
psg:_PersistentCallGroup_Initialize_m4253175514
nud:_Boolean_System_IConvertible_ToChar_m4279513009_AdjustorThunk
xBd:_Hashtable__ctor_m1763145853
lge:_LogicalCallContext__ctor_m1263247987
vJd:_NumberFormatter_ScaleOrder_m3813786990
q8f:_List_1_GetEnumerator_m239622569_gshared
jpi:__ZL60OptionData_t3270282352_CustomAttributesCacheGenerator_m_TextP21CustomAttributesCache
uZg:__Z43RuntimeInvoker_VerticalWrapMode_t2936607737PFvvEPK10MethodInfoPvPS4_
mFh:__ZN25GenericVirtActionInvoker2IP12Il2CppObjectS1_E6InvokeEPK10MethodInfoS1_S1_S1_
HOe:_PrivateKeyInfo_DecodeDSA_m771724585
s3h:__ZL81Convert_t2465617642_CustomAttributesCacheGenerator_Convert_ToDateTime_m1031474510P21CustomAttributesCache
Gaj:__ZNK15dense_hashtableINSt3__24pairIK10KeyWrapperINS1_IPK10MethodInfoP11Il2CppClassEEEjEES9_17ReflectionMapHashIS8_EN14dense_hash_mapIS9_jSD_NS9_14EqualsComparerINS0_8equal_toIS8_EEEENS0_9allocatorISB_EEE9SelectKeyESI_SK_E23find_position_with_hashERSA_j
omi:__ZL53EventHandle_t600343995_CustomAttributesCacheGeneratorP21CustomAttributesCache
HYb:__ZN8GUILayer12CleanupClassEv
Ezd:_SynchronizedArrayListWrapper_get_SyncRoot_m3862302789
r8g:_List_1_System_Collections_IEnumerable_GetEnumerator_m839737540_gshared
fkg:_UInt32_System_IConvertible_ToSByte_m1061556466
_ce:_WellKnownClientTypeEntry__ctor_m2471908952
uZi:__ZN6il2cpp2vm5Class4InitEP11Il2CppClass
ha:invoke_vidi
AWd:_NumberFormatter_FormatRoundtrip_m19342689
dbe:_RemotingServices_CreateClientProxyForContextBound_m783705199
u_g:__Z30RuntimeInvoker_Axis_t809944411PFvvEPK10MethodInfoPvPS4_
Tsd:_Array_slow_swapper_m4116724811
Gui:_InternalAsyncResult_get_ProceedAfterHandshake_m2508379800
PTc:__ZN2UI14CanvasRenderer17SyncDirtyElementsER8JobFence
Vpb:__Z18Transfer_BlittableI18StreamedBinaryReadILb0EELb0ExEvRK29SerializationCommandArgumentsR31RuntimeSerializationCommandInfo
Swd:_Convert_ToUInt16_m2952781888
RAe:_Enumerator_System_Collections_IEnumerator_get_Current_m3816090481_gshared
byj:__ZN6il2cpp5utils11StringUtils15StringDuplicateEPKc
i$f:_DefaultComparer_Equals_m2480133610_gshared
_T:__ZNK9ShaderLab21ShaderRasterStateDesc16ToGfxRasterStateEPK19ShaderPropertySheetS3_R14GfxRasterState
OLh:_Array_Sort_TisVector3_t3722313464_m1915176437_gshared
uHj:__ZN6il2cpp2os9EventImplC2Ebb
X8f:_List_1_System_Collections_IList_get_IsFixedSize_m3566150119_gshared
jr:__ZN4PPtrI13MonoBehaviourE8TransferI19StreamedBinaryWriteILb0EEEEvRT_
_bh:_List_1_get_Item_m2113769949_gshared
jIa:__ZN12FlareManager12RemoveCameraER6Camera
TBg:_ScriptableObject_t2528358522_marshal_pinvoke
YU:__Z20IsMatrixBuiltinParamPKcPi
sdj:__ZN6il2cpp2gc19AppendOnlyGCHashMapINSt3__24pairIPK10MethodInfoP11Il2CppClassEEP11Il2CppArray17ReflectionMapHashIS9_ENS2_8equal_toIS9_EEEC2Ev
iGf:_String_memcpy4_m979367827
XHf:_SecurityFrame_t1422462475_marshal_pinvoke
Naj:__ZN15dense_hashtableINSt3__24pairIK10KeyWrapperINS1_IPK10MethodInfoP11Il2CppClassEEEjEES9_17ReflectionMapHashIS8_EN14dense_hash_mapIS9_jSD_NS9_14EqualsComparerINS0_8equal_toIS8_EEEENS0_9allocatorISB_EEE9SelectKeyESI_SK_E16reset_thresholdsEv
ocg:_UnicodeEncoding_GetBytesInternal_m1902824297
uXb:__ZN8Renderer19PostInitializeClassEv
qRf:_Array_FindIndex_TisRuntimeObject_m2504082708_gshared
Vdc:__Z38Register_UnityEngine_Event_get_rawTypev
Ezi:_X509Chain_FindCertificateRoot_m1937726457
bqe:_InternalEnumerator_1__ctor_m217498388_AdjustorThunk
JDj:__ZN6il2cpp6icalls8mscorlib6System8Delegate23CreateDelegate_internalEP20Il2CppReflectionTypeP12Il2CppObjectP22Il2CppReflectionMethodb
SBe:_Enumerator_System_Collections_IEnumerator_get_Current_m921113401_AdjustorThunk
SKb:__ZNK13RendererScene22GetStaticBoundingBoxesEv
atb:__ZN18DelayedCallManager18CancelCallDelayed2E4PPtrI6ObjectEPF15CallObjectStatePS1_PvES7_
gvg:_Matrix4x4_GetHashCode_m4034747639
Kya:__ZN25ThreadsafeLinearAllocator10ReallocateEPvji
_cb:__Z18Transfer_BlittableI14SafeBinaryReadLb1E11QuaternionfEvRK29SerializationCommandArgumentsR31RuntimeSerializationCommandInfo
H4:__ZN18SpriteAtlasManagerD0Ev
g3f:_GenericEqualityComparer_1__ctor_m1058369027_gshared
v0g:__Z57RuntimeInvoker_Boolean_t97287965_KeyValuePair_2_t71524366PFvvEPK10MethodInfoPvPS4_
JZa:__ZN10Matrix4x4f8TransferI14SafeBinaryReadEEvRT_
Tbj:__ZNK10KeyWrapperINSt3__24pairIPK12PropertyInfoP11Il2CppClassEEE14EqualsComparerINS0_8equal_toIS7_EEEclERKS8_SE_
ckd:_CryptographicUnexpectedOperationException__ctor_m2381988196
Xdj:__ZN14dense_hash_mapI10KeyWrapperIPK22Il2CppGenericParameterEPK24MonoGenericParameterInfoN6il2cpp5utils11PointerHashIS2_EENS4_14EqualsComparerINSt3__28equal_toIS3_EEEENSD_9allocatorINSD_4pairIKS4_S7_EEEEE15set_deleted_keyERSJ_
$qe:_InternalEnumerator_1_System_Collections_IEnumerator_get_Current_m4213507601_gshared
k$:__Z6AppendRKN4core12basic_stringIcNS_20StringStorageDefaultIcEEEEPKc
M5g:__Z74RuntimeInvoker_DictionaryEntry_t3123975638_RuntimeObject_SByte_t1669577662PFvvEPK10MethodInfoPvPS4_
k7a:__ZL14OnWorldStoppedv
aQf:_Array_InternalArray__IEnumerable_GetEnumerator_TisCustomAttributeNamedArgument_t287865710_m523021714_gshared
Grh:__ZN21InterfaceFuncInvoker1I19Vector4_t3319028937iE6InvokeEjP11Il2CppClassP12Il2CppObjecti
Kmb:__Z18Transfer_BlittableI18StreamedBinaryReadILb1EELb0E8Vector3fEvRK29SerializationCommandArgumentsR31RuntimeSerializationCommandInfo
rCd:_HashKeys_get_SyncRoot_m3757723936
sJi:_GUIUtility_RemoveCapture_m1294193818
hia:__ZN7ApiGLES18ClearBufferSubDataEjN2gl12BufferTargetEll
z4b:__Z37Camera_Get_Custom_PropAllCamerasCountv
fYa:__ZN14Texture2DArray8TransferI18StreamedBinaryReadILb0EEEEvRT_
tfh:_List_1_CopyTo_m2746988508_gshared
ZIb:__Z18ApplyOcclusionMaskR19ProbeOcclusionCacheRK17LightProbeContextRK10RenderNodeb
Qfa:__ZN13GfxDeviceGLES13AfterDrawCallEv
ZMc:_Split_Cubic
eb:invoke_fiiii
tTe:_InputField_OnSubmit_m3583210804
k8h:__ZL64CipherSuiteCollection_t1129639304_CustomAttributesCacheGeneratorP21CustomAttributesCache
gki:__ZL72GUISkin_t1244372282_CustomAttributesCacheGenerator_m_horizontalScrollbarP21CustomAttributesCache
RFi:_Uri_CheckHostName_m2213216182
qTj:_emscripten_glBindRenderbuffer__wrapper
rNh:_Mesh_SetUvsImpl_TisVector2_t2156229523_m3009194955_gshared
bmg:_ValueType_InternalEquals_m1384040357
QLh:_Array_Sort_TisVector4_t3319028937_TisVector4_t3319028937_m4254533673_gshared
wve:_InternalEnumerator_1_System_Collections_IEnumerator_Reset_m729791527_AdjustorThunk
Jyd:_ArrayListWrapper_Contains_m2641184447
LMc:_ft_black_render
iPg:__Z177RuntimeInvoker_Int32_t2950945753_RuntimeObject_Int32_t2950945753_Int32_t2950945753_RuntimeObject_Int32_t2950945753_EncoderFallbackBufferU26_t2343550713_CharU5BU5DU26_t3299466565PFvvEPK10MethodInfoPvPS4_
jPj:dynCall_viiifi
Rqa:__ZN18GfxFramebufferGLES20ActiveContextChangedEPP17RenderSurfaceBaseS2_
Txd:_ArrayList_get_IsFixedSize_m24366329
Iqa:__Z19PluginsRenderMarkeri
xxe:_InternalEnumerator_1__ctor_m2307827786_AdjustorThunk
R6:__ZNSt3__26vectorIN9ShaderLab20SerializedSubProgram15StructParameterENS_9allocatorIS3_EEE6assignINS_11__wrap_iterIPS3_EEEENS_9enable_ifIXaasr21__is_forward_iteratorIT_EE5valuesr16is_constructibleIS3_NS_15iterator_traitsISC_E9referenceEEE5valueEvE4typeESC_SC_
LXa:__ZN14Texture2DArray21AwakeFromLoadThreadedEv
cXi:_Physics2D_INTERNAL_CALL_Internal_Linecast_m2595034268
Vqb:__Z29Transfer_Blittable_ArrayFieldI18StreamedBinaryReadILb0EEyEvRT_R9ArrayInfoRK23StaticTransferFieldInfo
qDg:_Touch_get_position_m3109777936_AdjustorThunk
Hqj:__ZNSt3__214__split_bufferIN6il2cpp2vm5Image20EmbeddedResourceDataERNS_9allocatorIS4_EEEC2EjjS7_
N8c:_CanvasScaler_set_screenMatchMode_m2975492035
iv:__ZN12AudioManager17RemoveAudioSourceEP11AudioSource
u8e:_X509Certificate2Collection_Add_m3151757943
DSh:__ZL83RuntimeArray_CustomAttributesCacheGenerator_RuntimeArray____LongLength_PropertyInfoP21CustomAttributesCache
tze:_Comparer_1__cctor_m951016718_gshared
CAd:_CaseInsensitiveHashCodeProvider_get_DefaultInvariant_m4264275163
n5h:__ZL67IndexOutOfRangeException_t1578797820_CustomAttributesCacheGeneratorP21CustomAttributesCache
APg:__Z195RuntimeInvoker_Int32_t2950945753_RuntimeObject_Int32_t2950945753_Int32_t2950945753_Int32_t2950945753_RuntimeObject_DecoderFallbackBufferU26_t3866396827_ByteU5BU5DU26_t4057885439_SByte_t1669577662PFvvEPK10MethodInfoPvPS4_
XAi:_MatchCollection_get_Count_m1586545784
OE:__ZN5physx14PxLightCpuTask12addReferenceEv
ksc:__Z10b2DistanceP16b2DistanceOutputP14b2SimplexCachePK15b2DistanceInput
e1g:__Z86RuntimeInvoker_Int32_t2950945753_Color32_t2600501292_Color32_t2600501292_RuntimeObjectPFvvEPK10MethodInfoPvPS4_
JUa:__ZN21EnlightenSceneMapping8TransferI19StreamedBinaryWriteILb0EEEEvRT_
usj:__ZN6il2cpp2gc16GarbageCollector19InitializeFinalizerEv
qyh:_ReadOnlyCollection_1_System_Collections_Generic_ICollectionU3CTU3E_get_IsReadOnly_m2508509261_gshared
ycc:__ZN10GUIManager10DoGUIEventER10InputEventb
MPi:__ZL25UnresolvedVirtualCall_221P12Il2CppObject19TimeSpan_t881159249S1_PK10MethodInfo
Sib:__Z35Transfer_Blittable_FixedBufferFieldI24GenerateTypeTreeTransferxEvRK29SerializationCommandArgumentsR31RuntimeSerializationCommandInfo
TGc:_otv_LangSys_validate
gAg:_RectOffset_get_right_m2294081512
$3d:__ZN25GenericVirtActionInvoker1IP20Delegate_t1188392813E6InvokeEPK10MethodInfoP12Il2CppObjectS1_
eJh:_Array_InternalArray__set_Item_TisLink_t544317964_m1234244240_gshared
CLc:_UNITY_TT_Init_Glyph_Loading
ZDb:__Z20CalculateSqrDistanceRK8Vector3fRK4AABB
ocd:_OptionData_get_text_m2997376818
Ohd:_SerializationInfo_GetBoolean_m1756153320
Hz:__Z32AudioMixerDuckingProcessCallbackP21UnityAudioEffectStatePfS1_jii
EZe:_U3CClickRepeatU3Ec__Iterator0_System_Collections_IEnumerator_get_Current_m543328413
Lvg:_Mesh_get_uv2_m3615020997
cth:_ReadOnlyCollection_1_Contains_m2979956790_gshared
yWb:__ZN26CustomRenderTextureManagerD2Ev
i0f:_EqualityComparer_1_System_Collections_IEqualityComparer_Equals_m4172006498_gshared
aw:__ZN12AudioManager8TransferI24GenerateTypeTreeTransferEEvRT_
hKh:_Array_qsort_TisOrderBlock_t1585977831_m3322202512_gshared
Uug:_Mathf_Round_m4098141538
lla:__Z25GetBytesFromTextureFormat13TextureFormat
BYa:__ZN9Texture3D19UnloadFromGfxDeviceEb
Xlj:__ZN6il2cpp6icalls8mscorlib6System9Threading6Thread20Thread_free_internalEP12Il2CppThreadi
jNj:dynCall_iiffi
$gb:__Z18Transfer_BlittableI17RemapPPtrTransferLb0EsEvRK29SerializationCommandArgumentsR31RuntimeSerializationCommandInfo
ckh:_Collection_1_get_Item_m4103760396_gshared
h3e:__KeysEnumerator_get_Current_m2996478063
yXd:_AmbiguousMatchException__ctor_m2012725345
YP:__Z32scripting_class_get_assemblyname17ScriptingClassPtr
EXc:__ZN11UnityEngine15PlatformWrapper15GetVRDeviceNameEv
Tti:__ZL109LayoutUtility_t2745813735_CustomAttributesCacheGenerator_LayoutUtility_U3CGetFlexibleWidthU3Em__3_m1091238571P21CustomAttributesCache
cZg:__Z99RuntimeInvoker_Boolean_t97287965_Int32_t2950945753_PointerEventDataU26_t867828220_SByte_t1669577662PFvvEPK10MethodInfoPvPS4_
Hpe:_InternalEnumerator_1_get_Current_m2128158355_AdjustorThunk
Mwa:__ZN9GfxDevice21RegisterNativeTextureE9TextureIDi16TextureDimension
eed:_GraphicRegistry__ctor_m1851575309
L2g:__Z52RuntimeInvoker_Void_t1185182177_Keyframe_t4206410242PFvvEPK10MethodInfoPvPS4_
k6h:__ZL53TypeFilter_t2356120900_CustomAttributesCacheGeneratorP21CustomAttributesCache
ZEj:__ZN6il2cpp6icalls8mscorlib6System10Reflection4Emit11TypeBuilder20create_generic_classEP27Il2CppReflectionTypeBuilder
EDf:_SHA1Internal_FillBuff_m3615718415
dPf:_PlayableHandle_IsPlayableOfType_TisAnimationLayerMixerPlayable_t3631223897_m201603007_gshared
l2h:__ZL50Monitor_t2197244473_CustomAttributesCacheGeneratorP21CustomAttributesCache
l6i:__ZNSt3__26vectorIPK10MethodInfoNS_9allocatorIS3_EEE26__swap_out_circular_bufferERNS_14__split_bufferIS3_RS5_EE
eef:_PrimalityTest_EndInvoke_m1035389364
sE:__Z60Register_UnityEngine_AudioListener_GetNumExtensionPropertiesv
$i:_emscripten_glUniformMatrix4fv
fjj:__ZN15dense_hashtableINSt3__24pairIK10KeyWrapperINS1_IP11Il2CppClassjEEES4_EES6_N6il2cpp8metadata14ArrayClassHashEN14dense_hash_mapIS6_S4_SB_NS6_14EqualsComparerINSA_17ArrayClassCompareEEENS0_9allocatorIS8_EEE9SelectKeyESF_SH_E13set_empty_keyERKS8_
S7a:__ZN12ScriptMapperD2Ev
UFe:_Enumerator_Dispose_m3040896940_AdjustorThunk
aXj:b100
Ovg:_Mesh_get_colors32_m1253190811
ZAj:_GC_stopped_mark
Tmg:_AnimationCurve_Finalize_m2397002729
K1e:_Text_OnEnable_m616205807
m7g:__Z50RuntimeInvoker_RuntimeObject_ColorTween_t809614380PFvvEPK10MethodInfoPvPS4_
dxe:_InternalEnumerator_1__ctor_m945079686_AdjustorThunk
ahd:_SerializationCallbacks__cctor_m1674315180
cIg:__Z194RuntimeInvoker_Void_t1185182177_ByteU2AU26_t57153304_ByteU2AU26_t57153304_DoubleU2AU26_t3650786047_UInt16U2AU26_t531067350_UInt16U2AU26_t531067350_UInt16U2AU26_t531067350_UInt16U2AU26_t531067350PFvvEPK10MethodInfoPvPS4_
V7:__Z32TransferEnumWithNameForceIntSizeI14SafeBinaryRead7FogModeEvRT_RT0_PKc17TransferMetaFlags
j9b:__Z52Register_UnityEngine_RenderTexture_Internal_GetWidthv
zNi:__ZL25UnresolvedVirtualCall_100P12Il2CppObjectiPK10MethodInfo
R9:__ZN9ShaderLab20SerializedSubProgram16TextureParameter8TransferI19StreamedBinaryWriteILb0EEEEvRT_
nya:__ZNK7Hash12812PackToUInt32Ev
Kzd:_SynchronizedArrayListWrapper_IndexOf_m3642674350
LR:__ZNSt3__227__insertion_sort_incompleteIRNS_6__lessI14ObjectLoadDataS2_EEPS2_EEbT0_S6_T_
hJ:__ZN11UnityEngine15CloudWebService16SessionContainer8AddEventEPNS0_14CloudEventInfoE
Bva:__Z4TrimRKN4core12basic_stringIcNS_20StringStorageDefaultIcEEEES5_
Tvh:_ReadOnlyCollection_1_CopyTo_m209634623_gshared
Dvc:__ZN13dynamic_arrayIN19CompositeCollider2D11SubColliderELj4EE12emplace_backEv
KMh:_Dictionary_2_Do_ICollectionCopyTo_TisKeyValuePair_2_t3842366416_m1399105608_gshared
Ami:__ZL77ExecuteEvents_t3484638744_CustomAttributesCacheGenerator_U3CU3Ef__mgU24cache2P21CustomAttributesCache
G7e:_X509Certificate2_Import_m4026562329
yUj:_glGetStringi__wrapper
rTi:_cameraSystem__ctor_m2700167188
FWa:__ZN10VertexData8TransferI14SafeBinaryReadEEvRT_
$la:__ZN11TextureData17GetImageReferenceEii
NCj:_GC_malloc_atomic
Tae:_ActivatedClientTypeEntry_ToString_m2494181680
f4f:_HashSet_1_GetEnumerator_m3346268098_gshared
wFj:__ZN6il2cpp5utils6Memory13AlignedMallocEjj
cyg:_PropertyName_GetHashCode_m3570549176_AdjustorThunk
efi:__ZL55PropertyName_t3749835189_CustomAttributesCacheGeneratorP21CustomAttributesCache
zTe:_Selectable_get_animator_m2899312855
hqg:__ZN23GenericVirtFuncInvoker5I19CSSSize_t3377836552ififiE6InvokeEPK10MethodInfoP12Il2CppObjectififi
aN:__ZL20SortItemByInstanceIDRKN18AwakeFromLoadQueue4ItemES2_
pFg:_Vector2_op_Multiply_m2347887432
udd:_FontData_get_maxSize_m195374730
z3e:_TypeConverterAttribute__ctor_m1774069684
n_c:__ZN20UnityConnectSettings8TransferI24GenerateTypeTreeTransferEEvRT_
Pod:_Byte_ToString_m4063101981
_Ud:_MonoType_GetConstructors_m2574682189
MBg:_SceneManager_LoadSceneAsyncNameIndexInternal_m4031498323
jxj:__ZNK15dense_hashtableINSt3__24pairIK10KeyWrapperIPK19Il2CppGenericMethodEP10MethodInfoEES6_N6il2cpp8metadata23Il2CppGenericMethodHashEN14dense_hash_mapIS6_S9_SD_NS6_14EqualsComparerINSC_26Il2CppGenericMethodCompareEEENS0_9allocatorISA_EEE9SelectKeyESH_SJ_E10test_emptyERK30dense_hashtable_const_iteratorISA_S6_SD_SL_SH_SJ_E
CZh:__ZL59SinkProviderData_t4151372974_CustomAttributesCacheGeneratorP21CustomAttributesCache
dye:__ZN21InterfaceFuncInvoker1Ii22OrderBlock_t1585977831E6InvokeEjP11Il2CppClassP12Il2CppObjectS0_
Q0:__ZL31InitializeRendererUpdateManagerPv
$Zd:_ParameterInfo__ctor_m2779026345
tRe:_InputField_set_onValueChange_m1251390545
Edd:_FontData_get_verticalOverflow_m4132840071
Bnd:_DeriveBytes_set_Password_m3005258189
sWd:_NumberFormatter_get_IsZeroInteger_m2263284741
zD:__ZN13AudioListener12CleanupClassEv
j1:__Z13GetIEnlightenv
fCg:_HitInfo_t3229609740_marshal_pinvoke
cwi:_X509Certificate_PEM_m2020851166
OLe:_BigInteger_op_GreaterThanOrEqual_m700865613
CVf:_Array_InternalArray__Insert_TisDateTime_t3738529785_m2308632330_gshared
D1a:__ZN11TimeManager8TransferI19StreamedBinaryWriteILb0EEEEvRT_
Ilf:_TlsServerCertificateRequest_ProcessAsTls1_m3214041063
nHc:_compare_uni_maps
$Wg:__Z72RuntimeInvoker_Boolean_t97287965_Vector2_t2156229523_Vector2_t2156229523PFvvEPK10MethodInfoPvPS4_
tYc:__ZN11UnityEngine15PlatformWrapper27GetGraphicsCapsSupportFlagsEv
iSc:__ZNSt3__218__insertion_sort_3IRPFbPN2UI6CanvasES3_EPS3_EEvT0_S8_T_
tmb:__ZN12NativeBufferI16Converter_StringE15SetupForWritingER9ArrayInfo
_3:__ZN13RuntimeStaticI18AssetBundleManagerLb1EE16StaticInitializeEPv
VQj:___cxa_end_catch__wrapper
xTg:__Z121RuntimeInvoker_Int32_t2950945753_RuntimeObject_Int32U26_t1369213839_Int32_t2950945753_Int32_t2950945753_Int32_t2950945753PFvvEPK10MethodInfoPvPS4_
yxd:_Char_ToString_m278452217
Ghf:_CipherSuite_get_DecryptionCipher_m2839827488
qHg:__Z32RuntimeInvoker_Boolean_t97287965PFvvEPK10MethodInfoPvPS4_
KFb:__ZNK4PPtrI5LightEcvPS0_Ev
Ldf:_BigInteger_op_RightShift_m460065452
Ltb:__ZN13MonoBehaviour22DoScriptRebuildWarningEv
B4b:__Z38Camera_CUSTOM_INTERNAL_CALL_RaycastTryP12Il2CppObjectRK3Rayfi
Zkj:__ZN6il2cpp6icalls8mscorlib6System5Array13ClearInternalEP11Il2CppArrayii
kRc:__Z38TextGenerator_Get_Custom_PropLineCountP12Il2CppObject
LMj:_llvm_cttz_i32
Jag:_Encoding_GetEncoding_m2801244948
Adc:__ZN11IMGUIModule25GetGUIStyleScriptingClassEv
RJc:_tt_get_interface
qvi:_SslStreamBase_EndRead_m495357226
Ilj:__ZN6il2cpp5utils9PathUtils7CombineIcEENSt3__212basic_stringIT_NS3_11char_traitsIS5_EENS3_9allocatorIS5_EEEERKSA_SC_
ijc:__ZN9JSONWrite8TransferI13dynamic_arrayIiLj4EEEEvRT_PKc17TransferMetaFlags
$nh:_Collection_1_System_Collections_IList_get_IsFixedSize_m214626114_gshared
TRg:__Z64RuntimeInvoker_RuntimeObject_SByte_t1669577662_SByte_t1669577662PFvvEPK10MethodInfoPvPS4_
ev:__ZL16FMOD_ErrorString11FMOD_RESULT_363
T5f:_Enumerator_System_Collections_IEnumerator_get_Current_m713684915_AdjustorThunk
G2f:_GenericComparer_1_Compare_m459680062_gshared
E$d:_EnumBuilder_GetConstructorImpl_m3068576149
KO:__Z18ConvertUTF16toUTF8PPKtS0_PPhS2_15ConversionFlags
Ewj:__ZN6il2cpp2os20PathErrnoToErrorCodeERKNSt3__212basic_stringIcNS1_11char_traitsIcEENS1_9allocatorIcEEEEi
mqi:__ZL68InputField_t3762917431_CustomAttributesCacheGenerator_m_KeyboardTypeP21CustomAttributesCache
PXi:__ZL16my_g_bit_nth_msfj
F5h:__ZL65NonSerializedAttribute_t2945079482_CustomAttributesCacheGeneratorP21CustomAttributesCache
ujj:__ZN15dense_hashtableINSt3__24pairIK10KeyWrapperIP11Il2CppClassES4_EES5_N6il2cpp8metadata16SZArrayClassHashEN14dense_hash_mapIS5_S4_SA_NS5_14EqualsComparerINS9_19SZArrayClassCompareEEENS0_9allocatorIS7_EEE9SelectKeyESE_SG_E12expand_arrayEjN21dense_hash_map_traits17integral_constantIbLb0EEE
Zog:__ZN30GenericInterfaceActionInvoker1IP18Camera_t4157153871E6InvokeEPK10MethodInfoP12Il2CppObjectS1_
n_f:_DefaultComparer_GetHashCode_m3369508712_gshared
Shh:_Enumerator_MoveNext_m3662315381_AdjustorThunk
qlf:_TlsClientFinished_ProcessAsTls1_m2429863130
Qae:_ActivatedClientTypeEntry_get_ApplicationUrl_m2894992111
jCb:__Z23SetupStereoFlareElementP11FlareVertexRK8Vector2fS3_S3_RK11ColorRGBA32RK10Matrix4x4fRK8Vector3fb
Jdi:__ZL81Transform_t3600365921_CustomAttributesCacheGenerator_Transform_Rotate_m3172098886P21CustomAttributesCache
eMi:__ZL24UnresolvedVirtualCall_25P12Il2CppObjectS0_S0_PK10MethodInfo
IZi:__ZN6il2cpp2vm5Class15GetInstanceSizeEPK11Il2CppClass
amg:_ValueType__ctor_m2036258423
ta:invoke_iiiifiiii
zRe:_InputField_EnforceContentType_m2436948794
moh:__ZN23InterfaceActionInvoker2Ii20UICharInfo_t75501106E6InvokeEjP11Il2CppClassP12Il2CppObjectiS0_
bjj:__ZNK15dense_hashtableINSt3__24pairIK10KeyWrapperINS1_IP11Il2CppClassjEEES4_EES6_N6il2cpp8metadata14ArrayClassHashEN14dense_hash_mapIS6_S4_SB_NS6_14EqualsComparerINSA_17ArrayClassCompareEEENS0_9allocatorIS8_EEE9SelectKeyESF_SH_E12test_deletedERK30dense_hashtable_const_iteratorIS8_S6_SB_SJ_SF_SH_E
gLf:_String_Join_m2050845953
OCe:_ShimEnumerator_MoveNext_m2406150314_gshared
Kra:__ZL19BlitFramebufferImplRN4gles23BlitFramebufferDrawQuadER9GfxDevice9TextureIDRK8Vector4f
Dgb:__Z18Transfer_BlittableI17RemapPPtrTransferLb0EhEvRK29SerializationCommandArgumentsR31RuntimeSerializationCommandInfo
Q9i:__ZN15dense_hashtableINSt3__24pairIK10KeyWrapperIPK10Il2CppTypeEjEES6_N6il2cpp8metadata14Il2CppTypeHashEN14dense_hash_mapIS6_jSB_NS6_14EqualsComparerINSA_26Il2CppTypeEqualityComparerEEENS0_9allocatorIS8_EEE9SelectKeyESF_SH_E4findERS7_
WNj:dynCall_viiiiiiiiiiiiii
gLc:_UNITY_FT_List_Add
YWb:__ZN14Texture2DArray11InitTextureEiii13TextureFormatb
Zwi:_X509Extension__ctor_m1474351312
F1h:__ZL104Encoding_t1523322056_CustomAttributesCacheGenerator_Encoding_t1523322056____DecoderFallback_PropertyInfoP21CustomAttributesCache
aEh:_InvokableCall_1_Invoke_m1524307439_gshared
iRa:__ZN12CubemapArray21AwakeFromLoadThreadedEv
gNd:_Directory_CreateDirectoriesInternal_m3735342319
yoi:__ZL108U3CStartU3Ec__Iterator0_t1249263001_CustomAttributesCacheGenerator_U3CStartU3Ec__Iterator0__ctor_m1316384627P21CustomAttributesCache
x8f:_List_1_RemoveAll_m517055598_gshared
JVe:_LayoutUtility_GetLayoutProperty_m3731360667
Mej:__ZN15dense_hashtableINSt3__24pairIK10KeyWrapperINS1_IPK11Il2CppImageP11Il2CppClassEEEjEES9_17ReflectionMapHashIS8_EN14dense_hash_mapIS9_jSD_NS9_14EqualsComparerINS0_8equal_toIS8_EEEENS0_9allocatorISB_EEE9SelectKeyESI_SK_E14squash_deletedEv
GEf:_SHAConstants__cctor_m1699027474
M5d:_MonoEventInfo_t346866618_marshal_pinvoke_back
cM:__ZNK6Camera26GetStereoSingleCullEnabledEv
D8f:_List_1_TrimExcess_m4121641494_gshared
E3h:__ZL78Convert_t2465617642_CustomAttributesCacheGenerator_Convert_ToInt16_m1733792763P21CustomAttributesCache
J4a:__Z14resize_trimmedINSt3__26vectorIN4core12basic_stringIcNS2_20StringStorageDefaultIcEEEE13stl_allocatorIS6_L18MemLabelIdentifier13ELi16EEEEEvRT_j
Idb:__Z18Transfer_BlittableI14SafeBinaryReadLb0EaEvRK29SerializationCommandArgumentsR31RuntimeSerializationCommandInfo
Cxd:_CharEnumerator_System_Collections_IEnumerator_get_Current_m1328529384
eQj:_emscripten_glFrustum__wrapper
VVi:_AnimationLayerMixerPlayable__ctor_m860721801
zHg:__Z98RuntimeInvoker_Boolean_t97287965_RuntimeObject_Int32_t2950945753_RuntimeObject_Int64U26_t200113976PFvvEPK10MethodInfoPvPS4_
MLc:_UNITY_FT_List_Iterate
AJa:__ZN17GlobalGameManager8TransferI24GenerateTypeTreeTransferEEvRT_
Xwd:_Char_System_IConvertible_ToUInt64_m3536560782
z$f:_EqualityComparer_1__cctor_m3452395357_gshared
RMc:_Render_Single_Pass
Mgj:__ZN6il2cpp2vm4Type6IsEnumEPK10Il2CppType
QAb:__Z20SyncFenceCullResultsR11CullResults
nua:__ZN15TextureTFMethod20IsBoneCountSupportedEi
wwf:_Double_ToString_m3828879243_AdjustorThunk
bib:__Z22TransferField_NonArrayI17RemapPPtrTransfer27Converter_SimpleNativeClassI8GUIStyleEEvRK23StaticTransferFieldInfoR31RuntimeSerializationCommandInfoRT0_
ySd:_TextReader_Synchronized_m3004980758
ORb:__ZNK17AnimationCurveTplIfE20EvaluateWithoutCacheEfRf
UWg:__Z67RuntimeInvoker_Boolean_t97287965_Rect_t2360479859_SByte_t1669577662PFvvEPK10MethodInfoPvPS4_
uMa:__ZN19ShaderPropertySheet10SetTextureERK23FastTexturePropertyNameP7Texture
ZYd:_CustomAttributeData__ctor_m2966233049
n9c:_CanvasUpdateRegistry_PerformUpdate_m1793997159
Ikf:_Context_set_ClientWriteIV_m3405909624
$$b:__ZN4Mesh10SetNormalsEPK8Vector3fj
_Ac:__Z66Register_UnityEngine_Physics2D_INTERNAL_CALL_GetRayIntersectionAllv
oKi:_AesManaged_CreateDecryptor_m692040246
G4h:__ZL79Convert_t2465617642_CustomAttributesCacheGenerator_Convert_ToUInt64_m2343585091P21CustomAttributesCache
tSi:_TextGenerationSettings_t1351628751_marshal_pinvoke_back
Kr:__ZN17AnimationCurveTplIfE8TransferI14SafeBinaryReadEEvRT_
lWf:_Dictionary_2_get_Count_m2449135560_gshared
kJh:_Array_InternalArray__set_Item_TisInt16_t2552820387_m2544074754_gshared
hrd:_ArithmeticException__ctor_m3551809662
HNd:_MonoIO_ExistsDirectory_m2182482658
ihh:__ZN21InterfaceFuncInvoker0I19Vector4_t3319028937E6InvokeEjP11Il2CppClassP12Il2CppObject
n4g:__Z72RuntimeInvoker_CustomAttributeNamedArgument_t287865710_Int32_t2950945753PFvvEPK10MethodInfoPvPS4_
vPb:__Z29StdTemplateConversionFunctionIybEbPvR14SafeBinaryRead
eVa:__ZNSt3__26vectorIN15QualitySettings14QualitySettingENS_9allocatorIS2_EEE6assignIPS2_EENS_9enable_ifIXaasr21__is_forward_iteratorIT_EE5valuesr16is_constructibleIS2_NS_15iterator_traitsIS9_E9referenceEEE5valueEvE4typeES9_S9_
CS:__ZNK5Unity9Component10GetEnabledEv
XZe:_ScrollRect_get_scrollSensitivity_m2832710591
f:HEAPU32
v8f:_List_1_CheckCollection_m1671972112_gshared
Fhj:_il2cpp_class_get_image
Tif:_CipherSuiteFactory_GetSsl3SupportedCiphers_m3757358569
Acg:_UnicodeEncoding_GetPreamble_m3002287178
oR:__Z16AsyncReadRequestP16AsyncReadCommand
sRi:_AudioSource_get_spatialize_m3609701298
xWg:__Z52RuntimeInvoker_Color_t2555686324_Color32_t2600501292PFvvEPK10MethodInfoPvPS4_
oba:__ZN20GpuProgramParameters14AddVectorParamEPKcii15ShaderParamTypeiiiP16PropertyNamesSet
c0c:__ZNK12HeaderHelper3GetERKN4core12basic_stringIcNS0_20StringStorageDefaultIcEEEE
i1a:__ZN9InputAxis8TransferI14SafeBinaryReadEEvRT_
vN:__ZNK21ExecutionOrderManager30GetCustomAwakeFromLoadQueueForEPKN5Unity4TypeE
x$c:__Z27RegisterModule_UnityConnectv
hQd:_MemoryStream_Expand_m3554752073
hdj:__ZN6il2cpp2vm10Reflection27GetCustomAttributesCacheForEP25Il2CppReflectionParameter
WBg:_ScriptableObject_CreateInstance_m2611081756
Eje:_ObjectRecord_get_IsInstanceReady_m2304516395
Hve:_InternalEnumerator_1_System_Collections_IEnumerator_get_Current_m1635397542_gshared
OQd:_Path__cctor_m3273994011
iMj:__ZNSt11logic_errorD2Ev
dpf:_DateTimeUtils_CountRepeat_m3396693018
Rxc:__ZNK17Physics2DSettings22GetTypeVirtualInternalEv
FSj:_glBindRenderbuffer__wrapper
Ky:__ZN10ObjectPoolIN4FMOD12ChannelGroupENS0_13ChannelGroupIEE7SetSizeEi
Hti:__ZL103LayoutRebuilder_t541313304_CustomAttributesCacheGenerator_LayoutRebuilder_U3CRebuildU3Em__5_m1288787547P21CustomAttributesCache
$Ji:_SymmetricTransform_FinalDecrypt_m764004682
ovj:__ZN6il2cpp2os10ThreadImpl33UnregisterCurrentThreadForCleanupEv
egh:_List_1_System_Collections_IList_get_Item_m1315368445_gshared
vni:__ZL114PointerEventData_t3807901092_CustomAttributesCacheGenerator_PointerEventData_get_pointerCurrentRaycast_m2627585223P21CustomAttributesCache
LCi:_Parser_ParseGroupingConstruct_m263270497
A2c:_UIBehaviour_OnDisable_m1784507360
FAc:__ZL26InitializeModule_Physics2Dv
bTb:__ZN9Polygon2D7SetPathEiRK13dynamic_arrayI8Vector2fLj4EE
LK:__Z22ValidateTlsfAllocationPvjiS_
Zpe:_InternalEnumerator_1_MoveNext_m3525157932_gshared
lpg:_Color__ctor_m2943235014_AdjustorThunk
Sej:__ZN14dense_hash_mapI10KeyWrapperINSt3__24pairIPK9EventInfoP11Il2CppClassEEEj17ReflectionMapHashIS8_ENS9_14EqualsComparerINS1_8equal_toIS8_EEEENS1_9allocatorINS2_IKS9_jEEEEE15set_deleted_keyERSH_
sfb:__Z14resize_trimmedINSt3__26vectorI17AnimationCurveTplIfE13stl_allocatorIS3_L18MemLabelIdentifier1ELi16EEEEEvRT_j
LLb:__ZN25CameraStackRenderingState19SetupLastEyeCamerasERK11CameraStack
ODa:__Z12GUIDToStringRK9UnityGUID
gnf:_RSASslSignatureDeformatter_SetKey_m2204705853
Hu:__ZN11SoundHandleC2ERKS_
vQe:_InputField_set_shouldHideMobileInput_m1650743574
F2i:__ZNK6il2cpp5utils11collections13ArrayValueMapIPK10Il2CppType17Il2CppInteropData26InteropDataToTypeConverterNS_8metadata14Il2CppTypeLessENS8_26Il2CppTypeEqualityComparerEE10find_firstERKS5_
Ahh:_List_1_Reverse_m1445355384_gshared
COd:_FileStream_get_CanSeek_m331583577
PPb:__Z29StdTemplateConversionFunctionItxEbPvR14SafeBinaryRead
eje:_WellKnownServiceTypeEntry_get_ObjectType_m3211195371
ZQi:_PCMReaderCallback_EndInvoke_m3916876196
M3d:_TypeBuilder_get_ContainsGenericParameters_m1769080325
pef:_ASN1_get_Length_m3269728307
fld:_DSAParameters_t1885824122_marshal_pinvoke_back
JLe:_Kernel_MultiplyByDword_m1266935086
dGd:_Convert_ToInt64_m3916071102
uNb:__ZN6Camera25StandaloneRenderToCubemapEP7TextureiPFvPK9SceneNodePK4AABBR9IndexListPvESA_j
dKf:_String_Trim_m3384720403
gMa:__ZN14RenderSettings18TransferDeprecatedI14SafeBinaryReadEEvRT_
HPg:__Z93RuntimeInvoker_Single_t1397266774_SingleU26_t1922108698_Single_t1397266774_Single_t1397266774PFvvEPK10MethodInfoPvPS4_
RGi:_Event__ctor_m526447123
Q5h:__ZL56RankException_t3812021567_CustomAttributesCacheGeneratorP21CustomAttributesCache
C0g:__Z72RuntimeInvoker_Boolean_t97287965_CustomAttributeNamedArgument_t287865710PFvvEPK10MethodInfoPvPS4_
hUg:__Z88RuntimeInvoker_RuntimeObject_RuntimeObject_RuntimeObject_RuntimeObject_Int32_t2950945753PFvvEPK10MethodInfoPvPS4_
vig:_Type_ToString_m3975981286
nN:__ZN12TLSAllocatorI14StackAllocatorE8AllocateEji
nP:__ZN16ScriptingManager18GetMonoScriptCacheEi
ZCi:_ExpressionAssertion__ctor_m2554412824
vEi:_CapturingGroup_IsComplex_m4061114763
GKh:_Array_Resize_TisCustomAttributeTypedArgument_t2723150157_m3021884250_gshared
Pdb:__Z18Transfer_BlittableI14SafeBinaryReadLb1EyEvRK29SerializationCommandArgumentsR31RuntimeSerializationCommandInfo
yai:__ZL99GameObject_t1113636619_CustomAttributesCacheGenerator_GameObject_GetComponentInChildren_m2670866854P21CustomAttributesCache
dWd:_NullReferenceException__ctor_m3076065613
egc:__ZN8JSONRead8TransferIfEEvRT_PKc17TransferMetaFlagsb
mRh:__ZL73Enum_t4135868527_CustomAttributesCacheGenerator_Enum_ToObject_m3092348831P21CustomAttributesCache
Xzh:_Comparison_1_EndInvoke_m3981968715_gshared
Naa:__ZN9ShaderLab7Program22ComputeSupportsShadowsEv
s6e:_X509SubjectKeyIdentifierExtension_Decode_m1505409124
Zaa:__ZL23AddGpuProgramParametersR20GpuProgramParametersRKNSt3__26vectorIN9ShaderLab20SerializedSubProgram15MatrixParameterENS1_9allocatorIS5_EEEERKNS2_INS4_15VectorParameterENS6_ISB_EEEEiiP16PropertyNamesSet
Coa:__ZN6prcoreL17RemapGenericFloatI18TexFormatARGBFloat17TexFormatRGBAHalfEEvPKNS_9InnerInfoE
IJf:_String_System_IConvertible_ToUInt16_m2888090399
tA:__ZN11AudioSource21ApplyCachedParametersE12SoundChannel
QXd:_Assembly_InternalGetType_m3065345470
kF:__ZN13Simd4iFactoryIN6detail9FourTupleEEC2Eiiii
Moe:_InternalEnumerator_1__ctor_m3390957028_gshared
d9d:_ResourceSet__ctor_m3356376607
Udf:_PrimeGeneratorBase_get_PrimalityTest_m2487240563
O4c:_PhysicsRaycaster_get_maxRayIntersections_m3887348715
jZh:__ZL56_ParameterInfo_t489405856_CustomAttributesCacheGeneratorP21CustomAttributesCache
jUa:__ZN15SerializeTraitsI33EnlightenTerrainChunksInformationE8TransferI14SafeBinaryReadEEvRS0_RT_
aqc:__ZN6b2Body12SetTransformERK6b2Vec2f
KXb:__ZNK32RendererMaterialAnimationBinding9BindValueER6ObjectRKN11UnityEngine9Animation14GenericBindingERNS3_10BoundCurveE
Yqi:__ZL109MaskableGraphic_t3839221559_CustomAttributesCacheGenerator_MaskableGraphic_ParentMaskStateChanged_m1092090553P21CustomAttributesCache
SEe:_Transform_1_Invoke_m1731820209_gshared
PMa:__Z13GetIAnimationv
Lma:__ZL18stbir__support_onef
$If:_Single_CompareTo_m189772128
Rhc:__Z26Transfer_UnityEngineObjectI9JSONWriteLb0EEvRK29SerializationCommandArgumentsR31RuntimeSerializationCommandInfo
Txe:_DefaultComparer_Compare_m4042058291_gshared
agd:_Image_set_overrideSprite_m3213596394
VPa:__ZNSt3__26vectorIN4core12basic_stringIcNS1_20StringStorageDefaultIcEEEE13stl_allocatorIS5_L18MemLabelIdentifier1ELi16EEE6assignINS_11__wrap_iterIPS5_EEEENS_9enable_ifIXaasr21__is_forward_iteratorIT_EE5valuesr16is_constructibleIS5_NS_15iterator_traitsISF_E9referenceEEE5valueEvE4typeESF_SF_
XSc:__ZNSt3__27__sort5IRNS_6__lessIN2UI14DepthSortEntryES3_EEPS3_EEjT0_S7_S7_S7_S7_T_
nOd:_FileLoadException_ToString_m2989457882
KRi:_AudioListener_ClearExtensionProperties_m3849891634
FCc:_UNITY_FT_DivFix
UNh:_Array_InternalArray__get_Item_TisDecimal_t2948259380_m3511003792_gshared
Cbj:__ZNSt3__218uninitialized_copyIPNS_4pairIK10KeyWrapperINS1_IPK11Il2CppImageP11Il2CppClassEEEjEESC_EET0_T_SE_SD_
uGf:_SecurityElement_IsValidAttributeValue_m948345692
yBc:__ZN19ControllerHitReport15onControllerHitERKN5physx16PxControllersHitE
Ca:invoke_vdd
Fn:FUNCTION_TABLE_fiii
FXh:__ZL102MethodInfo_t_CustomAttributesCacheGenerator_MethodInfo_MakeGenericMethod_m1996785325____typeArguments0P21CustomAttributesCache
JSd:_TextWriter_Write_m2252948084
_Zb:__Z19RegisterModule_Corev
zfe:_AsyncResult_get_CallMessage_m1679778649
zQf:_Array_InternalArray__IEnumerable_GetEnumerator_TisPlayableBinding_t354260709_m1924544205_gshared
dWb:__ZNK30SpriteRendererAnimationBinding12GetPPtrValueERKN11UnityEngine9Animation10BoundCurveE
QQc:__ZZ29InitializeTextRenderingModulevEN27cleanupAfterLoadRegistrator7ForwardEv
V8a:__ZNSt3__26__sortIRPFbRK23TransformAccessReadOnlyS3_EPS1_EEvT0_S8_T_
nyf:_CCFixed_FromDateTime_m3894190577
yLb:__Z29PluginsIssueRenderingExtEvent26UnityRenderingExtEventTypePv
GKg:__Z116RuntimeInvoker_RuntimeObject_RuntimeObject_Int32_t2950945753_RuntimeObject_RuntimeObject_RuntimeObject_RuntimeObjectPFvvEPK10MethodInfoPvPS4_
uid:_RuntimeMethodHandle__ctor_m2229201676_AdjustorThunk
gke:_MessageFormatter_ReadMethodCall_m2327590823
LWb:__Z14RandomRotationP9Texture2DPhiiii
OTf:_Array_InternalArray__ICollection_Add_TisUInt16_t2177724958_m3981262878_gshared
ktf:_Decimal_GetBits_m453754410
c4f:_HashSet_1_Contains_m3173358704_gshared
GKi:_ToggleEvent__ctor_m834619998
_we:_InternalEnumerator_1_Dispose_m436383441_AdjustorThunk
Uff:_PKCS1_Encode_v15_m2077073129
mYf:_Dictionary_2_get_Values_m2682483593_gshared
zqh:_Collection_1_set_Item_m4084225937_gshared
u6g:__Z51RuntimeInvoker_OrderBlock_t1585977831_RuntimeObjectPFvvEPK10MethodInfoPvPS4_
eAg:_RectOffset_get_left_m1232181034
Mpa:__ZN4gles14UseGLSLProgramER15DeviceStateGLESjbij
fYg:__Z59RuntimeInvoker_Boolean_t97287965_Int32_t2950945753_IntPtr_tPFvvEPK10MethodInfoPvPS4_
jWj:_glDeleteProgram__wrapper
I4b:__Z50Register_UnityEngine_Camera_INTERNAL_get_pixelRectv
Una:__ZN6prcoreL18BlitFloatToIntegerERK14ImageReferenceRS0_
hsf:_DBNull_System_IConvertible_ToUInt32_m3784627971
Ljf:_ClientSessionCache_Add_m964342678
XIi:_SkinChangedDelegate__ctor_m1270439727
Xta:__ZN13dynamic_arrayI15ComputeShaderCBLj4EE6assignEPKS0_S3_
$tc:__ZN7b2Timer5ResetEv
CI:__ZN11UnityEngine15CloudWebService14RestDownloader17OnCompleteContentEv
H8i:__ZN15dense_hashtableINSt3__24pairIK10KeyWrapperINS1_IPK14Il2CppAssemblyP11Il2CppClassEEEjEES9_17ReflectionMapHashIS8_EN14dense_hash_mapIS9_jSD_NS9_14EqualsComparerINS0_8equal_toIS8_EEEENS0_9allocatorISB_EEE9SelectKeyESI_SK_E15insert_noresizeERKSB_
ONi:__ZL25UnresolvedVirtualCall_115P12Il2CppObjectiaaPK10MethodInfo
jEg:_Transform_get_localScale_m129152068
Etf:_DivideByZeroException__ctor_m3496959969
_qa:__ZN26SinglePassStereoSupportExt19AfterDrawCallStereoEv
m$e:_ScrollRect_get_layoutPriority_m1584702890
Sa:invoke_viffi
Isj:__ZN6il2cpp2gcL10CleanupCCWEPvS1_
IAh:__ZN28GenericInterfaceFuncInvoker2Ii19Vector4_t3319028937S0_E6InvokeEPK10MethodInfoP12Il2CppObjectS0_S0_
Va:invoke_vifff
XUj:_glGetVertexAttribiv__wrapper
Se:_emscripten_request_fullscreen
fCh:_Predicate_1_Invoke_m851618236_gshared
vVh:__ZL67IsolatedStorageException_t3468072396_CustomAttributesCacheGeneratorP21CustomAttributesCache
Fub:__ZN20LocalFileSystemWebGL6DeleteER13FileEntryDatab
Ue:_emscripten_glDisableVertexAttribArray
AOf:_Array_InternalArray__ICollection_Remove_TisSingle_t1397266774_m3361324455_gshared
_m:FUNCTION_TABLE_iiiifiiii
I4:__ZN4core8hash_mapINS_12basic_stringIcNS_20StringStorageDefaultIcEEEE13dynamic_arrayI4PPtrI6SpriteELj4EENS_4hashIS4_EENSt3__28equal_toIS4_EEE12delete_nodesEv
ope:_InternalEnumerator_1__ctor_m3456047704_gshared
nc:invoke_fifffi
nph:_Collection_1_System_Collections_IList_Add_m2969482770_gshared
Ax:__ZN4FMOD5Sound15getNumSubSoundsEPi
gka:__ZN4gles23ClearCurrentFramebufferEP7ApiGLESbbbRK10ColorRGBAffi
oIf:_UnverifiableCodeAttribute__ctor_m3990698597
dGh:_UnityEvent_1_Invoke_m3604335408_gshared
H4h:__ZL79Convert_t2465617642_CustomAttributesCacheGenerator_Convert_ToUInt64_m2652538228P21CustomAttributesCache
df:_emscripten_glDeleteObjectARB
p3c:_EventSystem_RaycastComparer_m3685368675
_f:_IMG_Load
AOg:__Z131RuntimeInvoker_Void_t1185182177_RuntimeObject_RuntimeObject_Int64_t3736567304_ObjectU26_t2146539884_SerializationInfoU26_t419328957PFvvEPK10MethodInfoPvPS4_
ipa:__ZN6prcoreL27StretchGenericFloatBilinearI18TexFormatARGBFloatEEvPKNS_9InnerInfoE
k9b:__Z53Register_UnityEngine_RenderTexture_Internal_GetHeightv
npi:__ZL87U3CDelayedDestroyDropdownListU3Ec__Iterator0_t3853912249_CustomAttributesCacheGeneratorP21CustomAttributesCache
fQe:_PKCS12_RemoveCertificate_m1421555398
Q0e:_Slider_FindSelectableOnLeft_m1667068522
Voa:__ZN6prcoreL17RemapGenericFloatI17TexFormatRGBAHalf18TexFormatARGBFloatEEvPKNS_9InnerInfoE
gtc:__ZNSt3__27__sort4IRN18Overlap2DQueryBase29ColliderHitsByDepthComparitorEPP10Collider2DEEjT0_S7_S7_S7_T_
qdc:__Z14GetBuiltinSkini
Uge:_MethodDictionary_get_Item_m1201458851
GE:___cxx_global_var_init_13
aF:___cxx_global_var_init_10
bF:___cxx_global_var_init_11
RHg:__Z60RuntimeInvoker_SByte_t1669577662_RuntimeObject_RuntimeObjectPFvvEPK10MethodInfoPvPS4_
LIf:_Single_System_IConvertible_ToSingle_m1939829239_AdjustorThunk
HX:___cxx_global_var_init_18
nl:_JS_SystemInfo_GetBrowserVersionString
u8a:__ZN2UI13RectTransform23VirtualRedirectTransferER14SafeBinaryRead
P4a:__ZN24GenerateTypeTreeTransfer8TransferINSt3__26vectorIN4core12basic_stringIcNS3_20StringStorageDefaultIcEEEE13stl_allocatorIS7_L18MemLabelIdentifier13ELi16EEEEEEvRT_PKc17TransferMetaFlags
VFe:_Enumerator_MoveNext_m3045873697_gshared
FUg:__Z31RuntimeInvoker_Rect_t2360479859PFvvEPK10MethodInfoPvPS4_
g8:__ZNSt3__26vectorIN9ShaderLab20SerializedSubProgramENS_9allocatorIS2_EEE6assignIPS2_EENS_9enable_ifIXaasr21__is_forward_iteratorIT_EE5valuesr16is_constructibleIS2_NS_15iterator_traitsIS9_E9referenceEEE5valueEvE4typeES9_S9_
bkc:__Z18Transfer_BlittableI8JSONReadLb0E8BitFieldEvRK29SerializationCommandArgumentsR31RuntimeSerializationCommandInfo
xxd:_Char_ToString_m3588025615_AdjustorThunk
Y3f:_HashSet_1_CopyTo_m2849056227_gshared
Nnb:__ZL17Transfer_GUIStyleI18StreamedBinaryReadILb1EELb0EEvRK29SerializationCommandArgumentsR31RuntimeSerializationCommandInfo
rLe:_ModulusRing_Multiply_m343333088
uOi:__ZL25UnresolvedVirtualCall_149P12Il2CppObject17Color_t2555686324faaPK10MethodInfo
X5:__ZN9ShaderLab14SerializedPass8TransferI14SafeBinaryReadEEvRT_
iec:__Z71Register_UnityEngine_GUILayoutUtility_INTERNAL_CALL_Internal_MoveWindowv
dD:__ZN12AudioManager16SetListenerPauseEb
Svc:__ZNSt3__26__sortIRN10ClipperLib12LocMinSorterEPNS1_12LocalMinimumEEEvT0_S6_T_
nPf:_SetPropertyUtility_SetStruct_TisSingle_t1397266774_m2805350785_gshared
Kbg:_StringBuilder_get_Length_m3238060835
jmj:__ZN6il2cpp2vm9Exception25RaiseOutOfMemoryExceptionERKNS_5utils10StringViewIDsEE
u4f:_KeyValuePair_2_set_Value_m2953914627_AdjustorThunk
ea:invoke_viiiiiiiiiii
$Hj:___syscall_ret
Qxi:_DeriveBytes_set_Salt_m1400945044
y5c:_PointerEventData_set_worldNormal_m1888481930
H8c:_CanvasScaler_set_referencePixelsPerUnit_m1768965301
HDi:_AnchorInfo__ctor_m46784903
rif:_CipherSuiteCollection_get_Item_m4188309062
tui:_SslHandshakeHash_HashFinal_m2573455475
Nee:_SynchronizationAttribute_ReleaseLock_m1030353464
gTb:__ZN14qsort_internal30FindAndMovePivotToLastPositionIP8Vector2fi26PointDistanceSortPredicateEEvT_S4_T0_T1_
hXa:__ZN11ChannelInfo8TransferI19StreamedBinaryWriteILb0EEEEvRT_
Xxj:__ZN4utf88internal13validate_nextIPKcEENS0_9utf_errorERT_S5_Rj
vsi:__ZL53ToggleGroup_t123837990_CustomAttributesCacheGeneratorP21CustomAttributesCache
IDf:_SHA1Internal_AddLength_m2737455899
ZCb:__ZN14qsort_internal13Partition3WayIP17RODataReplacementi19ROSorterReplacementEENSt3__24pairIT_S6_EES6_S6_T0_T1_
kTe:_InputField_CreateCursorVerts_m3585916868
OXf:_KeyValuePair_2_get_Value_m755756747_gshared
W5b:__Z34Register_UnityEngine_Gradient_Initv
WUe:_LayoutGroup_OnDidApplyAnimationProperties_m1333813659
Q0d:_GenericTypeParameterBuilder_IsArrayImpl_m67259334
$de:_Context_ToString_m1073616138
DZd:_DefaultMemberAttribute_get_MemberName_m3384235354
fWa:__ZN13ScreenManager23SetIsOrientationEnabledE18EnabledOrientationb
pQe:_InputField_EnforceTextHOverflow_m3400115777
sOj:dynCall_viffffii
lah:_List_1_System_Collections_IEnumerable_GetEnumerator_m1225415523_gshared
yuc:__ZNK18PlatformEffector2D16UseContactUpdateEv
_Vg:__Z41RuntimeInvoker_TextureWrapMode_t584250749PFvvEPK10MethodInfoPvPS4_
n1a:__ZN9InputAxis8TransferI19StreamedBinaryWriteILb0EEEEvRT_
FId:__Z33il2cpp_codegen_check_sub_overflowxx
VNj:dynCall_viififiii
iRe:_InputField_get_caretColor_m2973283772
aIh:_ListPool_1_Release_m591299672_gshared
e4h:__ZL79Convert_t2465617642_CustomAttributesCacheGenerator_Convert_ToUInt16_m3116648921P21CustomAttributesCache
Cve:_InternalEnumerator_1_MoveNext_m1096095130_AdjustorThunk
Kph:_Collection_1_RemoveAt_m226266097_gshared
tGh:_UnityEvent_1_AddListener_m1590149461_gshared
oki:__ZL63GUISkin_t1244372282_CustomAttributesCacheGenerator_m_ScrollViewP21CustomAttributesCache
Ovf:_Double_System_IConvertible_ToInt16_m3591921965_AdjustorThunk
Zzh:_Comparison_1_Invoke_m2925518770_gshared
MEa:__ZN10GameObject23VirtualRedirectTransferER18StreamedBinaryReadILb0EE
KJi:_SymmetricTransform__ctor_m2693628991
ZWd:_ObjectDisposedException__ctor_m1034312941
vg:_glFrontFace
PPd:_FileSystemInfo_InternalRefresh_m1700260373
Fcd:_Dropdown_OnSubmit_m1624226516
aAg:_RectOffset__ctor_m3236153262
p2i:__ZNK15dense_hashtableINSt3__24pairIK10KeyWrapperIPK19Il2CppGenericMethodEPK26Il2CppGenericMethodIndicesEES6_N6il2cpp8metadata23Il2CppGenericMethodHashEN14dense_hash_mapIS6_SA_SE_NS6_14EqualsComparerINSD_26Il2CppGenericMethodCompareEEENS0_9allocatorISB_EEE9SelectKeyESI_SK_E12test_deletedEj
KWe:_MaskUtilities_IsDescendantOrSelf_m2247511982
HQg:__Z51RuntimeInvoker_UInt16_t2177724958_SByte_t1669577662PFvvEPK10MethodInfoPvPS4_
VHb:__ZNSt3__26vectorI16ShadowCasterData13stl_allocatorIS1_L18MemLabelIdentifier2ELi16EEE21__push_back_slow_pathIKS1_EEvRT_
RGg:__Z46RuntimeInvoker_Double_t594665363_RuntimeObjectPFvvEPK10MethodInfoPvPS4_
yRc:__Z51Register_UnityEngine_TextGenerator_GetLinesInternalv
rFe:_Enumerator_get_Current_m2250080680_AdjustorThunk
vKi:_AesManaged_set_Key_m767972181
HHd:_Int16_System_IConvertible_ToBoolean_m1656400658_AdjustorThunk
Evd:_Byte_System_IConvertible_ToInt64_m285584218
zha:__ZN13GfxDeviceGLES22SetScissorRectPlatformERK5RectTIiE
koa:__ZN6prcoreL17RemapGenericFloatI17TexFormatRGBFloat18TexFormatRGBAFloatEEvPKNS_9InnerInfoE
jBd:_DictionaryEntry_t3123975638_marshal_pinvoke_cleanup
gTf:_Array_InternalArray__ICollection_Add_TisDictionaryEntry_t3123975638_m665385049_gshared
WTd:_MissingMemberException__ctor_m2707802176
p$c:__ZN20UnityConnectSettings10InitializeEv
qUi:_Canvas_get_renderMode_m841659411
pUa:__ZN15SerializeTraitsI13dynamic_arrayI28EnlightenRendererInformationLj8EEE19ResizeSTLStyleArrayERS2_i
vAc:__ZN16PhysicsManager2D12BeginContactEP9b2Contact
Ihd:_SerializationInfo_GetValue_m42271953
yu:__ZN9AudioClip11CreateSoundEv
efj:__ZN14dense_hash_mapI10KeyWrapperINSt3__24pairIPK9FieldInfoP11Il2CppClassEEEj17ReflectionMapHashIS8_ENS9_14EqualsComparerINS1_8equal_toIS8_EEEENS1_9allocatorINS2_IKS9_jEEEEEC2EjRKSB_RKSF_
Caj:__ZNK15dense_hashtableINSt3__24pairIK10KeyWrapperINS1_IPK10MethodInfoP11Il2CppClassEEEjEES9_17ReflectionMapHashIS8_EN14dense_hash_mapIS9_jSD_NS9_14EqualsComparerINS0_8equal_toIS8_EEEENS0_9allocatorISB_EEE9SelectKeyESI_SK_E13find_positionERSA_
Gga:__ZN13GfxDeviceGLES20CreateComputeProgramEPKhj
K_c:__ZN11UnityEngine7Connect16PersistentValues13RestoreValuesER8JSONRead
mSh:__ZL65RuntimeArray_CustomAttributesCacheGenerator_Array_Sort_m182264525P21CustomAttributesCache
RBf:_Guid_BaseToString_m3600006650
rCa:__ZN20ArchiveStorageReader31TryToReadDirectoryFromBlockDataEyPKvj
J2c:_PointerEventData_set_pointerEnter_m3256217464
jpj:__ZN6il2cpp2vmL11GetIdentityEP14Il2CppIUnknown
CBj:_GC_push_gc_structures
Alf:_TlsServerCertificate_ProcessAsTls1_m819212276
wvh:_ReadOnlyCollection_1_System_Collections_Generic_ICollectionU3CTU3E_Clear_m2102011098_gshared
XMh:_Dictionary_2_Do_ICollectionCopyTo_TisRuntimeObject_m3942192587_gshared
I6i:__ZN6il2cpp6icalls8mscorlib6SystemL8IsPublicEPK9EventInfo
ami:__ZL139RectTransformUtility_t1743242446_CustomAttributesCacheGenerator_RectTransformUtility_INTERNAL_CALL_RectangleContainsScreenPoint_m1214874141P21CustomAttributesCache
gef:_PrimalityTests_RabinMillerTest_m2544317101
hra:__Z22GetShaderCachePathGLESv
odf:_Kernel_DwordDivMod_m1540317819
rDh:_CachedInvokableCall_1_Invoke_m931536002_gshared
Nhh:_Enumerator_System_Collections_IEnumerator_get_Current_m1399273671_gshared
uzi:_X509StoreManager_get_CurrentUser_m719101392
x3d:_TypeBuilder_GetPropertyImpl_m3104345782
BXa:__ZNSt3__213__stable_sortIRNS_4lessI4PPtrI11SpriteAtlasEEENS_11__wrap_iterIPS4_EEEEvT0_SA_T_NS_15iterator_traitsISA_E15difference_typeEPNSD_10value_typeEi
VLd:_Int64_ToString_m2085073918_AdjustorThunk
i4d:_FieldInfo_GetFieldOffset_m1356898082
v6g:__Z36RuntimeInvoker_Enumerator_t652329154PFvvEPK10MethodInfoPvPS4_
qSf:_Array_InternalArray__IndexOf_TisTypeTag_t3541821701_m2988972362_gshared
ZY:__ZN8keywords6CreateEPKc
bYi:__ZL7log2_32j
S:Math_imul
U5f:_Enumerator_Dispose_m786980821_AdjustorThunk
M0g:__Z49RuntimeInvoker_Boolean_t97287965_Byte_t1134296376PFvvEPK10MethodInfoPvPS4_
Y$a:__ZN14SpriteRenderer15SetupPropertiesEv
Vlf:_TlsServerKeyExchange_Update_m453798279
sVa:__ZN11PlayerPrefs6GetIntERKN4core12basic_stringIcNS0_20StringStorageDefaultIcEEEEi
yif:_CipherSuiteCollection_System_Collections_IList_IndexOf_m1361500977
J1e:_Text_set_fontStyle_m648756124
gRc:__Z45TextGenerator_CUSTOM_INTERNAL_get_rectExtentsP12Il2CppObjectP5RectTIfE
kVg:__Z50RuntimeInvoker_Touch_t1921856868_Int32_t2950945753PFvvEPK10MethodInfoPvPS4_
xof:_DateTime__ctor_m2135476686_AdjustorThunk
_he:_SoapFieldAttribute_IsInteropXmlElement_m2819415462
TAg:_RectTransform_GetLocalCorners_m823861473
TAa:__Z18ReadStringFromFilePN4core17string_with_labelILi1EEERKNS_12basic_stringIcNS_20StringStorageDefaultIcEEEE
k0f:_EqualityComparer_1__ctor_m3717935020_gshared
uAh:_Comparison_1_EndInvoke_m2734814639_gshared
wO:__ZN18ScriptingArguments9AddObjectE18ScriptingObjectPtr
_Uc:__Z39CanvasGroup_Get_Custom_PropInteractableP12Il2CppObject
Fxc:__ZN16CircleCollider2D23VirtualRedirectTransferER18StreamedBinaryReadILb0EE
U_c:__ZL38InitializeUnityConnectScriptingClassesv
UPi:__ZL25UnresolvedVirtualCall_229P12Il2CppObjectPK10MethodInfo
gMb:__ZN13ProbeRenderer8ConvolveEbijjb
oJi:_GUIUtility_set_systemCopyBuffer_m608712289
Aka:__ZN17GenericDynamicVBOC2ER9GfxDevice13GfxBufferModejj
vtc:__Z28GetPhysics2DScriptingClassesv
rcc:__ZZN10GUIManager14InitGUIManagerEvEN41PreUpdateIMGUISendQueuedEventsRegistrator7ForwardEv
era:__ZN13dynamic_arrayIN18GlslGpuProgramGLES9GLProgramELj4EE6insertEPS1_jRKS1_
Q$f:_EqualityComparer_1_System_Collections_IEqualityComparer_Equals_m2639327655_gshared
yyf:_CCGregorianCalendar_day_from_fixed_m1674702403
bH:__ZN11UnityEngine15CloudWebService17SessionEventQueue10PurgeItemsEj
MMb:__ZN6Camera16StandaloneRenderENS_10RenderFlagEP6ShaderRKN4core12basic_stringIcNS3_20StringStorageDefaultIcEEEE
Y7e:_X509Chain_PrepareForNextCertificate_m3691934993
xRa:__ZNK12CubemapArray13GetIsReadableEv
fnb:__Z18Transfer_BlittableI18StreamedBinaryReadILb1EELb1EtEvRK29SerializationCommandArgumentsR31RuntimeSerializationCommandInfo
Iji:__ZL58EventType_t3528516131_CustomAttributesCacheGenerator_keyUpP21CustomAttributesCache
r$h:__ZL57X509Certificate_t713131622_CustomAttributesCacheGeneratorP21CustomAttributesCache
s_a:__ZN12BoneWeights48TransferI19StreamedBinaryWriteILb0EEEEvRT_
Lea:__ZN9GfxDevice20DeallocRenderSurfaceEP17RenderSurfaceBase
eHe:_ValueCollection_System_Collections_Generic_ICollectionU3CTValueU3E_get_IsReadOnly_m1110422367_gshared
cba:__ZN20GpuProgramParameters36UpdatePrepareValuesMaximumBufferSizeEv
eSi:_AudioSourceExtension_Stop_m387892536
buh:_ReadOnlyCollection_1_System_Collections_IList_RemoveAt_m2129436005_gshared
iJe:_SimpleCollator_GetContraction_m2205549079
A2f:_EqualityComparer_1_get_Default_m168544645_gshared
fuh:_ReadOnlyCollection_1_System_Collections_IList_get_IsReadOnly_m3888539454_gshared
D1:__ZN13RuntimeStaticI10WatermarksLb0EE13StaticDestroyEPv
Qef:_ARC4Managed_GenerateKey_m1607343060
xUf:_Array_InternalArray__ICollection_CopyTo_TisDecimal_t2948259380_m2749946216_gshared
Wmf:_ReceiveRecordAsyncResult_get_ResultingBuffer_m1839161335
lGa:__ZN12BaseRenderer23RendererBecameInvisibleEv
f0d:_EnumBuilder_IsPointerImpl_m2644353933
Wee:_EnvoyInfo__ctor_m276600651
VNc:__ZN20TextRenderingPrivate8FontImpl13CharacterInfo8TransferI18StreamedBinaryReadILb0EEEEvRT_
ukb:__Z29Transfer_Blittable_ArrayFieldI24GenerateTypeTreeTransferfEvRT_R9ArrayInfoRK23StaticTransferFieldInfo
D$:__ZNSt3__26__treeINS_12__value_typeIN4core12basic_stringIcNS2_20StringStorageDefaultIcEEEES6_EENS_19__map_value_compareIS6_S7_NS_4lessIS6_EELb1EEE13stl_allocatorIS7_L18MemLabelIdentifier13ELi16EEE7destroyEPNS_11__tree_nodeIS7_PvEE
zsg:_UnityEvent_FindMethod_Impl_m2312362624
bOb:__ZN19CustomRenderTexture9AddParentE4PPtrIS_E
YW:__ZN8Gradient8TransferI14SafeBinaryReadEEvRT_
Yng:_Vector3_GetHashCode_m2879461828
JCi:_Parser_ParseSpecial_m1961501104
TIf:_Single_System_IConvertible_ToUInt64_m3299129161_AdjustorThunk
UPa:__ZNSt3__26vectorIN4core12basic_stringIcNS1_20StringStorageDefaultIcEEEE13stl_allocatorIS5_L18MemLabelIdentifier1ELi16EEE7reserveEj
Zli:__ZL93CanvasRenderer_t2598313366_CustomAttributesCacheGenerator_CanvasRenderer_set_cull_m4222419074P21CustomAttributesCache
NGe:_ValueCollection_System_Collections_Generic_ICollectionU3CTValueU3E_Contains_m3110959791_gshared
a5e:_IPv6Address_AsIPv4Int_m844941024
bzc:__Z13RegisterClassI10Effector2DEvv
B6a:__ZN18IDCollectorFunctorD0Ev
umf:_RecordProtocol__cctor_m1280873827
Bbg:_StringBuilder__ctor_m3504405255
nae:_Marshal__cctor_m4007734770
wAj:_GC_new_free_list_inner
nPe:_SymmetricTransform_Random_m2004892672
yUg:__Z79RuntimeInvoker_Void_t1185182177_RuntimeObject_Byte_t1134296376_Byte_t1134296376PFvvEPK10MethodInfoPvPS4_
bgf:_EncryptedPrivateKeyInfo_get_IterationCount_m2912222740
bAj:_GC_err_printf
TVh:__ZL63PathTooLongException_t2919094560_CustomAttributesCacheGeneratorP21CustomAttributesCache
ugf:_RSAManaged_DecryptValue_m1804388365
Fme:_InternalEnumerator_1_System_Collections_IEnumerator_get_Current_m2980550840_AdjustorThunk
Rkc:__ZN8JSONRead8TransferI10RectOffsetEEvRT_PKc17TransferMetaFlagsb
hqj:__ZNK15dense_hashtableINSt3__24pairIK10KeyWrapperINS1_IPKcS4_EEEiEES6_24NamespaceAndNamePairHashN14dense_hash_mapIS6_iS9_NS6_14EqualsComparerI26NamespaceAndNamePairEqualsEENS0_9allocatorIS8_EEE9SelectKeyESD_SF_E12test_deletedERK24dense_hashtable_iteratorIS8_S6_S9_SH_SD_SF_E
MG:__ZN9JSONWrite8TransferIN11UnityEngine15CloudWebService14DataErrorEvent15FileErrorDetailEEEvRT_PKc17TransferMetaFlags
Kmh:_Collection_1_ClearItems_m2728738230_gshared
GKd:_Int32_Parse_m2087562008
WIa:__Z21ClearFenceWithoutSyncR8JobFence
mRf:_Array_compare_TisVector4_t3319028937_m1974066282_gshared
a7d:_MonoProperty_GetAccessors_m412928203
GHh:_TweenRunner_1_Start_m3757154622_gshared
Ex:__ZN12SoundManager20RegisterModifiedClipEP10SampleClip
kbe:_RemotingServices_GetClientChannelSinkChain_m1499550585
RXd:_Assembly_FillName_m1660001542
mOi:__ZL25UnresolvedVirtualCall_141P12Il2CppObject19Vector2_t2156229523PK10MethodInfo
_Yh:__ZL56_EventBuilder_t2558055199_CustomAttributesCacheGeneratorP21CustomAttributesCache
VZe:_ScrollRect_get_decelerationRate_m74583805
gEf:_SHA384Managed_processBlock_m1272529332
iA:__ZN11AudioSource4PlayEd
kAi:_X509Store_get_Crls_m1211262034
zxd:_Char_ToString_m278452217_AdjustorThunk
i0i:__ZN15dense_hashtableI10KeyWrapperIPK17Il2CppGenericInstES4_N6il2cpp8metadata21Il2CppGenericInstHashEN14dense_hash_setIS4_S7_NS4_14EqualsComparerINS6_24Il2CppGenericInstCompareEEENSt3__29allocatorIS4_EEE8IdentityESB_SE_E13set_empty_keyERKS4_
hIg:__Z63RuntimeInvoker_Char_t3634460470_Int16_t2552820387_RuntimeObjectPFvvEPK10MethodInfoPvPS4_
sFd:_Convert_ToDouble_m2924063577
Cab:__ZNK20LocalFileSystemPosix8IsHiddenERK13FileEntryData
Cwe:_InternalEnumerator_1_System_Collections_IEnumerator_Reset_m1601477281_AdjustorThunk
tZd:_CustomAttributeNamedArgument_ToString_m1488801416_AdjustorThunk
AGe:_ValueCollection_System_Collections_Generic_ICollectionU3CTValueU3E_Remove_m3673494156_gshared
Vli:__ZL113CanvasRenderer_t2598313366_CustomAttributesCacheGenerator_CanvasRenderer_SplitUIVertexStreamsInternal_m3280623346P21CustomAttributesCache
qSa:__ZN7Cubemap23VirtualRedirectTransferER18StreamedBinaryReadILb0EE
gwe:_InternalEnumerator_1__ctor_m1739091604_gshared
o7b:__ZNSt3__27__sort4IRNS_6__lessI11KeyframeTplIfES3_EEPS3_EEjT0_S7_S7_S7_T_
wKc:_Read_CVT
Yz:__ZN11AudioSource23VirtualRedirectTransferER19StreamedBinaryWriteILb0EE
kJe:_SimpleCollator_GetTailContraction_m2107754083
ijb:__ZL26Transfer_SimpleNativeClassI24GenerateTypeTreeTransfer17AnimationCurveTplIfELb0EEvRK29SerializationCommandArgumentsR31RuntimeSerializationCommandInfo
Rlc:__ZN8JSONRead21TransferSTLStyleArrayI13dynamic_arrayI9BoundsIntLj4EEEEvRT_17TransferMetaFlags
xUa:__ZN24GenerateTypeTreeTransfer8TransferI13dynamic_arrayI33EnlightenTerrainChunksInformationLj4EEEEvRT_PKc17TransferMetaFlags
npf:_DateTimeFormatInfo__ctor_m3106345035
ojf:_TlsServerKeyExchange_verifySignature_m3412856769
q$f:_EqualityComparer_1_System_Collections_IEqualityComparer_GetHashCode_m4137147946_gshared
_0:__ZN16LightmapSettings20DidChangeActiveSceneEP10UnitySceneS1_
Kkb:__Z18Transfer_BlittableI19StreamedBinaryWriteILb0EELb0EN4math12int3_storageEEvRK29SerializationCommandArgumentsR31RuntimeSerializationCommandInfo
pui:__ZL59g_AssemblyU2DCSharp_Assembly_CustomAttributesCacheGeneratorP21CustomAttributesCache
u9b:__Z39Register_UnityEngine_Time_get_timeScalev
j7i:__ZN6il2cpp5utils9PathUtils8BasenameIcEENSt3__212basic_stringIT_NS3_11char_traitsIS5_EENS3_9allocatorIS5_EEEERKSA_
_ie:_RemotingProxy__cctor_m4096951805
Wdc:__Z35Register_UnityEngine_Event_get_typev
umj:__ZN6il2cpp2vm9Exception23GetInvalidCastExceptionERKNS_5utils10StringViewIDsEE
jri:__ZL64Scrollbar_t1494447233_CustomAttributesCacheGenerator_m_DirectionP21CustomAttributesCache
XZh:__ZL48Header_t549724581_CustomAttributesCacheGeneratorP21CustomAttributesCache
Cli:__ZL88CanvasGroup_t4083511760_CustomAttributesCacheGenerator_CanvasGroup_get_alpha_m2918269489P21CustomAttributesCache
ZXg:__Z36RuntimeInvoker_EventType_t3528516131PFvvEPK10MethodInfoPvPS4_
dN:__Z63ThreadAndSerializationSafeCheckGetMonoBehaviourBeingTransferredv
mvf:_StackTrace__ctor_m206492268
i9g:_List_1_set_Item_m4224739467_gshared
kKg:__Z74RuntimeInvoker_Int32_t2950945753_RuntimeObject_RuntimeObject_RuntimeObjectPFvvEPK10MethodInfoPvPS4_
Ead:_ColorTween_set_startColor_m2562993758_AdjustorThunk
j_d:_ConstructorBuilder_get_Name_m2426555260
U6b:__Z37Register_UnityEngine_Input_GetAxisRawv
U7h:__ZL80ModulusRing_t596511505_CustomAttributesCacheGenerator_ModulusRing_Pow_m729002192P21CustomAttributesCache
KCi:_Parser_ParseCharacterClass_m4285351396
pGd:_Convert_ToSByte_m2653418303
ECd:_SyncHashtable__ctor_m2449935938
Wz:__ZN11AudioSource5ResetEv
sDf:_RSAPKCS1SignatureFormatter_SetKey_m2935054088
xCb:__ZN12ImageFilters27SetSurfaceUseResolvedBufferEP13RenderTextureb
mCi:_Regex__ctor_m3948448025
QXa:__ZN14Texture2DArray23VirtualRedirectTransferER18StreamedBinaryReadILb0EE
jdg:_UTF7Encoding_GetByteCount_m209415911
l8a:__ZN2UI13RectTransform13AwakeFromLoadE17AwakeFromLoadMode
qFi:_RegularExpression_Compile_m2385682508
Iyf:_CompareInfo__cctor_m1837489679
Cai:__ZL90GameObject_t1113636619_CustomAttributesCacheGenerator_GameObject_get_transform_m1369836730P21CustomAttributesCache
tHb:__ZN14qsort_internal30FindAndMovePivotToLastPositionIP20ShadowCasterSortDatai26ShadowCasterSortDataSorterEEvT_S4_T0_T1_
A_h:__ZL60IRemotingTypeInfo_t2222593263_CustomAttributesCacheGeneratorP21CustomAttributesCache
Gcb:__Z18Transfer_BlittableI14SafeBinaryReadLb1EiEvRK29SerializationCommandArgumentsR31RuntimeSerializationCommandInfo
c8e:_X509ExtensionEnumerator_get_Current_m256207749
aY:__GLOBAL__sub_I_modules_profiler_public_0_cpp
YCh:_Predicate_1__ctor_m3829092036_gshared
N6a:__ZN17PersistentManager13GetAllFileIDsERKN4core12basic_stringIcNS0_20StringStorageDefaultIcEEEER13dynamic_arrayIxLj8EE
J1h:__ZL83StringBuilder_t_CustomAttributesCacheGenerator_StringBuilder_AppendLine_m1438862993P21CustomAttributesCache
Qsd:_Array_Sort_m182264525
CUe:_LayoutGroup_set_padding_m282562135
djh:_Collection_1_System_Collections_IList_get_IsReadOnly_m773226719_gshared
NYd:_Default_IsArrayAssignable_m953489228
Ds:__ZNK4PPtrI8RendererEcvPS0_Ev
Phj:_il2cpp_field_get_offset
Ijg:_UInt16_ToString_m355311020_AdjustorThunk
Kmd:_RC2__ctor_m1146135664
gEh:_InvokableCall_1_remove_Delegate_m667188944_gshared
Qee:_SynchronizedClientContextSink__ctor_m4129963630
Jk:_glGetStringi
eMf:_DecoderExceptionFallback_CreateFallbackBuffer_m1133375601
frj:__ZNK15dense_hashtableI10KeyWrapperIP18Il2CppGenericClassES3_N6il2cpp8metadata22Il2CppGenericClassHashEN14dense_hash_setIS3_S6_NS3_14EqualsComparerINS5_25Il2CppGenericClassCompareEEENSt3__29allocatorIS3_EEE8IdentityESA_SD_E10test_emptyERK30dense_hashtable_const_iteratorIS3_S3_S6_SF_SA_SD_E
zBe:_Enumerator_get_CurrentKey_m889650866_gshared
NQa:__ZNSt3__26__treeINS_12__value_typeIN9ShaderLab16FastPropertyNameEN18UnityPropertySheet11UnityTexEnvEEENS_19__map_value_compareIS3_S6_NS_4lessIS3_EELb1EEENS_9allocatorIS6_EEE12__find_equalIS3_EERPNS_16__tree_node_baseIPvEENS_21__tree_const_iteratorIS6_PNS_11__tree_nodeIS6_SG_EEiEESJ_RKT_
KYa:__ZN18StreamedBinaryReadILb0EE21TransferSTLStyleArrayI13dynamic_arrayI8Vector4fLj4EEEEvRT_17TransferMetaFlags
Dze:_Comparer_1_get_Default_m1513846993_gshared
EPe:_EncryptedData_get_EncryptionAlgorithm_m1297902161
lpi:__ZL67OptionDataList_t1438173104_CustomAttributesCacheGenerator_m_OptionsP21CustomAttributesCache
UCg:_StackTraceUtility_PostprocessStacktrace_m1043256299
SAe:_Enumerator_VerifyCurrent_m829026141_gshared
o_b:__ZN16PropertyAccessorC2Ev
BVa:__ZNSt3__23mapIN4core12basic_stringIcNS1_20StringStorageDefaultIcEEEE9PrefValueNS_4lessIS5_EENS_9allocatorINS_4pairIKS5_S6_EEEEEixERSB_
Dnb:__Z35Transfer_Blittable_FixedBufferFieldI18StreamedBinaryReadILb1EEaEvRK29SerializationCommandArgumentsR31RuntimeSerializationCommandInfo
iri:__ZL65Scrollbar_t1494447233_CustomAttributesCacheGenerator_m_HandleRectP21CustomAttributesCache
TVa:__ZN13ScreenManager16SetScreenTimeoutEi
Lhb:__Z18Transfer_BlittableI17RemapPPtrTransferLb0EdEvRK29SerializationCommandArgumentsR31RuntimeSerializationCommandInfo
gkh:_Collection_1_ConvertItem_m1743542180_gshared
nRc:__Z38Register_UnityEngine_Font_HasCharacterv
a6g:__Z68RuntimeInvoker_Boolean_t97287965_Int16_t2552820387_Int16_t2552820387PFvvEPK10MethodInfoPvPS4_
qLb:__Z35IntersectSpherePlaneBoundsOptimizedRKN4math7_float4EPS1_i
zQd:_MonoIOStat_t592533987_marshal_pinvoke_cleanup
zCf:_RNGCryptoServiceProvider__cctor_m3587754670
ore:_InternalEnumerator_1_MoveNext_m1728532725_AdjustorThunk
j8g:_List_1_get_Count_m241572196_gshared
Vtj:__ZN6il2cpp2os5posix15PosixWaitObject13InterruptWaitEv
x0:__Z22CleanupLODGroupManagerPv
Sdc:__Z21Event_CUSTOM_PopEventP12Il2CppObject
tl:_glUniform3fv
rGj:__ZNK6il2cpp8metadata24Il2CppGenericInstCompareclERK10KeyWrapperIPK17Il2CppGenericInstES8_
K3a:__ZNSt3__218__insertion_sort_3IRN15ResourceManager10Dependency6SorterEPS2_EEvT0_S6_T_
x8e:_X509ChainElement_Set_m655180762
iwg:_MonoBehaviour_StopCoroutine_m615723318
Byg:_Quaternion_GetHashCode_m2636680144
eGb:__ZNK16LightmapSettings31GetRealtimeLightmapDecodeValuesEv
Yy:__ZN5audio5mixer12SetSuspendedERNS0_16AudioMixerMemoryEb
F7a:__ZN17PersistentManager21UnloadNonDirtyStreamsEv
zcg:_UnicodeDecoder__ctor_m3606046165
kPg:__Z96RuntimeInvoker_Int32_t2950945753_RuntimeObject_Int32_t2950945753_RuntimeObject_Int32_t2950945753PFvvEPK10MethodInfoPvPS4_
SFi:_Uri_get_Parser_m3737125102
zUi:_Canvas_get_overrideSorting_m2740418462
Hfg:_Scheduler__ctor_m3313141270
RYa:__ZN12ImageFilters4BlitER17ShaderPassContextP7TextureP13RenderTextureiPK18SharedMaterialDataPKcP6ShaderiNS_9BlitFlagsE11CubemapFaceRK8Vector2fSH_
FKf:_String_LastIndexOf_m3451222878
HAi:_Mark_get_Index_m3048692661
Hsi:__ZL69CanvasScaler_t2767979955_CustomAttributesCacheGenerator_m_ScaleFactorP21CustomAttributesCache
tce:_ConfigHandler_CheckPath_m3079311646
lH:__ZN11UnityEngine15CloudWebService10RestClientINS0_23WebRequestRestHeaderMapEED2Ev
pBh:_U3CCreateWhereIteratorU3Ec__Iterator1D_1__ctor_m1723214851_gshared
Pl:_emscripten_glDepthMask
cbe:_RemotingServices_CreateClientProxy_m3886727610
Pla:__ZN4crnd25static_huffman_data_model22prepare_decoder_tablesEv
qTa:__ZN9Texture2D23VirtualRedirectTransferER17RemapPPtrTransfer
ung:_AssetBundleRequest_t699759206_marshal_pinvoke
BZf:_DefaultComparer__ctor_m1292755885_gshared
zmf:_RecordProtocol_GetMessage_m2086135164
Rcc:__Z23GUIStatePopDisplayIndexv
Mpb:__Z18Transfer_BlittableI18StreamedBinaryReadILb0EELb0E10ColorRGBAfEvRK29SerializationCommandArgumentsR31RuntimeSerializationCommandInfo
d1:__Znaj
JWj:_emscripten_glEnableClientState__wrapper
pgi:__ZL60PlayableBehaviour_t4203540982_CustomAttributesCacheGeneratorP21CustomAttributesCache
LZ:__ZN17MessageIdentifierC2EPKcNS_7OptionsEPKN5Unity4TypeES1_
jIg:__Z45RuntimeInvoker_Void_t1185182177_RuntimeObjectPFvvEPK10MethodInfoPvPS4_
vXa:__ZN13dynamic_arrayI4PPtrI6SpriteELj4EE9push_backERKS2_
awg:_Mesh_SetTriangles_m1523451247
IIf:_Single_System_IConvertible_ToSByte_m1208276900
ZJh:_Array_InternalArray__set_Item_TisVector4_t3319028937_m757305038_gshared
iGa:__ZN11GameManager15ThreadedCleanupEv
wuc:__ZN18PlatformEffector2D23PreSolveContactCallbackERN10Effector2D15EffectorContactE
DNg:__Z105RuntimeInvoker_Void_t1185182177_RuntimeObject_RuntimeObject_RuntimeObject_RuntimeObject_Int32_t2950945753PFvvEPK10MethodInfoPvPS4_
jGe:_ValueCollection_System_Collections_Generic_ICollectionU3CTValueU3E_Add_m3298059628_gshared
EIg:__Z64RuntimeInvoker_RuntimeObject_Int16_t2552820387_Int16_t2552820387PFvvEPK10MethodInfoPvPS4_
AE:__Z55Register_UnityEngine_AudioSource_get_spatializeInternalv
eza:__ZN14SafeBinaryRead8TransferI14ConstantStringEEvRT_PKc17TransferMetaFlags
c4e:__ZN28GenericInterfaceFuncInvoker3IbP26X509Certificate_t713131622P20X509Chain_t194917408iE6InvokeEPK10MethodInfoP12Il2CppObjectS1_S3_i
KAb:__ZNK6Camera16GetStereoEnabledEv
O6h:__ZL90HttpWebRequest_t1669436515_CustomAttributesCacheGenerator_HttpWebRequest__ctor_m1789065007P21CustomAttributesCache
lSg:__Z72RuntimeInvoker_Int32_t2950945753_TimeSpan_t881159249_TimeSpan_t881159249PFvvEPK10MethodInfoPvPS4_
QWi:_Collision2D_get_transform_m2670923831
_mf:_SendRecordAsyncResult_SetComplete_m153213906
Iba:__ZL24FindBelongingStructParamRPKcRNSt3__26vectorIN9ShaderLab20SerializedSubProgram14ConstantBufferENS2_9allocatorIS6_EEEE
mXb:__ZN12LightManager15InitializeClassEv
Ufg:_WaitHandle__cctor_m4242752477
TOa:__ZN9ShaderLab11shaderprops16GetComputeBufferEPK19ShaderPropertySheetS3_NS_16FastPropertyNameE
tyj:__ZN6il2cpp6icalls8mscorlib6System10Reflection10MethodBase31GetMethodFromHandleInternalTypeEii
MO:__ZN18ScriptingArgumentsC2Ev
tog:_Vector3_op_Equality_m4231250055
WVf:_Dictionary_2_System_Collections_IDictionary_get_Item_m1524611028_gshared
C4g:__Z59RuntimeInvoker_ContactPoint2D_t3390240644_Int32_t2950945753PFvvEPK10MethodInfoPvPS4_
eSj:_emscripten_glBlendFuncSeparate__wrapper
_ii:__ZL68GUISettings_t1774757634_CustomAttributesCacheGenerator_m_CursorColorP21CustomAttributesCache
RNd:_FileSystemInfo__ctor_m3769019897
COh:_Array_InternalArray__get_Item_TisContentType_t1787303396_m421427711_gshared
Azg:_Rect_get_xMin_m581135837_AdjustorThunk
Sia:__Z17HasSampledTexture14GraphicsFormat13formatSupport
ZBb:__ZNK25CameraStackRenderingState27GetStereoImageEffectTextureEb
cmd:_HMACSHA384__ctor_m1677515580
vCf:_RIPEMD160Managed_J_m1336489154
Cp:__ZN8Vector3f8TransferI14SafeBinaryReadEEvRT_
s4i:__ZN6il2cpp6icalls6System6System3Net7Sockets6Socket7ReceiveEiP11Il2CppArrayiiNS4_11SocketFlagsEPi
g1b:__ZN13BuildSettings13GetSceneIndexERKN4core12basic_stringIcNS0_20StringStorageDefaultIcEEEE
Eo:FUNCTION_TABLE_ii
bGa:__ZN10TagManager8TransferI18StreamedBinaryReadILb0EEEEvRT_
pnh:_Collection_1_System_Collections_IList_get_IsReadOnly_m2202364665_gshared
rhc:__Z18Transfer_BlittableI9JSONWriteLb0E8BitFieldEvRK29SerializationCommandArgumentsR31RuntimeSerializationCommandInfo
ZPd:_MemoryStream_set_Capacity_m1773624579
Zij:__ZNK15dense_hashtableINSt3__24pairIK10KeyWrapperINS1_IP11Il2CppClassjEEES4_EES6_N6il2cpp8metadata14ArrayClassHashEN14dense_hash_mapIS6_S4_SB_NS6_14EqualsComparerINSA_17ArrayClassCompareEEENS0_9allocatorIS8_EEE9SelectKeyESF_SH_E10test_emptyEj
b1e:_SpriteState_set_pressedSprite_m3368686500_AdjustorThunk
S6:__ZNSt3__26vectorIN9ShaderLab20SerializedSubProgram15StructParameterENS_9allocatorIS3_EEE8__appendEj
vb:invoke_diiii
DQj:b47
FTg:__Z95RuntimeInvoker_Void_t1185182177_RuntimeObject_RuntimeObject_SByte_t1669577662_SByte_t1669577662PFvvEPK10MethodInfoPvPS4_
GAa:__Z24CreateDirectoryRecursiveRKN4core12basic_stringIcNS_20StringStorageDefaultIcEEEE
vQj:b41
m9:__ZN9ShaderLab20SerializedSubProgram8TransferI18StreamedBinaryReadILb0EEEEvRT_
Pnf:_SslClientStream_get_HaveRemoteValidation2Callback_m2858953511
uQj:b40
i4:__ZN19ThreadSpecificValueIP14StackAllocatorE15ReinitializeTLSEPv
ZJb:__Z9EndJobSetR8JobFence11JobPriority
xQj:b43
lZ:__ZN13RuntimeStaticI21ScalableBufferManagerLb0EE13StaticDestroyEPv
VRc:__ZN2UI13CanvasManager9AddCanvasEPNS_6CanvasE
IYa:__ZN9Texture3D8TransferI19StreamedBinaryWriteILb0EEEEvRT_
CCb:__ZNK6Camera22CalculateRenderingPathEv
$Fd:_Convert_ToInt64_m3758262873
Dqd:_Hashtable_TestPrime_m3839319309
asa:__Z13ConvertMipmap14GraphicsFormatPKvS_Pviiii
V2c:_BaseRaycaster_get_renderOrderPriority_m1110184610
$Pe:_PKCS12_get_IterationCount_m626423090
Qhb:__ZL12InvokeMethodI17RemapPPtrTransferEvRK29SerializationCommandArgumentsR31RuntimeSerializationCommandInfo
ELf:_StringComparer_Compare_m991165676
dIc:_tt_sbit_decoder_load_image
qoe:_InternalEnumerator_1_MoveNext_m3299696349_AdjustorThunk
xpc:__ZN15b2DistanceJointD0Ev
Fjj:__ZN15dense_hashtableINSt3__24pairIK10KeyWrapperIP11Il2CppClassES4_EES5_N6il2cpp8metadata16SZArrayClassHashEN14dense_hash_mapIS5_S4_SA_NS5_14EqualsComparerINS9_19SZArrayClassCompareEEENS0_9allocatorIS7_EEE9SelectKeyESE_SG_EC2EjRKSA_RKSE_RKSI_
sHh:_U3CStartU3Ec__Iterator0_Dispose_m261027331_gshared
$sa:__ZN4core8hash_mapIPK17RenderSurfaceBaseP13RenderTexture19PointerHashFunctionIS3_ENSt3__28equal_toIS3_EEE6insertERKNS8_4pairIKS3_S5_EE
Lcc:__ZNSt3__24listIN10GUIManager12SortedScriptE11memory_poolIS2_EE6__sortI13OldSortScriptEENS_15__list_iteratorIS2_PvEESA_SA_jRT_
H1f:_EqualityComparer_1_System_Collections_IEqualityComparer_GetHashCode_m2588073987_gshared
oPi:__ZL25UnresolvedVirtualCall_197P12Il2CppObject19TimeSpan_t881159249PK10MethodInfo
gnh:_Collection_1_System_Collections_IList_Add_m3364892189_gshared
F9g:_List_1_AddEnumerable_m3500350831_gshared
q3i:__ZN24dense_hashtable_iteratorINSt3__24pairIK10KeyWrapperIPK11Il2CppClassEPKcEES6_N6il2cpp5utils11PointerHashIS3_EEN14dense_hash_mapIS6_S9_SE_NS6_14EqualsComparerINS0_8equal_toIS5_EEEENS0_9allocatorISA_EEE9SelectKeyESJ_SL_E30advance_past_empty_and_deletedEv
fgf:_PrivateKeyInfo_get_PrivateKey_m3647771102
thb:__Z18Transfer_BlittableI17RemapPPtrTransferLb1E8BitFieldEvRK29SerializationCommandArgumentsR31RuntimeSerializationCommandInfo
Wlj:__ZN6il2cpp6icalls8mscorlib6System9ThreadingL11ThreadStartEPv
X2:__ZN15DirectorManager12OnSampleTimeEv
t7d:__ZN28GenericInterfaceFuncInvoker1IP12Il2CppObjectS1_E6InvokeEPK10MethodInfoS1_S1_
s2d:_TypeBuilder_check_not_created_m3652863637
U6c:_StandaloneInputModule_UpdateModule_m450861257
iSi:_Font_add_textureRebuilt_m2164317336
xyh:_ReadOnlyCollection_1_System_Collections_IList_Insert_m2928873627_gshared
Opf:_DateTime_get_UtcNow_m1393945741
Z0f:_EqualityComparer_1__cctor_m314889309_gshared
hW:__ZN12CachedReader10Align4ReadEv
zqc:__ZN15b2WorldManifold10InitializeEPK10b2ManifoldRK11b2TransformfS5_f
h_f:_DefaultComparer_GetHashCode_m556015105_gshared
Cyi:_X501__cctor_m2428304915
yUi:_Canvas_get_renderOrder_m1489855841
bJg:__Z50RuntimeInvoker_Void_t1185182177_Single_t1397266774PFvvEPK10MethodInfoPvPS4_
zmi:__ZL77ExecuteEvents_t3484638744_CustomAttributesCacheGenerator_U3CU3Ef__mgU24cache1P21CustomAttributesCache
jHi:_Event_ToString_m1688862299
e2b:__Z15TransformVector23TransformAccessReadOnlyRKN4math7_float3E
MYg:__Z105RuntimeInvoker_Void_t1185182177_Vector2U26_t2376273893_RuntimeObject_RuntimeObject_Vector2U26_t2376273893PFvvEPK10MethodInfoPvPS4_
fya:__ZNK9Behaviour22GetTypeVirtualInternalEv
xyf:_CCGregorianCalendar_month_from_fixed_m4268992710
dRf:_Array_compare_TisUICharInfo_t75501106_m1310495481_gshared
XUb:__ZNK28MonoBehaviourPropertyBinding12SetPPtrValueERKN11UnityEngine9Animation10BoundCurveEi
aMb:__Z21GetScriptingArraySize17ScriptingArrayPtr
rNc:__ZN20TextRenderingPrivate8FontImpl8TransferI14SafeBinaryReadEEvRT_
PQg:__Z51RuntimeInvoker_UInt32_t2560061978_Double_t594665363PFvvEPK10MethodInfoPvPS4_
MUh:__ZL55ISymbolWriter_t780458634_CustomAttributesCacheGeneratorP21CustomAttributesCache
Bdc:__ZN11IMGUIModule21ClearDeveloperConsoleEv
Qgi:__ZL81MessageTypeSubscribers_t1684935770_CustomAttributesCacheGenerator_m_messageTypeIdP21CustomAttributesCache
Mwh:_ReadOnlyCollection_1_System_Collections_IList_Clear_m4022532825_gshared
Lag:_Encoding_get_ASCII_m3595602635
Qyg:_Ray_get_direction_m761601601_AdjustorThunk
Hfa:__ZN9GfxDevice17ImmediateTexCoordEifff
IMc:_ft_black_new
vwc:__ZN10ClipperLib7Clipper13AppendPolygonEPNS_5TEdgeES2_
h$d:_DerivedType_GetCustomAttributes_m3536779709
j2h:__ZL93Interlocked_t2273387594_CustomAttributesCacheGenerator_Interlocked_CompareExchange_m388540288P21CustomAttributesCache
u3d:_MethodBase_get_IsAbstract_m428833029
ftd:_AssemblyLoadEventHandler__ctor_m896828968
rib:__Z35Transfer_Blittable_FixedBufferFieldI24GenerateTypeTreeTransferhEvRK29SerializationCommandArgumentsR31RuntimeSerializationCommandInfo
YPj:_emscripten_glUniform4f__wrapper
$8g:_List_1_Reverse_m4144036584_gshared
n7f:_Enumerator_MoveNext_m2595190390_AdjustorThunk
qM:__ZNK6Camera16GetProjectionFarEv
Yq:__Z24InverseTransformRotationRK23TransformAccessReadOnlyRKN4math7_float4E
Czi:_X509Chain_Build_m2469702749
MGf:_Evidence_get_IsSynchronized_m3446368195
bA:__ZN11AudioSource6UpdateEv
xDe:_Transform_1_EndInvoke_m1204015506_gshared
SVh:__ZL64Path_t1605229823_CustomAttributesCacheGenerator_InvalidPathCharsP21CustomAttributesCache
dSa:__ZN7Texture34CreateFileTextureUploadInstructionE18TextureUploadFlagsj
Lqd:__ZN25GenericVirtActionInvoker06InvokeEPK10MethodInfoP12Il2CppObject
eLa:__ZThn280_N31CanvasBatchIntermediateRenderer20OnAssetBoundsChangedEv
q2d:_TypeBuilder_DefineConstructor_m2989882735
lDa:__ZN25SingleBlockMemoryFileDataC2E10MemLabelIdPvjb
Zji:__ZL59GUISkin_t1244372282_CustomAttributesCacheGenerator_m_toggleP21CustomAttributesCache
CUb:__ZN19LowerResBlitTexture13ApplySettingsEv
pjj:__ZN15dense_hashtableINSt3__24pairIK10KeyWrapperIP11Il2CppClassES4_EES5_N6il2cpp8metadata16SZArrayClassHashEN14dense_hash_mapIS5_S4_SA_NS5_14EqualsComparerINS9_19SZArrayClassCompareEEENS0_9allocatorIS7_EEE9SelectKeyESE_SG_E4swapERSJ_
yEa:__ZN17GlobalGameManager23VirtualRedirectTransferER18StreamedBinaryReadILb0EE
PKb:__ZN27IntermediateRendererManager24GetIntermediateRenderersEi
qrc:__ZNK14b2CapsuleShape5CloneEP16b2BlockAllocator
Wgi:__ZL120RenderPipelineManager_t4036911426_CustomAttributesCacheGenerator_RenderPipelineManager_DoRenderLoop_Internal_m3799666479P21CustomAttributesCache
XC:__ZN16BaseVideoTexture19UpdateVideoTexturesEv
a6d:_MonoField_GetValue_m3124733531
mKa:__Z28BuildSingleStreamChannelInfo17ShaderChannelMaskRK20VertexChannelsLayoutS_S2_P11ChannelInfo
uQf:_Array_InternalArray__IEnumerable_GetEnumerator_TisOrderBlock_t1585977831_m2414028303_gshared
Ejf:_Context_set_HandshakeState_m1329976135
mWa:__ZN6Sprite23VirtualRedirectTransferER19StreamedBinaryWriteILb0EE
yxf:_Enum_GetHashCode_m2848082716
y9b:__Z38Transform_CUSTOM_INTERNAL_set_positionP12Il2CppObjectRK8Vector3f
F3c:_EventTrigger_Execute_m2453060771
Gzh:_Comparison_1_Invoke_m517083441_gshared
DPg:__Z253RuntimeInvoker_Int32_t2950945753_RuntimeObject_Int32_t2950945753_Int32_t2950945753_RuntimeObject_Int32_t2950945753_UInt32U26_t3735378166_UInt32U26_t3735378166_RuntimeObject_DecoderFallbackBufferU26_t3866396827_ByteU5BU5DU26_t4057885439_SByte_t1669577662PFvvEPK10MethodInfoPvPS4_
E9i:__ZNK15dense_hashtableINSt3__24pairIK10KeyWrapperINS1_IPK9FieldInfoP11Il2CppClassEEEjEES9_17ReflectionMapHashIS8_EN14dense_hash_mapIS9_jSD_NS9_14EqualsComparerINS0_8equal_toIS8_EEEENS0_9allocatorISB_EEE9SelectKeyESI_SK_E5beginEv
Vba:__ZNK9ShaderLab7Program19HasMatchingVariantsERK13dynamic_arrayI16ShaderKeywordSetLj4EE
Iuh:_ReadOnlyCollection_1_System_Collections_IList_get_IsFixedSize_m3402868227_gshared
Bja:__ZN14DataBufferGLES11CopySubDataEPKS_jjj
ke:_emscripten_glVertexPointer
HTc:__ZN2UI13PrepareOutputERNS_7BatchesEjjNS_30AdditionalCanvasShaderChannelsE
w7i:__ZN6il2cpp2vm7Runtime47RaiseExecutionEngineExceptionIfMethodIsNotFoundEPK10MethodInfo
nBi:_PatternCompiler_GetMachineFactory_m3758869886
YHb:__Z17GetFrustumPortionPK8Vector3fffPS_
_Ti:_playerBehavior_PlayerMove_m3964870918
Vdi:__ZL105RectTransform_t3704657025_CustomAttributesCacheGenerator_RectTransform_INTERNAL_get_anchorMin_m1735215721P21CustomAttributesCache
Goj:__ZN15dense_hashtableINSt3__24pairIK10KeyWrapperIP14Il2CppIUnknownEjEES5_N6il2cpp5utils11PointerHashIS3_EEN14dense_hash_mapIS5_jSB_NS5_14EqualsComparerINS0_8equal_toIS4_EEEENS0_9allocatorIS7_EEE9SelectKeyESG_SI_E14squash_deletedEv
W3c:_EventTrigger_OnCancel_m585099428
b1h:__ZL107CodeAccessPermission_t2681295399_CustomAttributesCacheGenerator_CodeAccessPermission_GetHashCode_m880096813P21CustomAttributesCache
vIi:_GUILayoutEntry_ApplyOptions_m1741659338
Tfe:_MethodDictionary_set_MethodKeys_m1451825752
Hid:_RuntimeTypeHandle_Equals_m2857439487_AdjustorThunk
nnh:_Collection_1_System_Collections_ICollection_get_SyncRoot_m1659213062_gshared
yda:__ZNK9GfxDevice27GetPlatformAdjustedViewportEv
Tth:_ReadOnlyCollection_1_System_Collections_Generic_IListU3CTU3E_set_Item_m88350439_gshared
mBh:_Func_3_Invoke_m1194147890_gshared
XDi:_Reference_Compile_m4195878675
fwh:_ReadOnlyCollection_1_System_Collections_ICollection_CopyTo_m2672196987_gshared
s_b:__ZN16StreamedResource8TransferI24GenerateTypeTreeTransferEEvRT_
Coc:__ZN11b2GearJoint4DumpEv
sAg:_RectTransform_get_anchorMin_m2928307238
Kxd:_ArrayList__ctor_m3828927650
Jha:__ZThn9568_N13GfxDeviceGLES26EnableScissorRectsPlatformEv
Lua:__ZN10Matrix3x3f15InvertTransposeEv
HIi:_GUILayoutGroup_SetHorizontal_m996475327
OHf:_SecurityException_get_Demanded_m2500043391
yIi:_GUILayoutEntry__cctor_m663865902
Caf:_CaptureCollection_GetEnumerator_m732412500
VQe:__ZN23GenericVirtFuncInvoker2IDsiDsE6InvokeEPK10MethodInfoP12Il2CppObjectiDs
eAb:__Z11IsBatchmodev
S5f:_Enumerator_System_Collections_IEnumerator_get_Current_m713684915_gshared
qgb:__Z29Transfer_Blittable_ArrayFieldI14SafeBinaryRead8Vector3fEvRT_R9ArrayInfoRK23StaticTransferFieldInfo
S3d:_MemberInfo__ctor_m3258770133
a$h:__ZL62IFormatterConverter_t2171992254_CustomAttributesCacheGeneratorP21CustomAttributesCache
X3h:__ZL78Convert_t2465617642_CustomAttributesCacheGenerator_Convert_ToSByte_m4075629912P21CustomAttributesCache
pie:_SoapTypeAttribute_get_XmlTypeNamespace_m4211398148
gOc:__ZN20TextRenderingPrivate8FontImpl18ResetCachedTextureEv
L5i:__ZN6il2cpp6icalls8mscorlib6SystemL16GetFieldFromTypeINS_5utils10functional6FilterINSt3__212basic_stringIcNS7_11char_traitsIcEENS7_9allocatorIcEEEENS4_13VmStringUtils21CaseSensitiveComparerEEEEEP21Il2CppReflectionFieldP11Il2CppClassSK_iRKT_
Cac:__Z27Screen_Get_Custom_PropWidthv
eBj:_GC_print_finalization_stats
mca:__ZN11NamedObject15ThreadedCleanupEv
qoc:__ZNK12b2WheelJoint10GetAnchorBEv
mJi:_GUITargetAttribute_GetGUITargetAttrValue_m2954410352
l4b:__Z53Register_UnityEngine_Behaviour_get_isActiveAndEnabledv
Ysd:_SimpleEnumerator_get_Current_m72361444
rq:__ZNSt3__26vectorIN4core12basic_stringIcNS1_20StringStorageDefaultIcEEEENS_9allocatorIS5_EEE8__appendEj
QDe:__ZN21InterfaceFuncInvoker2I27DictionaryEntry_t3123975638P12Il2CppObjectbE6InvokeEjP11Il2CppClassS2_S2_b
kD:__ZN13ProduceHelperI10SampleClipLb0EE7ProduceE10MemLabelId18ObjectCreationMode
Z2a:__ZN26PlayerSettingsSplashScreen8TransferI17RemapPPtrTransferEEvRT_
qMe:_ASN1_set_Value_m2803403806
S5i:__ZN6il2cpp6icalls8mscorlib6SystemL17CollectTypeFieldsINS_5utils10functional10TrueFilterEEEvP11Il2CppClassPKS7_iRNSt3__26vectorIP9FieldInfoNSB_9allocatorISE_EEEERKT_
AJg:__Z52RuntimeInvoker_Int16_t2552820387_Decimal_t2948259380PFvvEPK10MethodInfoPvPS4_
MSb:__Z13GetTagManagerv
wqd:_Hashtable__ctor_m1815022027
WBh:__ZN28GenericInterfaceFuncInvoker1Ib39CustomAttributeNamedArgument_t287865710E6InvokeEPK10MethodInfoP12Il2CppObjectS0_
Gdg:_UTF8Encoding_GetChars_m1433288684
UXi:__ZL10roundUp128PyS_
uF:__ZN11UnityEngine15CloudWebService17CloudJobSchedulerD0Ev
LHg:__Z50RuntimeInvoker_Boolean_t97287965_SByte_t1669577662PFvvEPK10MethodInfoPvPS4_
Ole:_ArrayReadOnlyList_1_Contains_m381552673_gshared
q1g:__Z105RuntimeInvoker_Int32_t2950945753_RuntimeObject_OrderBlock_t1585977831_Int32_t2950945753_Int32_t2950945753PFvvEPK10MethodInfoPvPS4_
n$b:__Z18CalculateWorldAABBR10GameObject
ZIg:__Z96RuntimeInvoker_Boolean_t97287965_RuntimeObject_RuntimeObject_Int32_t2950945753_Int32_t2950945753PFvvEPK10MethodInfoPvPS4_
FRf:_Array_IndexOf_TisUICharInfo_t75501106_m3198896198_gshared
Qkf:_Context_get_Current_m2853615040
twc:__ZN10ClipperLib7Clipper14IntersectEdgesEPNS_5TEdgeES2_RNS_8IntPointE
Wzf:_CultureInfo_construct_internal_locale_from_lcid_m2668301444
PLe:_PrimeGeneratorBase__ctor_m2973488305
ddc:__Z21CleanupGlobalGUIStatev
qig:_Type_IsContextfulImpl_m3693603908
CRh:__ZL81RuntimeArray_CustomAttributesCacheGenerator_Array_GetValue_m120423883____indices0P21CustomAttributesCache
K6f:_Enumerator_VerifyState_m2873941769_gshared
Fpb:__Z18Transfer_BlittableI18StreamedBinaryReadILb0EELb1EN4math12int3_storageEEvRK29SerializationCommandArgumentsR31RuntimeSerializationCommandInfo
KGg:__Z56RuntimeInvoker_RuntimeObject_RuntimeObject_RuntimeObjectPFvvEPK10MethodInfoPvPS4_
iwa:__ZN22VertexDeclarationCache5ClearEv
nkd:_CspParameters__ctor_m3852972821
Nqd:_AppDomainInitializer_EndInvoke_m2095010821
cPb:__ZN17PersistentManager12SetPathRemapERKN4core12basic_stringIcNS0_20StringStorageDefaultIcEEEES6_
zJb:__ZN6Camera24PrepareCullingParametersERK23CameraCullingParameters13RenderingPathR11CullResults
V0b:__Z12SetIUISystemP9IUISystem
q5a:__ZN19RuntimeSceneManager22EndIntegrateMainThreadEP10UnitySceneNS_11LoadingModeE
CLh:_Array_Sort_TisUICharInfo_t75501106_m3474449559_gshared
Bwg:__ZN21InterfaceFuncInvoker0IP34MessageTypeSubscribers_t1684935770E6InvokeEjP11Il2CppClassP12Il2CppObject
MTi:_objectRotate_rotate_m4294547002
Shb:__Z26Transfer_UnityEngineObjectI17RemapPPtrTransferLb0EEvRK29SerializationCommandArgumentsR31RuntimeSerializationCommandInfo
yQi:__ZL25UnresolvedVirtualCall_261P12Il2CppObject19Vector4_t3319028937PK10MethodInfo
k9a:__ZN17WeakPtrSharedDataD0Ev
kCi:_QuickSearch_GetShiftDistance_m2542665852
uha:__ZN13GfxDeviceGLES15OnDeviceCreatedEb
wZa:__Z32TransferEnumWithNameForceIntSizeI14SafeBinaryRead11IndexFormatEvRT_RT0_PKc17TransferMetaFlags
aOh:_Array_InternalArray__get_Item_TisCustomAttributeTypedArgument_t2723150157_m2639399822_gshared
BKe:_BigInteger_GenerateRandom_m3141592944
lkb:__Z29Transfer_Blittable_ArrayFieldI24GenerateTypeTreeTransfer4AABBEvRT_R9ArrayInfoRK23StaticTransferFieldInfo
lcf:_Interval_Contains_m1454846757
fed:_Graphic_CacheCanvas_m1120385152
txe:_InternalEnumerator_1_MoveNext_m1262906009_gshared
add:_U3CDelayedDestroyDropdownListU3Ec__Iterator0_Dispose_m100123149
Poc:__ZN13b2PulleyJoint24SolveVelocityConstraintsERK12b2SolverData
XHj:_emscripten_GetProcAddress
Q7f:_List_1_System_Collections_Generic_IEnumerableU3CTU3E_GetEnumerator_m944444416_gshared
Da:invoke_fiiifii
LMa:__ZN20SphericalHarmonicsL219AddDirectionalLightERKN4math7_float3ERKNS0_7_float4E
G9e:_X509ChainElementCollection_get_IsSynchronized_m3980338507
O2:__Z26ScheduleJobForEachInternalR8JobFencePFvPvjES1_iPFvS1_E11JobPriority
Rzb:__ZZ23InitPlayerLoopCallbacksvEN41PostLateUpdateProfilerEndFrameRegistrator7ForwardEv
t1b:__ZN9Scripting18RaiseMonoExceptionEPKcz
TRc:__ZN2UI13UIInstruction19ClearSharedMeshDataER8JobFence
HZb:__ZN10GameObject17WillHandleMessageERK17MessageIdentifier
CGf:_StrongNamePublicKeyBlob_Equals_m3655422942
zHf:_SecurityContext__ctor_m1730177197
JVi:_RectTransformUtility_GetTransposed_m3952754222
LXb:__ZN9ShaderLab16FastPropertyName15InitBy28BitHashEj
KAc:__ZN14PhysicsQuery2D8LinecastERK8Vector2fS2_RKN10Collider2D13ContactFilterEPKS3_bP12RaycastHit2Di
D8g:_List_1_System_Collections_IList_set_Item_m4182383657_gshared
r0f:_EqualityComparer_1_System_Collections_IEqualityComparer_GetHashCode_m3723747923_gshared
HKh:_Array_Resize_TisOrderBlock_t1585977831_m3449774576_gshared
fMg:__Z96RuntimeInvoker_Void_t1185182177_Int32_t2950945753_Single_t1397266774_RuntimeObject_RuntimeObjectPFvvEPK10MethodInfoPvPS4_
Bsh:_ReadOnlyCollection_1_CopyTo_m3722791265_gshared
D1g:__Z59RuntimeInvoker_Int32_t2950945753_KeyValuePair_2_t3699644050PFvvEPK10MethodInfoPvPS4_
aAe:_Enumerator_System_Collections_IDictionaryEnumerator_get_Key_m195047678_AdjustorThunk
Xqf:_DateTimeFormatInfo_get_RawAbbreviatedMonthNames_m2395953416
xUi:_Canvas_get_pixelPerfect_m333060872
HZa:__ZN17PackedFloatVector12UnpackFloatsEPfiiii
G3d:_TypeBuilder_ToString_m3497908325
Hga:__ZN13GfxDeviceGLES21DestroyComputeProgramER12ObjectHandleI18ComputeProgram_TagPvE
JBi:_PatternCompiler_EmitIfDefined_m2075050865
$sf:_Decimal_System_IConvertible_ToInt64_m1446427516_AdjustorThunk
B0:__ZN17UniqueIDGenerator16DestroyPureIndexEj
_Vd:_NotImplementedException__ctor_m3095902440
SPi:__ZL25UnresolvedVirtualCall_227P12Il2CppObjectPK10MethodInfo
ZP:__ZL21AppendNestedClassName17ScriptingClassPtrRN4core17string_with_labelILi1EEE
z6:__ZN14SafeBinaryRead21TransferSTLStyleArrayINSt3__26vectorIN9ShaderLab20SerializedSubProgram12UAVParameterENS1_9allocatorIS5_EEEEEEvRT_17TransferMetaFlags
lSi:_FontTextureRebuildCallback_Invoke_m3604797831
Bha:__ZN13GfxDeviceGLES32InitStereoGlobalsBuffersPlatformEiijPKv
tOi:__ZL25UnresolvedVirtualCall_148P12Il2CppObjectfiPK10MethodInfo
XJ:__ZNK13BaseAllocator10IsAssignedEv
EG:__ZN24TextDOMTransferWriteBaseI9JSONWriteE12PushMetaFlagEi
kZh:__ZL59_PropertyBuilder_t1366136710_CustomAttributesCacheGeneratorP21CustomAttributesCache
mpa:__ZN6prcoreL26RemapGenericIntegerToFloatI17TexFormatARGB888815TexFormatRFloatEEvPKNS_9InnerInfoE
kK:__ZN5Mutex6UnlockEv
k5i:__ZN6il2cpp2vm10ThreadPool10InitializeEv
bch:_List_1__ctor_m808270210_gshared
Zfj:__ZN6il2cpp2vm17TypeNameParseInfoD2Ev
L3f:_PrimeHelper_ToPrime_m3704362632_gshared
cx:__ZN4FMOD7Channel7setModeEj
Jsf:_Decimal_System_IConvertible_ToType_m2919262279
xFg:_Vector2_get_right_m1027081661
zL:__ZNK8Renderer8GetLayerEv
WQd:_Stream_Close_m771352034
aye:__ZN21InterfaceFuncInvoker1Ii19TimeSpan_t881159249E6InvokeEjP11Il2CppClassP12Il2CppObjectS0_
Qwc:__ZN16PhysicsManager2D23FlagContactsForRecreateEP10Collider2D
jEb:__ZNK6Camera20GetReplacementShaderEv
bfh:_List_1_System_Collections_IList_Remove_m4226673807_gshared
tFj:__ZNSt3__26__treeINS_12__value_typeINS_12basic_stringIcNS_11char_traitsIcEENS_9allocatorIcEEEEPFvvEEENS_19__map_value_compareIS7_SA_NS_4lessIS7_EELb1EEENS5_ISA_EEE4findIS7_EENS_15__tree_iteratorISA_PNS_11__tree_nodeISA_PvEEiEERKT_
Bma:__ZL23stbir__calculate_memoryP11stbir__info
_aj:__ZNK15dense_hashtableINSt3__24pairIK10KeyWrapperINS1_IPK10MethodInfoP11Il2CppClassEEEjEES9_17ReflectionMapHashIS8_EN14dense_hash_mapIS9_jSD_NS9_14EqualsComparerINS0_8equal_toIS8_EEEENS0_9allocatorISB_EEE9SelectKeyESI_SK_E12test_deletedERK24dense_hashtable_iteratorISB_S9_SD_SM_SI_SK_E
vbf:_Interpreter_Close_m126356671
slh:_Collection_1_InsertItem_m168969280_gshared
jSc:__ZNSt3__227__insertion_sort_incompleteIRPFbPN2UI6CanvasES3_EPS3_EEbT0_S8_T_
xbg:_Latin1Encoding_GetMaxCharCount_m1720752733
Z1i:__ZN6il2cpp5utils13dynamic_arrayIPK10Il2CppTypeLj4EE7reserveEj
xXa:__ZN13sorted_vectorIN4core12basic_stringIcNS0_20StringStorageDefaultIcEEEENSt3__24lessIS4_EE13stl_allocatorIS4_L18MemLabelIdentifier81ELi16EEE4findIS4_EENS5_11__wrap_iterIPS4_EERKT_
BCi:_Parser_HandleExplicitNumericGroups_m1412234891
AOh:_Array_InternalArray__get_Item_TisRaycastHit2D_t2279581989_m2440275162_gshared
mZd:_CustomAttributeNamedArgument_Equals_m1414002036
kkc:__ZL26Transfer_SimpleNativeClassI8JSONRead10RectOffsetLb1EEvRK29SerializationCommandArgumentsR31RuntimeSerializationCommandInfo
Hug:_Material_SetInt_m475299667
gVc:__Z44CanvasRenderer_CUSTOM_INTERNAL_CALL_SetColorP12Il2CppObjectRK10ColorRGBAf
w0d:_FieldBuilder_GetFieldOffset_m725157755
WFe:_Enumerator_MoveNext_m3045873697_AdjustorThunk
f5f:_Enumerator_System_Collections_IEnumerator_Reset_m959124362_AdjustorThunk
Pvc:__ZN10ClipperLib11ClipperBaseD0Ev
kxf:_Enum_ToObject_m121831801
f9h:__ZL57AsyncOperation_t1445031843_CustomAttributesCacheGeneratorP21CustomAttributesCache
ugd:_Image_get_hasBorder_m3423344180
$gc:__Z18Transfer_BlittableI9JSONWriteLb1EsEvRK29SerializationCommandArgumentsR31RuntimeSerializationCommandInfo
lwc:__ZN10ClipperLib8JoinHorzEPNS_5OutPtES1_S1_S1_NS_8IntPointEb
pS:__ZN6ObjectD2Ev
_1b:__ZN9Transform16SetLocalRotationERK11Quaternionf
LTi:_objectRotate_Update_m1859965617
Bdd:_FontData_set_richText_m993590067
ILg:__Z58RuntimeInvoker_DSAParameters_t1885824122_SByte_t1669577662PFvvEPK10MethodInfoPvPS4_
AAb:__ZN13RenderManager37RenderCamerasWithScriptableRenderLoopEi
tid:_RuntimeMethodHandle__ctor_m2229201676
egg:_TimeSpan__ctor_m3689759052
UPh:__ZL49UInt16_t2177724958_CustomAttributesCacheGeneratorP21CustomAttributesCache
fxh:_ReadOnlyCollection_1_System_Collections_Generic_IListU3CTU3E_Insert_m447088589_gshared
E6g:__Z37RuntimeInvoker_Enumerator_t3123848928PFvvEPK10MethodInfoPvPS4_
Nrj:__ZN6il2cpp2os19ReleaseSocketHandleEj
iC:__ZN11AudioModule16GetDSPSampleRateEv
bxj:__ZN15dense_hashtableINSt3__24pairIK10KeyWrapperIPK19Il2CppGenericMethodEP10MethodInfoEES6_N6il2cpp8metadata23Il2CppGenericMethodHashEN14dense_hash_mapIS6_S9_SD_NS6_14EqualsComparerINSC_26Il2CppGenericMethodCompareEEENS0_9allocatorISA_EEE9SelectKeyESH_SJ_E5clearEv
p_b:__ZN16PropertyAccessor5ClearEv
qxb:__ZN15InstancingProps11NewConstantERKN9ShaderLab16FastPropertyNameEj15ShaderParamTypehhjjP6Object
oze:_Comparer_1__ctor_m3649041856_gshared
ygd:_Image_OnBeforeSerialize_m3415525254
YQe:_InputField_get_characterValidation_m4196664041
whg:_Type_get_Attributes_m58528356
PCh:__ZN23GenericVirtFuncInvoker1Ib19Vector2_t2156229523E6InvokeEPK10MethodInfoP12Il2CppObjectS0_
CEb:__ZN6Camera28DefaultPerformRenderFunctionD0Ev
dod:_Array_GetUpperBound_m4018715963
jAi:_X509Store__ctor_m2736551756
Otj:__ZN6il2cpp2os5posix15PosixWaitObjectC2ENS2_4TypeE
wCb:__ZN6Camera21PostMultiCustomRenderENS_10RenderFlagEb
PVf:_Array_InternalArray__Insert_TisMonoResource_t4103430009_m1997865927_gshared
yEf:_SHA512Managed_HashFinal_m2173184560
uta:__ZN12_GLOBAL__N_112UploadImagesEP7ApiGLESjji14GraphicsFormatPKhjS2_iiii16TextureUsageModePh
exb:__ZN23ShaderVariantCollection13WarmupShadersEv
VNb:__ZNK4PPtrI8MaterialEptEv
wVb:__ZN13ProduceHelperI9TransformLb0EE7ProduceE10MemLabelId18ObjectCreationMode
Jvi:_SslStreamBase_Finalize_m3260913635
HP:__Z25GetCommonScriptingClassesv
P5a:__Z27scripting_gc_collect_unsafei
Hff:_MD5SHA1_HashFinal_m4115488658
nC:__ZN11AudioModule20SuspendVideoTexturesEv
iTf:_Array_InternalArray__ICollection_Add_TisKeyValuePair_2_t71524366_m3468275433_gshared
VRi:_AudioSettings_InvokeOnAudioManagerUpdate_m4044425648
qE:__Z59Register_UnityEngine_AudioExtensionManager_GetAudioListenerv
XUh:__ZL78Calendar_t1661121569_CustomAttributesCacheGenerator_Calendar_Clone_m1356182658P21CustomAttributesCache
Ejb:__Z26Transfer_UnityEngineObjectI24GenerateTypeTreeTransferLb0EEvRK29SerializationCommandArgumentsR31RuntimeSerializationCommandInfo
qFd:_Convert_ToDouble_m278900635
UEc:_UNITY_FT_GlyphLoader_CheckPoints
Gqc:__ZN16b2PolygonContact7DestroyEP9b2ContactP16b2BlockAllocator
TOd:_Stream_BeginRead_m2233539237
J3f:_PrimeHelper_TestPrime_m2318568626_gshared
aUh:__ZL63KeyNotFoundException_t2292407383_CustomAttributesCacheGeneratorP21CustomAttributesCache
DBe:_Enumerator_System_Collections_IDictionaryEnumerator_get_Value_m684446183_AdjustorThunk
GIa:__ZN15SharedLightData7PrecalcEv
QR:__ZN10Matrix4x4fmLERKS_
Mq:__ZN4PPtrI9TransformE8TransferI18StreamedBinaryReadILb0EEEEvRT_
ezg:_Vector2__ctor_m3970636864
anb:__Z35Transfer_Blittable_FixedBufferFieldI18StreamedBinaryReadILb1EEsEvRK29SerializationCommandArgumentsR31RuntimeSerializationCommandInfo
nF:__ZNK4PPtrI4MeshEdeEv
Hxf:_Environment_InternalGetFolderPath_m468390978
dCa:__ZN15ArchiveReadFileD0Ev
U5h:__ZL65StackOverflowException_t3629451388_CustomAttributesCacheGeneratorP21CustomAttributesCache
obh:_List_1_System_Collections_Generic_ICollectionU3CTU3E_get_IsReadOnly_m2562366358_gshared
Kff:_RSASslSignatureFormatter__ctor_m1299283008
zYc:__ZN11UnityEngine15PlatformWrapper18GetOperatingSystemEv
Aca:__ZNSt3__26vectorIP14DataBufferGLESNS_9allocatorIS2_EEE21__push_back_slow_pathIKS2_EEvRT_
hIf:_SecurityFrame_ToString_m339310712
n6h:__ZL54ThreadStart_t1006689297_CustomAttributesCacheGeneratorP21CustomAttributesCache
fTh:__ZL62ParamArrayAttribute_t3664765590_CustomAttributesCacheGeneratorP21CustomAttributesCache
Ldd:_FontUpdateTracker_RebuildForFont_m3134452007
Ddi:__ZL98Transform_t3600365921_CustomAttributesCacheGenerator_Transform_INTERNAL_set_localScale_m1089294020P21CustomAttributesCache
fJi:_GUIStyleState_t1397964415_marshal_pinvoke
Fp:__ZN15SerializeTraitsI13dynamic_arrayIiLj4EEE19ResizeSTLStyleArrayERS1_i
XKh:_Array_Resize_TisVector4_t3319028937_m1507893064_gshared
i2h:__ZL94Interlocked_t2273387594_CustomAttributesCacheGenerator_Interlocked_CompareExchange_m3023855514P21CustomAttributesCache
D8b:__Z40SpriteRenderer_CUSTOM_GetSprite_INTERNALP12Il2CppObject
v7c:_TouchInputModule_ProcessTouchPress_m3504077560
ltd:__ZN25GenericVirtActionInvoker1IP33AssemblyLoadEventArgs_t2792010465E6InvokeEPK10MethodInfoP12Il2CppObjectS1_
xEc:_FT_MSB
H$f:_EqualityComparer_1_get_Default_m2572737998_gshared
jUj:_emscripten_glReadPixels__wrapper
Ire:_InternalEnumerator_1_MoveNext_m819973544_AdjustorThunk
JFj:__ZN6il2cpp6icalls8mscorlib4Mono8Security12Cryptography18KeyPairPersistence10_CanSecureEP12Il2CppString
nff:_MD4__ctor_m919379109
oNf:_Array_InternalArray__ICollection_Contains_TisParameterModifier_t1461694466_m1000453323_gshared
vXh:__ZL57FieldAttributes_t400321159_CustomAttributesCacheGeneratorP21CustomAttributesCache
SXf:_Dictionary_2_System_Collections_ICollection_CopyTo_m4047192178_gshared
c8i:__ZN6il2cpp2os4File11GetFileStatERKNSt3__212basic_stringIcNS2_11char_traitsIcEENS2_9allocatorIcEEEEPNS0_8FileStatEPi
$Bf:_RIPEMD160Managed_Initialize_m2173168986
ZZh:__ZL54IMessageCtrl_t317049502_CustomAttributesCacheGeneratorP21CustomAttributesCache
yXb:__ZN9TransformC2E10MemLabelId18ObjectCreationMode
Tca:__ZN13GfxDeviceGLES14SetRasterStateEPK17DeviceRasterState
WXd:_Assembly_ToString_m2053237013
Ydb:__Z30TransferField_LinearCollectionI14SafeBinaryReadEvRK29SerializationCommandArgumentsR31RuntimeSerializationCommandInfo
kvg:_Vector4_Equals_m1779210055
vvf:_Exception_set_HResult_m3489164646
OGc:_otv_Coverage_get_count
T7d:_ParameterModifier_t1461694466_marshal_pinvoke_back
HS:__ZN14SafeBinaryRead11EndTransferEv
i2f:_EqualityComparer_1__cctor_m2741186979_gshared
qeb:__ZN14SafeBinaryRead8TransferI8MonoPPtrEEvRT_PKc17TransferMetaFlags
F7h:__ZL70Uri_t100236324_CustomAttributesCacheGenerator_Uri_Unescape_m3373094076P21CustomAttributesCache
$_e:_ScrollRect_set_verticalNormalizedPosition_m1452826170
axf:_Enum_System_IConvertible_ToUInt16_m4216751959
qXg:__Z61RuntimeInvoker_Boolean_t97287965_PlayableHandleU26_t645981773PFvvEPK10MethodInfoPvPS4_
sua:__ZN21UniformBufferTFMethod13MapBoneBufferEj
GVf:_Array_InternalArray__Insert_TisInt32_t2950945753_m4073217122_gshared
CFe:_Enumerator_get_Current_m2897627569_AdjustorThunk
sDd:_SortedList_Remove_m2784369438
zla:__ZN4crnd12crn_unpacker10unpack_dxnEPPhjjj
Rpf:_DateTime_get_Kind_m2154871796_AdjustorThunk
oub:__ZN9TextAsset15ThreadedCleanupEv
aBi:_MatchCollection_get_SyncRoot_m1957585059
pQ:__ZN14SerializedFileD2Ev
P2:__Z21CompleteFenceInternalR8JobFence
Mdc:__Z30Event_Get_Custom_PropModifiersP12Il2CppObject
_6g:__Z79RuntimeInvoker_RuntimeObject_OrderBlock_t1585977831_RuntimeObject_RuntimeObjectPFvvEPK10MethodInfoPvPS4_
hXi:_Physics2D_Raycast_m2858866636
Yhe:_SoapAttribute_SetReflectionObject_m4109300849
yXe:_RawImage_get_mainTexture_m2396337033
z8i:__ZN6il2cpp2vm10Reflection17GetAssemblyObjectEPK14Il2CppAssembly
rMf:_DecoderFallbackBuffer_Reset_m3069554060
Qrb:__ZNSt3__218__stable_sort_moveIRN10vector_mapI17ScriptingClassPtrPKN5Unity4TypeENS_4lessIS2_EENS_9allocatorINS_4pairIS2_S6_EEEEE13value_compareENS_11__wrap_iterIPSB_EEEEvT0_SJ_T_NS_15iterator_traitsISJ_E15difference_typeEPNSM_10value_typeE
b5:__ZN6Shader21AwakeFromLoadThreadedEv
ooa:__ZN6prcoreL17RemapGenericFloatI17TexFormatRGBFloat17TexFormatRGBAHalfEEvPKNS_9InnerInfoE
wKe:_BigInteger__ctor_m3991350270
jFg:_Vector2_GetHashCode_m3916089713_AdjustorThunk
t1c:__ZN13RuntimeStaticINSt3__26vectorIjNS0_9allocatorIjEEEELb0EE16StaticInitializeEPv
cI:__ZN13UploadHandler10OnSentDataEj
VGj:__ZN6il2cpp2os9SemaphoreC2Eii
seb:__ZNSt3__26vectorI8MonoPPtr13stl_allocatorIS1_L18MemLabelIdentifier1ELi16EEE8__appendEj
$Cb:__ZN14qsort_internal30FindAndMovePivotToLastPositionIP17RODataReplacementi19ROSorterReplacementEEvT_S4_T0_T1_
Dua:__ZN15UniformTFMethod20IsBoneCountSupportedEi
Eth:_ReadOnlyCollection_1_System_Collections_IList_get_Item_m3076053687_gshared
Jlg:_UnauthorizedAccessException__ctor_m246605039
TWb:__Z12BuildTextureIA4_tPFvP9Texture2DPS0_iiiiEES2_PKcii13TextureFormatRKT0_17TextureColorSpaceb
INj:dynCall_viidi
YO:__ZN24ScriptingMethodFiltering17FilterOnSignatureENS_18MethodSearchFilterE
COb:__ZN18ScreenManagerWebGL13SetLockCursorE14CursorLockMode
dif:_CipherSuite_DecryptRecord_m1495386860
_yi:_X509Certificate_VerifySignature_m3538124832
_Qd:_StreamAsyncResult_SetComplete_m1102187093
GEi:_CharacterClass_GetIntervalCost_m4036989868
SUb:__ZN13MonoBehaviour19HandleNotificationsEPviR11MessageData
bAg:_RectOffset_Init_m2028508611
wHj:__ZN6il2cpp2os9EventImpl5ResetEv
Ndh:_List_1_Sort_m933660666_gshared
Sgf:_Alert__ctor_m3135936936
fLd:_Int64_System_IConvertible_ToInt32_m772105781
Vvi:_TlsClientSettings__ctor_m3220697265
Acj:__ZNK15dense_hashtableINSt3__24pairIK10KeyWrapperINS1_IPK9EventInfoP11Il2CppClassEEEjEES9_17ReflectionMapHashIS8_EN14dense_hash_mapIS9_jSD_NS9_14EqualsComparerINS0_8equal_toIS8_EEEENS0_9allocatorISB_EEE9SelectKeyESI_SK_E23find_position_with_hashERSA_j
rPi:__ZL25UnresolvedVirtualCall_200P12Il2CppObject6Guid_tS1_PK10MethodInfo
jEi:_CaptureAssertion_set_CapturingGroup_m2003123956
eRj:b58
QYg:__Z103RuntimeInvoker_Boolean_t97287965_RuntimeObject_Vector2_t2156229523_RuntimeObject_Vector2U26_t2376273893PFvvEPK10MethodInfoPvPS4_
iXf:_Dictionary_2_make_pair_m2250450206_gshared
nbg:_ForwardingDecoder_GetChars_m4228908854
Qbf:_InterpreterFactory_get_GroupCount_m2226373271
PQj:b53
MQj:b50
NQj:b51
cRj:b56
dRj:b57
QQj:b54
$Qj:b55
Y8f:_List_1_System_Collections_IList_get_IsReadOnly_m3531293387_gshared
Nz:__ZN4PPtrI15AudioMixerGroupE8TransferI18StreamedBinaryReadILb0EEEEvRT_
qJe:_SimpleCollator_IsSafe_m310268646
HQf:_Array_InternalArray__IEnumerable_GetEnumerator_TisWorkRequest_t1354518612_m2622205355_gshared
nvd:_Byte_System_IConvertible_ToByte_m162267264_AdjustorThunk
rod:_X509Certificate_get_RawData_m2387471414
MSj:_glDetachShader__wrapper
dtd:_ArrayTypeMismatchException__ctor_m3375008173
ZCe:_Transform_1_BeginInvoke_m1757796657_gshared
ugj:__ZNSt3__214__split_bufferINS_12basic_stringIcNS_11char_traitsIcEENS_9allocatorIcEEEERNS4_IS6_EEEC2EjjS8_
L4f:_KeyValuePair_2__ctor_m1794021352_AdjustorThunk
i1g:__Z88RuntimeInvoker_Int32_t2950945753_UIVertex_t4057497605_UIVertex_t4057497605_RuntimeObjectPFvvEPK10MethodInfoPvPS4_
aZb:__ZN10GameObject12CleanupClassEv
Hda:__ZN9GfxDevice25SetShaderPropertiesSharedERK19ShaderPropertySheet
h8c:_BaseMeshEffect_get_graphic_m1852367505
DAd:_CaseInsensitiveHashCodeProvider_GetHashCode_m2168170016
_tb:__ZN10MonoScript17MainThreadCleanupEv
Zka:__ZN18AsyncUploadManager19AsyncResourceUploadER9GfxDeviceii9TextureID
mwe:_InternalEnumerator_1_Dispose_m28687982_AdjustorThunk
uYb:__ZL25InitializeDefaultMaterialv
HVc:__Z53Register_UnityEngine_CanvasRenderer_get_materialCountv
Z2d:_PropertyBuilder_GetCustomAttributes_m3798356764
uOd:_Stream__ctor_m3881936881
X7d:_PropertyInfo_get_MemberType_m2794839864
NCa:__ZN19FileAccessorHandlerD2Ev
w7f:_Enumerator_Dispose_m2367589020_AdjustorThunk
Yye:_Comparer_1_System_Collections_IComparer_Compare_m4179495191_gshared
qAa:__ZN17PersistentManager12UnloadStreamERKN4core12basic_stringIcNS0_20StringStorageDefaultIcEEEEb
cDa:__ZN10MemoryFile4ReadEyyPvPy
NIh:_Array_InternalArray__Insert_TisUICharInfo_t75501106_m2924156520_gshared
j1f:_EqualityComparer_1_System_Collections_IEqualityComparer_Equals_m3139704160_gshared
_Sf:_MonoProperty_GetterAdapterFrame_TisRuntimeObject_TisRuntimeObject_m458718082_gshared
GVa:__ZN13ScreenManager17RequestResolutionEiibi
bij:_il2cpp_unity_liveness_calculation_from_statics
Vhe:_SoapAttribute__ctor_m1857608874
twe:_InternalEnumerator_1_System_Collections_IEnumerator_get_Current_m2649471526_gshared
n0f:_EqualityComparer_1_System_Collections_IEqualityComparer_Equals_m3218482536_gshared
aW:__ZN8Renderer8TransferI17RemapPPtrTransferEEvRT_
Lvi:_InternalAsyncResult_get_AsyncState_m1436290550
_me:_InternalEnumerator_1_Dispose_m2018798800_AdjustorThunk
fda:__ZN13GfxDeviceGLES26UpdateViewProjectionMatrixEv
Yze:_Enumerator_System_Collections_IDictionaryEnumerator_get_Entry_m522483686_gshared
EOe:_PrivateKeyInfo_RemoveLeadingZero_m3921889925
Oeg:_Thread_get_CurrentContext_m1695017876
ePh:_Mesh_GetAllocArrayFromChannel_TisColor32_t2600501292_m3180365313_gshared
Dpc:__ZN16PhysicsManager2D19AddRigidbodyUpdatesEP11Rigidbody2D
zMb:__Z24LookRotationToQuaternionRK8Vector3fS1_P11Quaternionf
xMb:__ZN16ReflectionProbes9GetCameraEv
Vaa:__ZL18IsGpuProgramUsable20ShaderGpuProgramTypePK6Shader
nUc:__ZN2UI6Canvas17SetSortingLayerIDEi
p8c:_Button_get_onClick_m2332132945
Ltj:__ZN6il2cpp2vm11MethodStack23CleanupForCurrentThreadEv
aqi:__ZL61Image_t2670269651_CustomAttributesCacheGenerator_m_FillMethodP21CustomAttributesCache
lHd:_Convert_ToUInt64_m388601487
CJa:__ZN20TierGraphicsSettings8TransferI24GenerateTypeTreeTransferEEvRT_
L1i:__ZN15dense_hashtableINSt3__24pairIK10KeyWrapperIN6il2cpp5utils13dynamic_arrayIPK10Il2CppTypeLj4EEEEPFvvEEESA_NS3_8metadata19Il2CppSignatureHashEN14dense_hash_mapISA_SD_SG_NSA_14EqualsComparerINSF_22Il2CppSignatureCompareEEENS0_9allocatorISE_EEE9SelectKeyESK_SM_E16reset_thresholdsEv
Hvg:_Mesh_get_vertices_m3585684815
fgb:__ZN14SafeBinaryRead21TransferSTLStyleArrayI13dynamic_arrayI4AABBLj4EEEEvRT_17TransferMetaFlags
yDg:_TouchScreenKeyboard_get_text_m1797464608
INb:__ZN26CustomRenderTextureManager25UpdateCustomRenderTextureEP19CustomRenderTexturei
S3:__ZNSt3__26__treeINS_12__value_typeIiN11TypeManager18TypeCallbackStructEEENS_19__map_value_compareIiS4_NS_4lessIiEELb1EEENS_9allocatorIS4_EEE7destroyEPNS_11__tree_nodeIS4_PvEE
dsi:__ZL60Slider_t3903728902_CustomAttributesCacheGenerator_m_FillRectP21CustomAttributesCache
Otb:__ZN13MonoBehaviour18TransferEngineDataI24GenerateTypeTreeTransferEE4PPtrI10MonoScriptERT_
Koi:__ZL75U3COnFinishSubmitU3Ec__Iterator0_t3413438900_CustomAttributesCacheGeneratorP21CustomAttributesCache
N$g:__Z71RuntimeInvoker_Void_t1185182177_CornerU26_t2243868623_Int32_t2950945753PFvvEPK10MethodInfoPvPS4_
Vwc:__ZN16PhysicsManager2D42RegisterTransformChangeInterestForColliderEP10Collider2D
Tsg:_TextureMixerPlayable_Equals_m1074187513_AdjustorThunk
uXc:__ZN11UnityEngine7Connect17XRDeviceInfoEventD0Ev
p_h:__ZL60SoapTypeAttribute_t1750930817_CustomAttributesCacheGeneratorP21CustomAttributesCache
CYd:_Binder_ConvertArgs_m2124461494
TJ:__ZN21UnityDefaultAllocatorI17LowLevelAllocatorE10DeallocateEPv
FUj:b86
Qr:__ZN15PackedIntVector8TransferI14SafeBinaryReadEEvRT_
zFg:_Vector3__ctor_m3353183577_AdjustorThunk
Zoe:_InternalEnumerator_1_System_Collections_IEnumerator_get_Current_m1514266661_gshared
Gff:_MD5SHA1_Initialize_m675470944
WTf:_Array_InternalArray__ICollection_Add_TisKeyframe_t4206410242_m442111799_gshared
Ech:_List_1_CheckMatch_m3263549496_gshared
k2h:__ZL58ManualResetEvent_t451242010_CustomAttributesCacheGeneratorP21CustomAttributesCache
rwh:_ReadOnlyCollection_1_System_Collections_IList_get_IsReadOnly_m2041535988_gshared
Lyi:_X509Certificate_set_KeyAlgorithmParameters_m2010117999
Gv:__ZN13AudioListener8DoUpdateEv
SKd:_Int32_GetTypeCode_m1648562395_AdjustorThunk
AEd:__Z13bankers_roundd
O2a:__ZN14SafeBinaryRead8TransferI5RectTIfEEEvRT_PKc17TransferMetaFlags
wi:_emscripten_glGenFramebuffers
M3:__ZN17BaseObjectManager16StaticInitializeEPv
J5:__ZNSt3__26vectorIN9ShaderLab26SerializedShaderDependencyENS_9allocatorIS2_EEE26__swap_out_circular_bufferERNS_14__split_bufferIS2_RS4_EE
g3h:__ZL80Convert_t2465617642_CustomAttributesCacheGenerator_Convert_ToBoolean_m3613483153P21CustomAttributesCache
_7g:_List_1_CheckCollection_m2602703205_gshared
iya:__ZN9Behaviour23VirtualRedirectTransferER17RemapPPtrTransfer
Hhc:__Z18Transfer_BlittableI9JSONWriteLb0EyEvRK29SerializationCommandArgumentsR31RuntimeSerializationCommandInfo
kOa:__ZN13RenderTexture15ThreadedCleanupEv
h7e:_X509BasicConstraintsExtension__ctor_m3721156175
qRa:__ZN12CubemapArray23VirtualRedirectTransferER14SafeBinaryRead
smi:__ZL70EventSystem_t1003666588_CustomAttributesCacheGenerator_m_DragThresholdP21CustomAttributesCache
rNd:_Path_GetFileName_m1354558116
KMe:_BitConverterLE_ToDouble_m1601000678
KRj:_emscripten_glUniform3i__wrapper
Lzg:_Rect_Contains_m1232228501_AdjustorThunk
Nsa:__ZN18ProceduralMaterial9ReloadAllEbb
K7b:__Z43RectTransform_CUSTOM_INTERNAL_set_sizeDeltaP12Il2CppObjectRK13Vector2fIcall
oLd:_Int64_System_IConvertible_ToType_m3223988955_AdjustorThunk
Bpj:__ZN15dense_hashtableINSt3__24pairIK10KeyWrapperINS1_IPKcS4_EEEiEES6_24NamespaceAndNamePairHashN14dense_hash_mapIS6_iS9_NS6_14EqualsComparerI26NamespaceAndNamePairEqualsEENS0_9allocatorIS8_EEE9SelectKeyESD_SF_E6insertERKS8_
ZV:__ZN24GenerateTypeTreeTransfer18BeginArrayTransferEPKcS1_Ri17TransferMetaFlags
yOh:_Array_InternalArray__get_Item_TisPlayableBinding_t354260709_m3837494573_gshared
tm:___syscall51
nLf:_String_CreateString_m4016935005
YAi:_MatchCollection_get_FullList_m1829231879
xm:___syscall54
Urd:_Array_GetValue_m2528415604
_Zh:__ZL55IMessageSink_t2514424906_CustomAttributesCacheGeneratorP21CustomAttributesCache
KEf:_SymmetricAlgorithm_Clear_m3302238152
VAg:_Transform_INTERNAL_CALL_TransformPoint_m4261269221
PBf:_Guid_AppendShort_m791023083
zni:__ZL109PointerEventData_t3807901092_CustomAttributesCacheGenerator_PointerEventData_get_eligibleForClick_m3788762543P21CustomAttributesCache
_ch:_List_1__ctor_m4212503576_gshared
Scg:_UTF32Encoding_GetBytes_m2832872594
cca:__ZN9ShaderLab9SubShader19CreateFromSubShaderERKS0_
Dlb:__Z18Transfer_BlittableI19StreamedBinaryWriteILb0EELb1EjEvRK29SerializationCommandArgumentsR31RuntimeSerializationCommandInfo
VEc:_cff_builder_add_point1
Kqj:__ZN6il2cpp2vm5Image21GetCachedResourceDataEPK11Il2CppImageRKNSt3__212basic_stringIcNS5_11char_traitsIcEENS5_9allocatorIcEEEE
$cb:__Z18Transfer_BlittableI14SafeBinaryReadLb0E10ColorRGBAfEvRK29SerializationCommandArgumentsR31RuntimeSerializationCommandInfo
Aa:invoke_iiiiiiiiii
yrg:_DrivenRectTransformTracker_Clear_m371772582
TD:__ZN11AudioSource25GetNumExtensionPropertiesEv
hVf:_Array_InternalArray__ICollection_CopyTo_TisUILineInfo_t4195266810_m104406798_gshared
YB:__ZNK7Texture10GetVRUsageEv
sxd:_Char_ToLowerInvariant_m1926695830
EZf:_DefaultComparer__ctor_m41012692_gshared
Qqg:_Debug_LogErrorFormat_m3558239521
bed:_Graphic_get_canvas_m3320066409
qSe:_InputField_ActivateInputFieldInternal_m3360893886
vhh:_List_1_Insert_m1781696722_gshared
lu:__ZN4FMOD7SystemI11createSoundEPKcjP22FMOD_CREATESOUNDEXINFOPPNS_5SoundE
KQb:__ZN10FileSystem19SetCurrentDirectoryERKN4core12basic_stringIcNS0_20StringStorageDefaultIcEEEE
Qpg:_Component_get_gameObject_m442555142
GTd:_Math_Log_m2526073084
CVb:__ZN23TransformChangeDispatch24RemovePermanentInterestsE15TransformAccessPKN5Unity4TypeE
d4b:__Z47Register_UnityEngine_Coroutine_ReleaseCoroutinev
rw:__ZN15AudioReverbZone13SetFMODValuesEv
KN:__ZN14SafeBinaryRead4InitERK16TypeTreeIteratorxx24TransferInstructionFlags10MemLabelId
X4:__ZL19StaticDestroyShaderPv
fe:_glRenderbufferStorageMultisample
nni:__ZL105PointerEventData_t3807901092_CustomAttributesCacheGenerator_PointerEventData_get_pointerEnter_m3901270554P21CustomAttributesCache
UCd:_SyncHashtable_Clone_m3726939774
$9i:__ZNK15dense_hashtableINSt3__24pairIK10KeyWrapperIPK10Il2CppTypeEjEES6_N6il2cpp8metadata14Il2CppTypeHashEN14dense_hash_mapIS6_jSB_NS6_14EqualsComparerINSA_26Il2CppTypeEqualityComparerEEENS0_9allocatorIS8_EEE9SelectKeyESF_SH_E10test_emptyEj
KXh:__ZL62ParameterAttributes_t1826424051_CustomAttributesCacheGeneratorP21CustomAttributesCache
cjc:__ZN9JSONWrite8TransferI13dynamic_arrayIN4math12int3_storageELj4EEEEvRT_PKc17TransferMetaFlags
pFb:__ZN22MotionVectorRenderLoopD2Ev
WPd:_MemoryStream_get_CanRead_m1639425566
Sqg:_Debug_LogException_m2207318968
xMf:_DecoderReplacementFallback_GetHashCode_m1611165826
Pgd:_Image_get_minWidth_m755066479
pXj:_pthread_cond_broadcast__wrapper
cTf:_Array_InternalArray__ICollection_Add_TisClientCertificateType_t1004704908_m2622721177_gshared
Yr:__ZN17PackedFloatVector8TransferI18StreamedBinaryReadILb0EEEEvRT_
rSa:__ZN7Cubemap23VirtualRedirectTransferER17RemapPPtrTransfer
Fac:__Z37Register_UnityEngine_Screen_get_widthv
lGi:_Uri_get_Authority_m3816772302
h$b:__ZN22BlockMemoryCacheWriter11GetPathNameEv
WOe:_RSAManaged_ToXmlString_m645792083
pDg:_Touch_get_position_m3109777936
d7d:_ParameterInfo__ctor_m3269320476
iaf:_X509SubjectKeyIdentifierExtension_FromHexChars_m3244835916
UIf:_Single_CompareTo_m2785801815
Jxi:_PKCS12_MAC_m3355614022
b_h:__ZL63IMethodReturnMessage_t3705538073_CustomAttributesCacheGeneratorP21CustomAttributesCache
ip:stackAlloc
x4b:__Z44Camera_CUSTOM_INTERNAL_CALL_ScreenPointToRayP12Il2CppObjectRK8Vector3fR3Ray
oDa:__ZN25SingleBlockMemoryFileData4LockEPPv
aab:__ZN12HandlerChain5TouchER13FileEntryData
pVj:_glProgramParameteri__wrapper
Jxc:__ZNK16CircleCollider2D22GetCompositeCapabilityEv
Uyh:_ReadOnlyCollection_1_System_Collections_Generic_ICollectionU3CTU3E_get_IsReadOnly_m1215739200_gshared
FN:__ZN17PersistentManager23PostReadActivationQueueEiPK8TypeTreeb
Lmg:_AnimationCurve_t3046754366_marshal_pinvoke
g6b:__Z32RectOffset_Get_Custom_PropBottomP12Il2CppObject
Nqg:_Debug_LogError_m2850623458
eNi:__ZL24UnresolvedVirtualCall_79P12Il2CppObjectPK10MethodInfo
gph:_Collection_1_CheckWritable_m3225530705_gshared
SQi:__ZN25GenericVirtActionInvoker1IP24SingleU5BU5D_t1444911251E6InvokeEPK10MethodInfoP12Il2CppObjectS1_
iti:__ZL74LayoutElement_t1785403678_CustomAttributesCacheGenerator_m_PreferredHeightP21CustomAttributesCache
BJj:_stat
sU:__ZN9ShaderLab10SubProgram7CompileEv
sxb:__ZN15InstancingProps14CombineBuiltinEN10Instancing11BuiltinPropES1_S1_
ydh:_List_1_Contains_m353222571_gshared
S2d:_PropertyBuilder_get_CanRead_m3783190070
sQ:__ZN14SerializedFile14SerializedTypeD2Ev
Z5h:__ZL64ThreadStaticAttribute_t3840787420_CustomAttributesCacheGeneratorP21CustomAttributesCache
jTf:_Array_InternalArray__ICollection_Add_TisKeyValuePair_2_t3699644050_m4052349323_gshared
qif:_CipherSuiteCollection_System_Collections_IList_get_Item_m2175128671
ypc:__ZN15b2DistanceJoint23InitVelocityConstraintsERK12b2SolverData
nGa:__ZN6CameraD2Ev
ma:invoke_iiiiiiiiiiii
vpf:_DateTime_System_IConvertible_ToType_m1242864300_AdjustorThunk
XGe:_ValueCollection_get_Count_m994935123_gshared
Dve:_InternalEnumerator_1_get_Current_m2446410893_AdjustorThunk
lKa:__Z29CalculateDefaultChannelsToAdd17ShaderChannelMaskS_
jgi:__ZL89PlayableBinding_t354260709_CustomAttributesCacheGenerator_U3CstreamTypeU3Ek__BackingFieldP21CustomAttributesCache
SFa:__ZN10TagManager13RegisterLayerEjRKN4core12basic_stringIcNS0_20StringStorageDefaultIcEEEE
pwa:__ZNSt3__26__treeI20DeviceBlendStateGLES14MemoryCompLessI16DeviceBlendStateENS_9allocatorIS1_EEE7destroyEPNS_11__tree_nodeIS1_PvEE
hVi:_CanvasRenderer_SetMaterial_m633746949
nz:__ZN10AudioMixer12RebindOutputEv
vjj:__ZNK15dense_hashtableINSt3__24pairIK10KeyWrapperIP11Il2CppClassES4_EES5_N6il2cpp8metadata16SZArrayClassHashEN14dense_hash_mapIS5_S4_SA_NS5_14EqualsComparerINS9_19SZArrayClassCompareEEENS0_9allocatorIS7_EEE9SelectKeyESE_SG_E5beginEv
epe:_InternalEnumerator_1__ctor_m819716934_gshared
uVe:_LayoutRebuilder_PerformLayoutControl_m4241054021
nZi:__ZN6il2cpp2vm17SetupFieldsLockedEP11Il2CppClassRKNS_2os12FastAutoLockE
wPi:__ZL25UnresolvedVirtualCall_205P12Il2CppObjectiS0_PK10MethodInfo
gVe:_U3CDelayedSetDirtyU3Ec__Iterator0_System_Collections_IEnumerator_get_Current_m3096581881
fwb:__ZNK9GfxDevice20IsViewportFullscreenEv
Sz:__ZN11AudioSourceD0Ev
bra:__ZN18GlslGpuProgramGLES13SwitchProgramEj
bEa:__ZN20ArchiveStorageReaderC2E10MemLabelId
xIg:__Z132RuntimeInvoker_Int32_t2950945753_RuntimeObject_Int32_t2950945753_Int32_t2950945753_RuntimeObject_Int32_t2950945753_Int32_t2950945753PFvvEPK10MethodInfoPvPS4_
sbb:__ZN16MemoryFileSystem4NameEv
f6c:_ButtonState__ctor_m1506593332
Aac:__Z13SetCopyBufferRKN4core12basic_stringIcNS_20StringStorageDefaultIcEEEE
Y5f:_Enumerator_get_Current_m2468920150_AdjustorThunk
lwi:_TlsException__ctor_m818940807
Fod:_X509CertificateEnumerator_System_Collections_IEnumerator_get_Current_m418791713
sPc:_UNITY_FT_New_Size
Q2b:__Z42ScriptingGetComponentsOfTypeFromGameObjectRK26ScriptingGetComponentsArgs
nBh:_Func_3_BeginInvoke_m2985061395_gshared
ufi:__ZL73ArgumentCache_t2187958399_CustomAttributesCacheGenerator_m_ObjectArgumentP21CustomAttributesCache
Cqg:_StateChanged_EndInvoke_m3313423087
dMh:_Array_swap_TisRaycastResult_t3360306849_TisRaycastResult_t3360306849_m3400922624_gshared
BRi:_AudioListener_ReadExtensionName_m929423100
EPc:_raccess_guess_vfat
o$d:_EnumBuilder_get_DeclaringType_m4266754303
DQa:__ZNSt3__27__sort4IRPFbRKNS_4pairIN9ShaderLab16FastPropertyNameEN18UnityPropertySheet11UnityTexEnvEEES8_EPS6_EEjT0_SD_SD_SD_T_
NCi:_Assertion_get_TrueExpression_m2743006331
TDc:_cf2_hintmap_build
erc:__ZN7b2ShapeD2Ev
_Cg:_Texture_get_width_m888163864
aNc:_Line_Up
Pob:__Z29Transfer_Blittable_ArrayFieldI18StreamedBinaryReadILb1EExEvRT_R9ArrayInfoRK23StaticTransferFieldInfo
LKh:_Array_Resize_TisRaycastResult_t3360306849_m1277390301_gshared
me:_emscripten_glBufferSubData
QKf:_String_ReplaceUnchecked_m1381393810
fPe:_SymmetricTransform_CBC_m435753239
Jhb:__Z18Transfer_BlittableI17RemapPPtrTransferLb1EyEvRK29SerializationCommandArgumentsR31RuntimeSerializationCommandInfo
Qsi:__ZL76ContentSizeFitter_t3850442145_CustomAttributesCacheGenerator_m_HorizontalFitP21CustomAttributesCache
fye:_DefaultComparer_Compare_m3278268937_gshared
$p:__Z17CalculateGlobalRS23TransformAccessReadOnly
Yaj:__ZN24dense_hashtable_iteratorINSt3__24pairIK10KeyWrapperINS1_IPK10MethodInfoP11Il2CppClassEEEjEES9_17ReflectionMapHashIS8_EN14dense_hash_mapIS9_jSD_NS9_14EqualsComparerINS0_8equal_toIS8_EEEENS0_9allocatorISB_EEE9SelectKeyESI_SK_E30advance_past_empty_and_deletedEv
gEj:__ZNSt3__210__list_impIPN6il2cpp5utils10MemoryPool6RegionENS_9allocatorIS5_EEE5clearEv
Wue:_InternalEnumerator_1_get_Current_m1523142935_gshared
r1c:__ZN13RuntimeStaticINSt3__26vectorIN5physx25PxVehicleWheelQueryResultENS0_9allocatorIS3_EEEELb0EE16StaticInitializeEPv
bgb:__ZN14SafeBinaryRead21TransferSTLStyleArrayI13dynamic_arrayI9BoundsIntLj4EEEEvRT_17TransferMetaFlags
J7a:__ZN22MemoryCacherReadBlocks14LockCacheBlockEjPPhS1_
$Qd:_StreamAsyncResult_get_NBytes_m548041729
Ifj:__ZN6il2cpp2vm14TypeNameParser17ParseAssemblyNameEv
YYa:__ZNK9GfxDevice26GetSinglePassStereoEyeMaskEv
$qg:_DebugLogHandler_Internal_Log_m4175774469
ayj:__ZN4utf88internal15increase_safelyIPKcEENS0_9utf_errorERT_S5_
CHf:_SecurityContext_get_CompressedStack_m3401528670
HOc:__ZN20TextRenderingPrivate8FontImpl16CacheFontForTextEPtiifjPK13dynamic_arrayINS_16TextFormatChangeELj4EE
Dxd:_CharEnumerator_get_Current_m525608209
sse:_InternalEnumerator_1_Dispose_m887344916_AdjustorThunk
Y2c:__Z21ArrayElementTypeCheckP11Il2CppArrayPv
tUj:_emscripten_glTexSubImage2D__wrapper
byc:__ZN17PhysicsMaterial2D16CheckConsistencyEv
nvf:_StackTrace_init_frames_m641783388
W6e:_PublicKey_DecodeRSA_m1824703659
uLj:__ZNSt3__212basic_stringIcNS_11char_traitsIcEENS_9allocatorIcEEE6appendEjc
jAc:__ZN16PhysicsManager2D20WorldContactFilter2D13ShouldCollideEP9b2FixtureS2_
csb:__ZN4core8hash_mapINS_12basic_stringIcNS_20StringStorageDefaultIcEEEEiNS_4hashIS4_EENSt3__28equal_toIS4_EEE4growEi
NWc:__Z42Register_UnityEngine_Canvas_get_rootCanvasv
e3h:__ZL78Convert_t2465617642_CustomAttributesCacheGenerator_Convert_ToBoolean_m40300963P21CustomAttributesCache
zyd:_ArrayListWrapper_set_Item_m3849584877
Ve:_TTF_RenderText_Solid
bsb:__ZN4core8hash_mapINS_12basic_stringIcNS_20StringStorageDefaultIcEEEEiNS_4hashIS4_EENSt3__28equal_toIS4_EEE4growEv
cng:__ZN23InterfaceActionInvoker3IP8String_tS1_iE6InvokeEjP11Il2CppClassP12Il2CppObjectS1_S1_i
K8f:_List_1__ctor_m3947764094_gshared
zPh:__ZL52IComparable_t36111218_CustomAttributesCacheGeneratorP21CustomAttributesCache
cFi:_Parser_IsIgnorePatternWhitespace_m2107132682
g4e:_HttpRequestCreator_Create_m400548686
j$c:__ZN11UnityEngine7Connect16PersistentValuesC2Ev
lOg:__Z49RuntimeInvoker_RuntimeObject_StringU26_t181565287PFvvEPK10MethodInfoPvPS4_
Vxh:_ReadOnlyCollection_1_System_Collections_IList_Insert_m134149130_gshared
lhc:__Z18Transfer_BlittableI9JSONWriteLb0E5RectTIiEEvRK29SerializationCommandArgumentsR31RuntimeSerializationCommandInfo
AKe:_BigInteger_get_Rng_m4216817480
aDc:_cf2_getStdVW
fOf:_Array_InternalArray__ICollection_Remove_TisDateTime_t3738529785_m2250893026_gshared
r0h:__ZL67RijndaelManagedTransform_t4102601014_CustomAttributesCacheGeneratorP21CustomAttributesCache
tra:__Z15IsIEEE754Format14GraphicsFormat
Xhb:__Z19TransferField_ArrayI17RemapPPtrTransfer27Converter_UnityEngineObjectEvRK23StaticTransferFieldInfoR31RuntimeSerializationCommandInfoRT0_
$a:invoke_iifiii
qBd:_KeyNotFoundException__ctor_m541499307
z$:__ZN13RuntimeStaticINSt3__23mapIN4core12basic_stringIcNS2_20StringStorageDefaultIcEEEES6_NS0_4lessIS6_EE13stl_allocatorINS0_4pairIKS6_S6_EEL18MemLabelIdentifier13ELi16EEEELb0EE16StaticInitializeEPv
CPf:_SetPropertyUtility_SetStruct_TisSpriteState_t1362986479_m665096788_gshared
TIg:__Z61RuntimeInvoker_Single_t1397266774_RuntimeObject_RuntimeObjectPFvvEPK10MethodInfoPvPS4_
xAi:_Enumerator__ctor_m1228633090
lOf:_Array_InternalArray__ICollection_Remove_TisIntPtr_t_m3807208150_gshared
MVg:__Z71RuntimeInvoker_Void_t1185182177_Vector3_t3722313464_Vector3_t3722313464PFvvEPK10MethodInfoPvPS4_
bse:_InternalEnumerator_1_get_Current_m2316281569_AdjustorThunk
yof:_DateTime__ctor_m1095105629
afa:__ZN13GfxDeviceGLES15UploadTexture2DE9TextureID16TextureDimensionPKhiii14GraphicsFormati18TextureUploadFlags16TextureUsageMode
R4g:__Z41RuntimeInvoker_KeyValuePair_2_t3699644050PFvvEPK10MethodInfoPvPS4_
SGi:_Event_Cleanup_m2477919477
jy:__ZN4FMOD6System9createDSPEP20FMOD_DSP_DESCRIPTIONPPNS_3DSPE
A2h:__ZL87Thread_t2300836069_CustomAttributesCacheGenerator_Thread_GetCompressedStack_m2923422412P21CustomAttributesCache
gCg:_HitInfo_t3229609740_marshal_pinvoke_back
Bnf:_SslClientStream_get_ClientCertificates_m998716871
sf:_JS_SystemInfo_HasCursorLock
ju:__ZN4FMOD8ChannelI11EndCallbackEv
pdc:__ZN8GUIStyle14SetDefaultFontEPN13TextRendering4FontE
f8g:_List_1_ToArray_m2860284581_gshared
_Ua:__ZN15QualitySettings23VirtualRedirectTransferER24GenerateTypeTreeTransfer
Dke:_ObjectReader_ReadValue_m3145979203
AGg:_TypeInferenceRuleAttribute_ToString_m4089326196
Z8c:_CanvasScaler_OnDisable_m3424669401
eFe:_Transform_1_BeginInvoke_m500585065_gshared
Mha:__ZThn9568_N13GfxDeviceGLES32InitStereoGlobalsBuffersPlatformEiijPKv
mri:__ZL68Scrollbar_t1494447233_CustomAttributesCacheGenerator_m_NumberOfStepsP21CustomAttributesCache
KZe:_ScrollRect_set_content_m321343743
_$i:__ZN30dense_hashtable_const_iteratorINSt3__24pairIK10KeyWrapperIPK19Il2CppGenericMethodEPK26Il2CppGenericMethodIndicesEES6_N6il2cpp8metadata23Il2CppGenericMethodHashEN14dense_hash_mapIS6_SA_SE_NS6_14EqualsComparerINSD_26Il2CppGenericMethodCompareEEENS0_9allocatorISB_EEE9SelectKeyESI_SK_EppEv
GCc:_UNITY_FT_Request_Metrics
UNa:__ZN7Texture8TransferI18StreamedBinaryReadILb0EEEEvRT_
woj:__ZN6il2cpp6icalls8mscorlib6System10Reflection10MonoMethod29get_IsGenericMethodDefinitionEP22Il2CppReflectionMethod
Rkj:__ZN6il2cpp2vm6Thread21AllocThreadStaticDataEi
gmi:__ZL63AnalyticsSessionState_t681173134_CustomAttributesCacheGeneratorP21CustomAttributesCache
AAf:_NumberFormatInfo_get_PercentNegativePattern_m1304634118
HYd:_Default_SelectMethod_m469311730
Jtg:_Input_get_mousePosition_m1616496925
hxj:__ZN30dense_hashtable_const_iteratorINSt3__24pairIK10KeyWrapperIPK19Il2CppGenericMethodEP10MethodInfoEES6_N6il2cpp8metadata23Il2CppGenericMethodHashEN14dense_hash_mapIS6_S9_SD_NS6_14EqualsComparerINSC_26Il2CppGenericMethodCompareEEENS0_9allocatorISA_EEE9SelectKeyESH_SJ_EppEv
Gkg:_UInt32_ToString_m2066897296_AdjustorThunk
fD:__Z13RegisterClassI13AudioListenerEvv
aYe:__ZN21InterfaceFuncInvoker3IP30RaycastHit2DU5BU5D_t428665156015Ray_t3785851493fiE6InvokeEjP11Il2CppClassP12Il2CppObjectS2_fi
HBd:_Enumerator_Reset_m4274366540
Kgc:__Z18Transfer_BlittableI9JSONWriteLb0E8Vector3fEvRK29SerializationCommandArgumentsR31RuntimeSerializationCommandInfo
u0:__ZN13RuntimeStaticI17UniqueIDGeneratorLb0EE13StaticDestroyEPv
Uf:_emscripten_glUniform4i
QGc:_otv_FeatureList_validate
ef:_emscripten_glUniform4f
OWb:__Z13GrayscaleRampP9Texture2DPhiiii
gAj:_GC_default_oom_fn
YFc:_otv_validate
ePb:__ZN13sorted_vectorINSt3__24pairIN4core12basic_stringIcNS2_20StringStorageDefaultIcEEEES6_EEN10vector_mapIS6_S6_27compare_tstring_insensitiveIS6_E13stl_allocatorIS7_L18MemLabelIdentifier38ELi16EEE13value_compareESD_E9erase_oneIS6_EEjRKT_
TZf:_DefaultComparer__ctor_m963958896_gshared
TFf:_X509Certificate_Equals_m3784196370
Ogh:_List_1__ctor_m3376067838_gshared
FA:__ZN20SoundChannelInstance19setReverbPropertiesEP29FMOD_REVERB_CHANNELPROPERTIES
Q6f:_Enumerator_MoveNext_m1446151600_gshared
HDf:_SHA1Internal_ProcessFinalBlock_m1403775421
tli:__ZL87Canvas_t3310196443_CustomAttributesCacheGenerator_Canvas_get_sortingLayerID_m3685979122P21CustomAttributesCache
y5h:__ZL69Math_t1671470975_CustomAttributesCacheGenerator_Math_Sqrt_m1297338011P21CustomAttributesCache
hac:__Z40Register_UnityEngine_Transform_IsChildOfv
Nie:_RemotingServices_GetOrCreateClientIdentity_m648299611
Fxe:_InternalEnumerator_1_get_Current_m2356858238_AdjustorThunk
n5b:__Z45Register_UnityEngine_Display_GetSystemExtImplv
UOe:_RSAManaged_ImportParameters_m1844641996
cXh:__ZL67AssemblyProductAttribute_t1000945320_CustomAttributesCacheGeneratorP21CustomAttributesCache
Fxa:__ZN9GfxDevice31DrawIndexedNullGeometryIndirectE16GfxPrimitiveTypeP9GfxBuffer15ComputeBufferIDj
dAe:_Enumerator_System_Collections_IDictionaryEnumerator_get_Value_m3325938730_AdjustorThunk
gKh:_Array_qsort_TisOrderBlock_t1585977831_TisOrderBlock_t1585977831_m1675918557_gshared
UGe:_ValueCollection_System_Collections_ICollection_get_SyncRoot_m1114275063_gshared
_Xi:__ZL17log2withScale_128yyi
FBf:_Guid_Equals_m1866984197
YSc:__ZNSt3__218__insertion_sort_3IRNS_6__lessIN2UI14DepthSortEntryES3_EEPS3_EEvT0_S7_T_
nBe:_Enumerator__ctor_m65667165_gshared
sXd:_PlatformNotSupportedException__ctor_m1787918017
K1:__ZN13RuntimeStaticI15DirectorManagerLb0EE16StaticInitializeEPv
$uh:_ReadOnlyCollection_1_System_Collections_ICollection_CopyTo_m2643246984_gshared
A1a:__ZN11TimeManager6UpdateEv
G7f:_Enumerator_System_Collections_IEnumerator_get_Current_m209407522_gshared
lid:_StreamingContext_GetHashCode_m2281950854_AdjustorThunk
Hne:_InternalEnumerator_1__ctor_m619554185_AdjustorThunk
S8c:_CanvasScaler_get_fallbackScreenDPI_m2811935689
dje:_WellKnownServiceTypeEntry_get_ObjectUri_m560402900
opf:_DateTimeFormatInfo_ReadOnly_m890935083
Twh:_ReadOnlyCollection_1_System_Collections_ICollection_get_SyncRoot_m1280260618_gshared
nzj:__ZN6il2cpp2vm3CCW9CreateCCWEP12Il2CppObject
uvj:__ZN6il2cpp2vm6Method17IsGenericInstanceEPK10MethodInfo
IJj:_fflush
JT:__ZN17LightProbeContext4InitERK16LightmapSettingsRK14RenderSettings
CLg:__Z82RuntimeInvoker_Int32_t2950945753_RuntimeObject_Int32_t2950945753_SByte_t1669577662PFvvEPK10MethodInfoPvPS4_
wIb:__ZN18DeferredRenderLoop14RenderLightingER21ActiveLightingContextP13RenderTexture9TextureIDPS3_iRK8Vector4fRK14LightingLayersR10MinMaxAABBb12ObjectHandleI17RenderSurface_TagP17RenderSurfaceBaseE
PBg:_SceneManager_Internal_ActiveSceneChanged_m3676176255
QHj:__GLOBAL__sub_I_Error_cpp
LEi:_ExpressionAssertion_set_Negate_m1236561973
Nvf:_Double_System_IConvertible_ToInt16_m3591921965
hYa:__ZN9Texture3DD2Ev
Oph:_Collection_1_set_Item_m4280581817_gshared
ggd:_Image_get_fillMethod_m1027254375
hsi:__ZL60Slider_t3903728902_CustomAttributesCacheGenerator_m_MaxValueP21CustomAttributesCache
nX:__ZN10ColorRGBAf8TransferI19StreamedBinaryWriteILb0EEEEvRT_
e2h:__ZL97CompressedStack_t1202932761_CustomAttributesCacheGenerator_CompressedStack_CreateCopy_m2591279216P21CustomAttributesCache
SEd:_Convert_ToChar_m2796006345
MIh:_Array_InternalArray__Insert_TisContentType_t1787303396_m3566390691_gshared
Gtj:__ZNSt3__26vectorI20Il2CppStackFrameInfoNS_9allocatorIS1_EEE7reserveEj
h_h:__ZL82MethodDictionary_t207894204_CustomAttributesCacheGenerator_U3CU3Ef__switchU24map21P21CustomAttributesCache
Uyd:_ArrayListWrapper_GetEnumerator_m2336495952
OKb:__Z34ProcessIndexListIsNodeVisibleStep2RK22SceneCullingParametersPK9SceneNodePK4AABBR9IndexList
Ytb:__ZN10MonoScriptD2Ev
Hna:__ZN6prcoreL12RemapGenericI17TexFormatARGB888817TexFormatBGRA8888EEvPKNS_9InnerInfoE
qva:__ZN19ConstantBuffersGLES8UpdateCBE5CbKeyPKvj
y8c:_U3COnFinishSubmitU3Ec__Iterator0_System_Collections_Generic_IEnumeratorU3CobjectU3E_get_Current_m2586882303
fRi:_AudioSource_get_spatializeInternal_m2117549793
F6b:__Z39Input_CUSTOM_INTERNAL_get_mousePositionP8Vector3f
$gd:_SerializationCallbacks_GetMethodsByAttribute_m2095490433
DIc:_tt_cmap13_char_next
umi:__ZL117EventSystem_t1003666588_CustomAttributesCacheGenerator_EventSystem_t1003666588____lastSelectedGameObject_PropertyInfoP21CustomAttributesCache
$ba:__ZN9ShaderLab4Pass16SetupPassOptionsEv
tgh:_List_1_GetIndex_m1042356532_gshared
ih:_JS_Sound_ReleaseInstance
Zda:__ZN13GfxDeviceGLES19DrawBuffersIndirectEP9GfxBufferPK18VertexStreamSourceiP17VertexDeclaration17ShaderChannelMask16GfxPrimitiveType15ComputeBufferIDj
rBf:_Guid_CheckArray_m921056615
Cce:_ConfigHandler_ReadLifetine_m208994800
ZZc:__ZN20UnityConnectSettings16CheckConsistencyEv
Daj:__ZNK15dense_hashtableINSt3__24pairIK10KeyWrapperINS1_IPK10MethodInfoP11Il2CppClassEEEjEES9_17ReflectionMapHashIS8_EN14dense_hash_mapIS9_jSD_NS9_14EqualsComparerINS0_8equal_toIS8_EEEENS0_9allocatorISB_EEE9SelectKeyESI_SK_E12test_deletedEj
Vig:_UInt16_System_IConvertible_ToByte_m3185614807_AdjustorThunk
lnf:_SecurityParameters_set_ServerWriteMAC_m3003817350
Yqb:__Z29Transfer_Blittable_ArrayFieldI18StreamedBinaryReadILb0EEaEvRT_R9ArrayInfoRK23StaticTransferFieldInfo
pzg:_Rect_get_max_m350137314_AdjustorThunk
Im:FUNCTION_TABLE_diddi
clj:__ZN6il2cpp6icalls8mscorlib6System5Array8FastCopyEP11Il2CppArrayiS5_ii
pDh:_CachedInvokableCall_1_Invoke_m2909479018_gshared
f8b:__Z26Material_CUSTOM_SetIntImplP12Il2CppObjectii
j6i:__ZNSt3__26vectorIPK10MethodInfoNS_9allocatorIS3_EEE21__push_back_slow_pathIRKS3_EEvOT_
F0g:__Z54RuntimeInvoker_Boolean_t97287965_LabelFixup_t858502054PFvvEPK10MethodInfoPvPS4_
JYb:__ZN8GUILayerD2Ev
ueh:_List_1_Clear_m2244610185_gshared
t6b:__Z42Register_UnityEngine_RectOffset_get_bottomv
wVh:__ZL55BinaryReader_t2428077293_CustomAttributesCacheGeneratorP21CustomAttributesCache
lJj:_newlocale
$Wd:_ObjectDisposedException_get_Message_m1666887471
cgb:__ZN9BoundsInt8TransferI14SafeBinaryReadEEvRT_
ySj:_emscripten_glUniform1f__wrapper
qNj:dynCall_di
sod:_X509Certificate_get_SubjectName_m3160893681
Mrg:_BaseInvokableCall_AllowInvoke_m878393606
rgc:__Z28RegisterModule_JSONSerializev
pij:_il2cpp_monitor_enter
z8a:__ZN2UI13RectTransform8TransferI14SafeBinaryReadEEvRT_
Dhc:__Z35Transfer_Blittable_FixedBufferFieldI9JSONWriteaEvRK29SerializationCommandArgumentsR31RuntimeSerializationCommandInfo
Rng:_Behaviour_get_enabled_m753527255
N0b:__Z20IsHumanControllingUsv
eGe:_Enumerator_MoveNext_m181298207_gshared
a5g:__Z44RuntimeInvoker_ParameterModifier_t1461694466PFvvEPK10MethodInfoPvPS4_
IK:__ZNK20DynamicHeapAllocatorI17LowLevelAllocatorE10GetPtrSizeEPKv
ahh:_List_1_System_Collections_IList_get_IsReadOnly_m3278465421_gshared
qVh:__ZL51TextInfo_t3810425522_CustomAttributesCacheGeneratorP21CustomAttributesCache
FAa:__ZN10systeminfo21GetPersistentDataPathEv
WJi:_SymmetricTransform_get_KeepLastBlock_m2492071306
Mda:__ZN13GfxDeviceGLES17DestroyGpuProgramEPK10GpuProgram
MJh:_Array_InternalArray__set_Item_TisRaycastResult_t3360306849_m730888808_gshared
ycb:__Z44InitializeTransferFunctionScriptingTraitsForI18StreamedBinaryReadILb0EEEvR31TransferFunctionScriptingTraits
HFe:_Enumerator_System_Collections_IEnumerator_Reset_m53411943_gshared
SGb:__ZNSt3__218__insertion_sort_3IR23CompareReflectionProbesP31RuntimeReflectionProbeBlendInfoEEvT0_S5_T_
fib:__ZN12NativeBufferI27Converter_SimpleNativeClassI8GradientEE15SetupForWritingER9ArrayInfo
gLe:_Kernel_RightShift_m2207393597
s4:__ZNSt3__213__stable_sortIRNS_4lessIN4core12basic_stringIcNS2_20StringStorageDefaultIcEEEEEENS_11__wrap_iterIPS6_EEEEvT0_SC_T_NS_15iterator_traitsISC_E15difference_typeEPNSF_10value_typeEi
kui:__ZL48Shadow_t773074319_CustomAttributesCacheGeneratorP21CustomAttributesCache
kY:__ZN12_GLOBAL__N_113StaticDestroyEPv
jXj:_glUnmapBuffer__wrapper
oEe:_Transform_1__ctor_m3369371265_gshared
jlc:__ZN8JSONRead21TransferSTLStyleArrayINSt3__26vectorI8Gradient13stl_allocatorIS3_L18MemLabelIdentifier1ELi16EEEEEEvRT_17TransferMetaFlags
X1a:__ZNSt3__218__insertion_sort_3IRNS_6__lessINS_4pairIPKN5Unity4TypeE7Hash128EES8_EEPS8_EEvT0_SC_T_
uRe:_InputField_set_onValueChanged_m3658917578
Pjb:__ZN10RectOffset8TransferI24GenerateTypeTreeTransferEEvRT_
_vi:_TlsClientSettings_get_ClientCertificate_m3139459118
DMd:_BinaryReader__ctor_m2266204403
QMe:__ZN21InterfaceFuncInvoker5IiP22ByteU5BU5D_t4116647657iiS1_iE6InvokeEjP11Il2CppClassP12Il2CppObjectS1_iiS1_i
fzc:__ZNK10Collider2D15GetAttachedBodyEv
x5f:_Enumerator_VerifyState_m3047769867_AdjustorThunk
$ib:__Z18Transfer_BlittableI24GenerateTypeTreeTransferLb1E5RectTIiEEvRK29SerializationCommandArgumentsR31RuntimeSerializationCommandInfo
edc:__ZN16GUIKeyboardStateD2Ev
ISc:__ZN2UI13CanvasManager19RemoveDirtyRendererEPNS_6CanvasEPNS_14CanvasRendererE
nIj:_isspace
kje:_BinaryFormatter__ctor_m2620705134
yvb:__Z15GetIApplicationv
lYc:__ZN11UnityEngine15PlatformWrapper25GetGraphicsRendererStringEv
$cg:_UTF7Encoding_InternalGetBytes_m797138468
pJ:__ZN11UnityEngine15CloudWebService17WebFileDownloaderINS0_20WebRequestRestClientENS0_23WebRequestRestHeaderMapEED2Ev
Tb:invoke_vi
hpd:_SmallXmlParser_HandleWhitespaces_m549588711
Sic:__ZN9JSONWrite8TransferI13dynamic_arrayI9BoundsIntLj4EEEEvRT_PKc17TransferMetaFlags
Rb:invoke_vd
rb:invoke_vf
UAi:_Regex_get_RightToLeft_m2317867572
sT:__ZNK10GameObject8IsActiveEv
U4b:__Z34Component_Get_Custom_PropTransformP12Il2CppObject
vli:__ZL83Canvas_t3310196443_CustomAttributesCacheGenerator_Canvas_get_rootCanvas_m3165691493P21CustomAttributesCache
$ki:__ZL67g_UnityEngine_PhysicsModule_Assembly_CustomAttributesCacheGeneratorP21CustomAttributesCache
Syi:_X509Certificate_get_SignatureAlgorithm_m122054440
Sqa:__ZN18GfxFramebufferGLES23SetupDefaultFramebufferEPP17RenderSurfaceBaseS2_N2gl6HandleILNS3_10ObjectTypeE9EEE
nuh:_ReadOnlyCollection_1_get_Item_m3437922467_gshared
Jbd:_DefaultControls_CreateDropdown_m3286664171
cWa:__ZN13ScreenManager18RequestOrientationE17ScreenOrientation
MZi:__ZN6il2cpp2vm5Class12SetupMethodsEP11Il2CppClass
p2b:__Z39DeleteLastPathNameComponentWithAnySlashRKN4core12basic_stringIcNS_20StringStorageDefaultIcEEEE
pcc:__ZN10GUIManager14InitGUIManagerEv
ATg:__Z77RuntimeInvoker_Void_t1185182177_RegexOptionsU26_t1638284957_SByte_t1669577662PFvvEPK10MethodInfoPvPS4_
yti:__ZL78LayoutRebuilder_t541313304_CustomAttributesCacheGenerator_U3CU3Ef__amU24cache1P21CustomAttributesCache
P6i:__ZNSt3__26vectorIP11Il2CppClassNS_9allocatorIS2_EEE26__swap_out_circular_bufferERNS_14__split_bufferIS2_RS4_EE
vjg:_UInt16_Equals_m642257745
urd:_Array_System_Collections_IList_IndexOf_m3301661616
eYd:_AssemblyFileVersionAttribute__ctor_m3720707642
t9d:_RuntimeResourceSet_CloneDisposableObjectIfPossible_m2725520898
dmd:_HMACSHA384_set_ProduceLegacyHmacValues_m76936446
yec:__Z37Register_UnityEngine_GUIStyle_Cleanupv
Oa:invoke_iiifii
d0e:_SliderEvent__ctor_m3149452941
v9b:__Z39Register_UnityEngine_Time_set_timeScalev
A7c:_UIBehaviour_OnDestroy_m1613239498
MYb:__ZN8GUILayer12AddToManagerEv
red:_Graphic_OnDisable_m1097930217
C6i:__ZN6il2cpp6icalls8mscorlib6System8MonoType13IsPointerImplEP20Il2CppReflectionType
Vi:_emscripten_glFramebufferRenderbuffer
BJb:__ZN19CullingGroupManager17CullAndSendEventsERK22SceneCullingParametersiRK13CullingOutputRK8JobFence
tbe:__ZN21InterfaceFuncInvoker3IP12Il2CppObjectP8String_tS1_PS3_E6InvokeEjP11Il2CppClassS1_S3_S1_S4_
XVi:_AnimationLayerMixerPlayable_GetHandle_m3854437798_AdjustorThunk
c9g:_List_1_ToArray_m2949058867_gshared
Cci:__ZL98DataUtility_t2196215967_CustomAttributesCacheGenerator_DataUtility_Internal_GetMinSize_m2628270685P21CustomAttributesCache
oFa:__ZN9Transform30EnsureTransformHierarchyExistsEv
thg:_Type_FilterName_impl_m2651733559
isd:_Array_GetValue_m116098292
MXf:_Dictionary_2_System_Collections_Generic_ICollectionU3CSystem_Collections_Generic_KeyValuePairU3CTKeyU2CTValueU3EU3E_Add_m1448015620_gshared
P3b:__Z46Register_UnityEngine_Application_get_isPlayingv
Krh:_Collection_1_ClearItems_m2182923889_gshared
UOb:__ZNSt3__26vectorINS_4pairIN4core12basic_stringIcNS2_20StringStorageDefaultIcEEEEPK17MessageIdentifierEENS_9allocatorISA_EEE12__move_rangeEPSA_SE_SE_
aDb:__ZN14qsort_internal17MedianOfThreeSwapIP17RODataReplacement19ROSorterReplacementEEvT_S4_S4_T0_
TJf:_String_Split_m3646115398
pAg:_RectOffset_ToString_m2007443979
CYi:__ZNK15dense_hashtableINSt3__24pairIK10KeyWrapperIPK22Il2CppGenericParameterEP11Il2CppClassEES6_N6il2cpp5utils11PointerHashIS4_EEN14dense_hash_mapIS6_S9_SE_NS6_14EqualsComparerINS0_8equal_toIS5_EEEENS0_9allocatorISA_EEE9SelectKeyESJ_SL_E3endEv
l2b:__ZN17TransformInternal36OnScaleChangedCalculateTransformTypeE15TransformAccess
rBa:__ZN17ArchiveFileSystem10ToAbsoluteEPKc
IIi:_GUILayoutGroup_CalcHeight_m1669391299
_Yc:__ZN19UnityConnectService15GetPlayerUserIdEv
rSf:_Array_InternalArray__IndexOf_TisSByte_t1669577662_m4156538463_gshared
ZLi:__ZL24UnresolvedVirtualCall_18P12Il2CppObjectiPK10MethodInfo
G$b:__ZL12SetPrefValueRKN4core12basic_stringIcNS_20StringStorageDefaultIcEEEERK9PrefValue
gji:__ZL81GUIStyle_t3956901511_CustomAttributesCacheGenerator_GUIStyle_get_name_m2109418832P21CustomAttributesCache
i6:__ZL30ReconstructParamNamesFromTableIN9ShaderLab20SerializedSubProgram15MatrixParameterEEvRK14dense_hash_mapIiN4core17string_with_labelILi1EEE18SInt32HashFunctionNSt3__28equal_toIiEE13stl_allocatorINS8_4pairIKiS6_EEL18MemLabelIdentifier1ELi16EEERNS8_6vectorIT_NS8_9allocatorISL_EEEE
LYa:__ZN19ShaderPropertySheet20ReservePropertyCountEj
Ixj:__ZN6il2cpp5utils11StringUtils6PrintfEPKcz
Ljj:__ZNSt3__26vectorIN6il2cpp8metadata18GenericArrayMethodENS_9allocatorIS3_EEE7reserveEj
Faa:__ZN15NameToObjectMapI6ShaderNSt3__23mapI4PPtrIS0_EN4core12basic_stringIcNS5_20StringStorageDefaultIcEEEENS1_4lessIS4_EENS1_9allocatorINS1_4pairIKS4_S9_EEEEEENS1_8multimapIS9_S4_NSA_IS9_EENSC_INSD_IKS9_S4_EEEEEEE4FindERSK_
QRa:__ZN24GenerateTypeTreeTransfer21TransferResourceImageE19ActiveResourceImagePKcR13StreamingInfoPvjiPKN5Unity4TypeE
PLh:_Array_Sort_TisVector3_t3722313464_m1030213405_gshared
ltj:__ZN6il2cpp2vm6Object5CloneEP12Il2CppObject
qhi:__ZL94TextGenerator_t3211863866_CustomAttributesCacheGenerator_TextGenerator_Dispose_cpp_m1826354328P21CustomAttributesCache
HFj:__ZN6il2cpp6icalls8mscorlib6System9Threading5Mutex20CreateMutex_internalEbP12Il2CppStringPb
FWj:_emscripten_glLinkProgram__wrapper
cqg:_Coroutine_Finalize_m1957108547
IJi:_KeyBuilder_Key_m2503211157
RLa:__ZNSt3__212__deque_baseI18ReflectionProbeJobNS_9allocatorIS1_EEED2Ev
o6:__ZN15dense_hashtableINSt3__24pairIKiN4core17string_with_labelILi1EEEEEi18SInt32HashFunctionN14dense_hash_mapIiS5_S7_NS0_8equal_toIiEE13stl_allocatorIS6_L18MemLabelIdentifier1ELi16EEE9SelectKeyESA_SD_E13set_empty_keyERKS6_
Tpg:_Component_GetComponentInChildren_m388868270
l3f:_GenericEqualityComparer_1_Equals_m1705889345_gshared
hlc:__Z13TransferFieldI8JSONReadLb0E27Converter_SimpleNativeClassI10RectOffsetEEvRK23StaticTransferFieldInfoR31RuntimeSerializationCommandInfoRT1_
hfd:__ZN21InterfaceFuncInvoker0IiE6InvokeEjP11Il2CppClassP12Il2CppObject
Y3e:_FtpWebRequest__cctor_m699542155
aMi:__ZL24UnresolvedVirtualCall_21P12Il2CppObjectS0_iPK10MethodInfo
Nqj:__GLOBAL__sub_I_GenericMetadata_cpp
IRh:__ZL70RuntimeArray_CustomAttributesCacheGenerator_Array_SetValue_m3412648248P21CustomAttributesCache
X2e:_NameObjectCollectionBase_GetEnumerator_m3677320185
pKb:__Z24CalculateSpotLightBoundsffRK10Matrix4x4fR15SpotLightBounds
hIh:_ListPool_1_Get_m3176656818_gshared
CWf:_Dictionary_2_TryGetValue_m3495031886_gshared
tNa:__ZNK13RenderTexture21GetShadowSamplingModeEv
CF:__ZN23CloudWebServicesManager23VirtualRedirectTransferER14SafeBinaryRead
jQe:_PKCS12_AddCertificate_m3857004455
ZXe:_GetRayIntersectionAllCallback__ctor_m391992746
Etb:__Z19ShouldTransferFieldR32SerializationCommandQueueBuilder17ScriptingClassPtriR18TransferField_InfoRK20CoreScriptingClasses
j0h:__ZL67RSACryptoServiceProvider_t2683512874_CustomAttributesCacheGeneratorP21CustomAttributesCache
k6g:__Z56RuntimeInvoker_Int32_t2950945753_SpriteState_t1362986479PFvvEPK10MethodInfoPvPS4_
jHf:_SecurityElement_IsValidText_m1346599242
$Rb:__Z33PPtrToObjectDontLoadNoThreadCheckI8MaterialEPT_4PPtrIS1_E
Qva:__ZN26SinglePassStereoSupportExt21SetStereoMatrixCommonE21MonoOrStereoscopicEye24BuiltinShaderMatrixParamRK10Matrix4x4f
Uef:_ARC4Managed_TransformBlock_m1687647868
TBc:__ZL21InitializeCachedStripPv
UWf:_Dictionary_2_System_Collections_Generic_ICollectionU3CSystem_Collections_Generic_KeyValuePairU3CTKeyU2CTValueU3EU3E_Add_m3652125112_gshared
z2h:__ZL80Thread_t2300836069_CustomAttributesCacheGenerator_Thread_GetHashCode_m3479107071P21CustomAttributesCache
Zlj:__ZN6il2cpp6icalls8mscorlib6System9Threading6Thread23GetCachedCurrentCultureEP12Il2CppThread
kM:__ZNK6Camera22GetWorldToCameraMatrixEv
BMj:runPostSets
Btj:__ZN6il2cpp2vm12GenericClass11IsValueTypeEP18Il2CppGenericClass
zsb:__ZN13MonoBehaviour7SetNameEPKc
Tge:_MethodDictionary_IsOverridenKey_m946843558
Eqc:__ZN25b2PolygonAndCircleContact7DestroyEP9b2ContactP16b2BlockAllocator
SOd:_FileStream_BeginRead_m2419864669
vHh:_U3CStartU3Ec__Iterator0_MoveNext_m4270440387_gshared
u1i:__ZN10KeyWrapperIN6il2cpp5utils13dynamic_arrayIPK10Il2CppTypeLj4EEEEC2ERKS7_
txb:__ZN17InstancingBatcher22FindCBUpperBoundKonstsEv
YX:__GLOBAL__sub_I_runtime_shaders_shaderimpl_0_cpp
t5a:__ZN18AwakeFromLoadQueue5ClearEv
oPd:_FileStream_SetLength_m99749826
SIb:__ZNSt3__27__sort5IR15ReflProbeSorterPP15ReflectionProbeEEjT0_S6_S6_S6_S6_T_
x2:__ZN8Playable10DisconnectEPS_i
zk:_glGenTransformFeedbacks
gAa:__ZN13LoadOperationD2Ev
uli:__ZL86Canvas_t3310196443_CustomAttributesCacheGenerator_Canvas_set_sortingLayerID_m861680532P21CustomAttributesCache
_7f:_List_1_System_Collections_ICollection_get_SyncRoot_m1990178029_gshared
aId:_Int16_System_IConvertible_ToType_m3672347013
$We:_Navigation_set_mode_m3709908198_AdjustorThunk
kig:_Type_GetProperty_m4206634422
Qpd:_AttrListImpl_GetValue_m3657391095
pwb:__Z21PlayerStartFirstSceneb
uhh:_List_1_CheckIndex_m3933537097_gshared
EQa:__ZNSt3__27__sort5IRPFbRKNS_4pairIN9ShaderLab16FastPropertyNameEN18UnityPropertySheet11UnityTexEnvEEES8_EPS6_EEjT0_SD_SD_SD_SD_T_
dja:__ZNK7ApiGLES18GetExtensionStringEv
Vgh:_List_1_System_Collections_IList_IndexOf_m2444653486_gshared
lUg:__Z50RuntimeInvoker_SecurityCompressionType_t4242483129PFvvEPK10MethodInfoPvPS4_
zSj:_emscripten_glVertexAttrib1f__wrapper
UZf:_DefaultComparer_GetHashCode_m402448534_gshared
B9a:__ZNK12HandlerChain4SizeERK13FileEntryData
gp:FUNCTION_TABLE_iiiiiiiii
MBe:_Enumerator_Dispose_m1360775770_AdjustorThunk
Tjh:_Collection_1_ClearItems_m1096166028_gshared
yvh:_ReadOnlyCollection_1_System_Collections_Generic_ICollectionU3CTU3E_Remove_m4177779688_gshared
onc:__Z22GetPhysicsGroundBody2Dv
ixd:_Char_IsLetter_m3996985877
kih:_Queue_1_Peek_m2302800625_gshared
dRh:__ZL51Delegate_t1188392813_CustomAttributesCacheGeneratorP21CustomAttributesCache
i6h:__ZL56WeakReference_t1334886716_CustomAttributesCacheGeneratorP21CustomAttributesCache
G8g:_List_1_AddCollection_m4263017124_gshared
FAj:_GC_allochblk
lee:__ZN21InterfaceFuncInvoker1IbP19Context_t3285446944E6InvokeEjP11Il2CppClassP12Il2CppObjectS1_
E5a:__Z15UnloadGameScenev
aVf:_Array_InternalArray__ICollection_CopyTo_TisKeyframe_t4206410242_m2132255743_gshared
eXj:_glCheckFramebufferStatus__wrapper
Zfd:_Image__ctor_m2551076292
NHe:_Dictionary_2_System_Collections_ICollection_CopyTo_m3143696177_gshared
Hdj:__ZN15dense_hashtableINSt3__24pairIK10KeyWrapperIPK14Il2CppAssemblyEPK22Il2CppMonoAssemblyNameEES6_N6il2cpp5utils11PointerHashIS4_EEN14dense_hash_mapIS6_SA_SF_NS6_14EqualsComparerINS0_8equal_toIS5_EEEENS0_9allocatorISB_EEE9SelectKeyESK_SM_E5clearEv
SKg:__Z103RuntimeInvoker_Void_t1185182177_Int32_t2950945753_Int32_t2950945753_Int32_t2950945753_SByte_t1669577662PFvvEPK10MethodInfoPvPS4_
Ks:__ZN16MecanimAnimationD0Ev
JMi:__ZL24UnresolvedVirtualCall_56P12Il2CppObjectS0_iiS0_S0_PK10MethodInfo
Kac:__Z36Renderer_Get_Custom_PropSortingOrderP12Il2CppObject
W9i:__ZNK15dense_hashtableINSt3__24pairIK10KeyWrapperIPK10Il2CppTypeEjEES6_N6il2cpp8metadata14Il2CppTypeHashEN14dense_hash_mapIS6_jSB_NS6_14EqualsComparerINSA_26Il2CppTypeEqualityComparerEEENS0_9allocatorIS8_EEE9SelectKeyESF_SH_E13find_positionERS7_
jNa:__ZN7Texture5ResetEv
nrc:__ZNK14b2CapsuleShape7RayCastEP15b2RayCastOutputRK14b2RayCastInputRK11b2Transformi
y0h:__ZL54SHA384Managed_t74158575_CustomAttributesCacheGeneratorP21CustomAttributesCache
Ude:_Context_get_HasDynamicSinks_m3952434387
pbg:_Latin1Encoding_GetByteCount_m1145650505
qib:__Z18Transfer_BlittableI24GenerateTypeTreeTransferLb1EhEvRK29SerializationCommandArgumentsR31RuntimeSerializationCommandInfo
Qcc:__ZN8GUIState18CycleKeyboardFocusERNSt3__26vectorIP6IDListNS0_9allocatorIS3_EEEEb
kpb:__Z13TransferFieldI18StreamedBinaryReadILb1EELb0E16Converter_StringEvRK23StaticTransferFieldInfoR31RuntimeSerializationCommandInfoRT1_
I_f:_DefaultComparer_GetHashCode_m177499767_gshared
HDe:__ZN28GenericInterfaceFuncInvoker1IbbE6InvokeEPK10MethodInfoP12Il2CppObjectb
Sfj:__ZNSt3__214__split_bufferIiRNS_9allocatorIiEEEC2EjjS3_
MNj:dynCall_iiifii
t1:__ZnwjRKSt9nothrow_t
zPd:__ZN21InterfaceFuncInvoker3IiP22ByteU5BU5D_t4116647657iiE6InvokeEjP11Il2CppClassP12Il2CppObjectS1_ii
Pqd:_ApplicationException__ctor_m2557611022
xPa:__ZN14SafeBinaryRead19TransferSTLStyleMapINSt3__23mapI39DeprecatedFastPropertyNameSerializationN18UnityPropertySheet11UnityTexEnvENS1_4lessIS3_EENS1_9allocatorINS1_4pairIKS3_S5_EEEEEEEEvRT_17TransferMetaFlags
yeh:_List_1_CheckMatch_m579516778_gshared
Cwc:__ZNSt3__27__sort4IRPFbPN10ClipperLib13IntersectNodeES3_EPS3_EEjT0_S8_S8_S8_T_
gvd:_Buffer_ByteLengthInternal_m1388208719
gni:__ZL92PointerEventData_t3807901092_CustomAttributesCacheGenerator_U3CworldNormalU3Ek__BackingFieldP21CustomAttributesCache
BUf:_Array_InternalArray__ICollection_CopyTo_TisInt64_t3736567304_m2845057751_gshared
D3b:__Z35UnregisterSerializationCacheBuilderPFv17ScriptingClassPtrR23CachedSerializationDataRbE
tQh:__ZL52ICloneable_t724424198_CustomAttributesCacheGeneratorP21CustomAttributesCache
sLd:_Int64_System_IConvertible_ToUInt32_m109903525_AdjustorThunk
aU:__Z30GetBuiltinVectorParamArraySize24BuiltinShaderVectorParam
gVf:_Array_InternalArray__ICollection_CopyTo_TisUICharInfo_t75501106_m4268526610_gshared
a9i:__ZNSt3__218uninitialized_copyIPNS_4pairIK10KeyWrapperINS1_IPK14Il2CppAssemblyP11Il2CppClassEEEjEESC_EET0_T_SE_SD_
cNa:__ZN13RenderTextureC2E10MemLabelId18ObjectCreationMode
qId:_Int32_GetFormatException_m519586683
H1h:__ZL46StringBuilder_t_CustomAttributesCacheGeneratorP21CustomAttributesCache
$4f:_Enumerator_MoveNext_m1131351993_gshared
vXd:_RankException__ctor_m2226473861
HOh:_Array_InternalArray__get_Item_TisVector2_t2156229523_m2502961026_gshared
zW:__ZN21RendererUpdateManager11AddRendererER8Renderer
dUb:__Z13RegisterClassI15ResourceManagerEvv
URi:_AudioConfigurationChangeHandler_Invoke_m1233557945
hdb:__Z35Transfer_Blittable_FixedBufferFieldI14SafeBinaryReadsEvRK29SerializationCommandArgumentsR31RuntimeSerializationCommandInfo
NZa:__ZN14SafeBinaryRead21TransferSTLStyleArrayI13dynamic_arrayIfLj4EEEEvRT_17TransferMetaFlags
WEd:_Convert_ToDateTime_m3802186295
Jxj:__ZN6il2cpp5utils11StringUtils11Utf16ToUtf8EPKDs
c4a:__ZN18StreamedBinaryReadILb0EE21TransferSTLStyleArrayINSt3__26vectorIN15ResourceManager10DependencyE13stl_allocatorIS5_L18MemLabelIdentifier52ELi16EEEEEEvRT_17TransferMetaFlags
olg:_UInt64_CompareTo_m1614517204_AdjustorThunk
CYc:__ZN11UnityEngine15PlatformWrapper20IsRootedOrJailbrokenEv
Zzb:__ZZ23InitPlayerLoopCallbacksvEN52PreLateUpdateScriptRunBehaviourLateUpdateRegistrator7ForwardEv
kKb:__Z33IntersectAABBPlaneBoundsOptimizedRK4AABBPKN4math7_float4Ei
Ywi:_AuthorityKeyIdentifierExtension__ctor_m373495498
rNb:__ZN19ScriptingInvocation6InvokeI28ScriptingSystemTypeObjectPtrEET_P21ScriptingExceptionPtrb
bea:__ZN9GfxDevice19EndGeometryJobFrameEv
EHi:_GUILayoutUtility_Layout_m1159951704
xQe:_InputField_get_shouldActivateOnSelect_m3055465770
r_f:_DefaultComparer_Equals_m2269092119_gshared
kib:__ZN27Converter_SimpleNativeClassI17AnimationCurveTplIfEE17ScriptingToNativeER18ScriptingObjectPtrPS1_
shg:_Type__cctor_m2371893800
sGj:__ZN6il2cpp8metadata24Il2CppGenericInstCompare7CompareERK10KeyWrapperIPK17Il2CppGenericInstES8_
X$i:__ZNK15dense_hashtableINSt3__24pairIK10KeyWrapperIPK19Il2CppGenericMethodEPK26Il2CppGenericMethodIndicesEES6_N6il2cpp8metadata23Il2CppGenericMethodHashEN14dense_hash_mapIS6_SA_SE_NS6_14EqualsComparerINSD_26Il2CppGenericMethodCompareEEENS0_9allocatorISB_EEE9SelectKeyESI_SK_E5beginEv
$3c:_ExecuteEvents_Execute_m3049310229
Zci:__ZL84Object_t631007953_CustomAttributesCacheGenerator_Object_DestroyImmediate_m2288369078P21CustomAttributesCache
A1d:__ZN21InterfaceFuncInvoker1IiP12MemberInfo_tE6InvokeEjP11Il2CppClassP12Il2CppObjectS1_
Lrd:_Array_get_IsSynchronized_m3066873806
MRb:__ZNK17AnimationCurveTplIfE8EvaluateEfPNS0_5CacheE
bzb:__Z31ManagerContextInitializeClassesv
Hvh:_ReadOnlyCollection_1_System_Collections_IList_Contains_m2650112051_gshared
JMf:_Array_get_swapper_TisVector3_t3722313464_m1221246401_gshared
pvh:_ReadOnlyCollection_1_CopyTo_m1950082901_gshared
LJc:_ft_smooth_transform
fKc:_UNITY_FT_List_Finalize
$Fj:__ZN6il2cpp6icalls8mscorlib6System7Runtime8Remoting10Activation18ActivationServices34AllocateUninitializedClassInstanceEP20Il2CppReflectionType
dEb:__Z20LightAttenuateApproxRKfS0_
pX:__ZN9Scripting30SetCachedPtrOnScriptingWrapperE18ScriptingObjectPtrP6Object
qCd:_HashKeys_get_IsSynchronized_m174400341
XK:__ZN17LowLevelAllocator6MallocEj
C1g:__Z57RuntimeInvoker_Int32_t2950945753_KeyValuePair_2_t71524366PFvvEPK10MethodInfoPvPS4_
eGh:_UnityEvent_1__ctor_m1789019280_gshared
Dbf:_RepeatContext_get_IsMinimum_m3640286252
dpc:__ZN16b2PrismaticJoint4DumpEv
eIg:__Z64RuntimeInvoker_Boolean_t97287965_RuntimeObject_Int32_t2950945753PFvvEPK10MethodInfoPvPS4_
lqe:_InternalEnumerator_1__ctor_m4055378331_AdjustorThunk
ele:_ObjectRecord_ChainFixup_m1889316362
UIa:__ZN18BlockRangeInternal16PopLastNodeIndexEP10BlockRangeji
pzj:__ZN6il2cpp2vm13CachedCCWBaseINS0_13ManagedObjectEE6AddRefEv
ebj:__ZN6il2cpp2gc19AppendOnlyGCHashMapINSt3__24pairIPK11Il2CppImageP11Il2CppClassEEP22Il2CppReflectionModule17ReflectionMapHashIS9_ENS2_8equal_toIS9_EEE10CopyValuesEPv
o7c:_TouchInputModule_UpdateModule_m2582897964
hZa:__ZN4MeshD0Ev
D1c:__ZL42RequestRecreateEyeTexturesBeforeNextUpdatev
$Le:__ZN28GenericInterfaceFuncInvoker1IbiE6InvokeEPK10MethodInfoP12Il2CppObjecti
pVc:__Z36CanvasRenderer_CUSTOM_SetPopMaterialP12Il2CppObjectS0_i
Khc:__Z18Transfer_BlittableI9JSONWriteLb0EdEvRK29SerializationCommandArgumentsR31RuntimeSerializationCommandInfo
HGc:_otv_u_O_O_u_O_O
Aoc:__ZNK11b2GearJoint16GetReactionForceEf
dsf:_DBNull_System_IConvertible_ToSByte_m3533624679
IIj:_wctomb
_wd:_Char_CompareTo_m42489266
e3g:__Z67RuntimeInvoker_Void_t1185182177_Int32_t2950945753_Double_t594665363PFvvEPK10MethodInfoPvPS4_
A4b:__Z27Camera_CUSTOM_GetAllCamerasP11Il2CppArray
Asb:__ZNK13MonoBehaviour25GetNeedsPerObjectTypeTreeEv
tpb:__Z35Transfer_Blittable_FixedBufferFieldI18StreamedBinaryReadILb0EEiEvRK29SerializationCommandArgumentsR31RuntimeSerializationCommandInfo
$c:___cxa_rethrow
O7d:_ParameterInfo_GetCustomAttributes_m2376494592
njc:__Z18Transfer_BlittableI8JSONReadLb1EhEvRK29SerializationCommandArgumentsR31RuntimeSerializationCommandInfo
jed:_Graphic_get_canvasRenderer_m315509948
wmh:_Collection_1_System_Collections_IList_Contains_m3397768605_gshared
cXe:_Navigation_set_selectOnUp_m827629728_AdjustorThunk
zWg:__Z90RuntimeInvoker_Void_t1185182177_Int64_t3736567304_Int32_t2950945753_RuntimeObject_IntPtr_tPFvvEPK10MethodInfoPvPS4_
ntc:__ZN18Overlap2DQueryBase13ReportFixtureEP9b2Fixture
czi:_X509Certificate_GetSubjectName_m3288368674
OMh:_Dictionary_2_Do_CopyTo_TisInt32_t2950945753_TisInt32_t2950945753_m3384108308_gshared
F1b:__ZN10systeminfo23SupportsLocationServiceEv
Xzf:_CultureInfo_construct_internal_locale_from_name_m3254739477
enf:_RSASslSignatureDeformatter_VerifySignature_m1061897602
KOe:_RSAManaged_remove_KeyGenerated_m2046909903
Imd:_RandomNumberGenerator_Create_m4162970280
NVf:_Array_InternalArray__Insert_TisLabelFixup_t858502054_m171542753_gshared
Zwe:_InternalEnumerator_1_System_Collections_IEnumerator_get_Current_m3539708496_AdjustorThunk
pab:__ZN20LocalFileSystemPosix4ReadER13FileEntryDatayyPvPy
BHb:__ZNSt3__211__sift_downIRN23ForwardShaderRenderLoop18RenderObjectSorterILb0EEEP21ForwardRenderPassDataEEvT0_S7_T_NS_15iterator_traitsIS7_E15difference_typeES7_
WFf:_SecurityPermission__ctor_m1462427327
$Oj:dynCall_iiiiiiffiiiiiiiiiffffiiii
Psb:__ZN13MonoBehaviour5DoGUIENS_13GUILayoutTypeEii
Ibe:_ChannelData_get_ClientProviders_m594662942
jCi:_QuickSearch_GetChar_m1297698557
Wya:__ZNK12TLSAllocatorI14StackAllocatorE8ContainsEPKv
C1a:__ZN11TimeManager8TransferI18StreamedBinaryReadILb0EEEEvRT_
iHg:__Z68RuntimeInvoker_Boolean_t97287965_Int16_t2552820387_SByte_t1669577662PFvvEPK10MethodInfoPvPS4_
Cqf:_DateTime__ParseEnum_m253019513
_Gd:_Convert_ToUInt32_m2194577773
uZa:__ZN14BlendShapeData8TransferI14SafeBinaryReadEEvRT_
OW:__ZN15dense_hashtableINSt3__24pairIKyP17VertexDeclarationEEy14GfxGenericHashIyEN14GfxDoubleCacheIyS4_S7_NS0_8equal_toIyEEN31GfxDoubleCacheConcurrencyPolicy11LocklessGetE42GfxDoubleCacheDefaultEmptyDeletedGeneratorIyEE9SelectKeyESA_13stl_allocatorIS5_L18MemLabelIdentifier24ELi16EEE12resize_deltaEjj
$Bd:_Hashtable_Remove_m4032631466
skc:__Z18Transfer_BlittableI8JSONReadLb1EyEvRK29SerializationCommandArgumentsR31RuntimeSerializationCommandInfo
q8h:__ZL91RSASslSignatureFormatter_t2709678514_CustomAttributesCacheGenerator_U3CU3Ef__switchU24map16P21CustomAttributesCache
CRa:__ZN7Texture25ReloadFromStorageIfNeededEPvb
NRf:_Array_InternalArray__IndexOf_TisBoolean_t97287965_m1161209222_gshared
jFj:__ZN6il2cpp2os12Cryptography24OpenCryptographyProviderEv
_ki:__ZL55RaycastHit2D_t2279581989_CustomAttributesCacheGeneratorP21CustomAttributesCache
Gzd:_SynchronizedArrayListWrapper_Clear_m2191301493
hLc:_Update_Max
llj:__ZN6il2cpp6icalls8mscorlib6SystemL15ThrowNoWideningEv
XRb:__ZNK23TransformChangeDispatch24GetChangeMaskForInterestENS_12InterestTypeE
L9b:__Z45Transform_CUSTOM_INTERNAL_CALL_TransformPointP12Il2CppObjectRK8Vector3fRS1_
V0d:_GenericTypeParameterBuilder_InvokeMember_m1647304778
Wfd:_HorizontalOrVerticalLayoutGroup_set_childControlWidth_m3261460516
OPa:__ZNSt3__26__treeINS_12__value_typeI39DeprecatedFastPropertyNameSerializationfEENS_19__map_value_compareIS2_S3_NS_4lessIS2_EELb1EEENS_9allocatorIS3_EEE7destroyEPNS_11__tree_nodeIS3_PvEE
bJc:_tt_cmap4_char_index
xne:_InternalEnumerator_1__ctor_m2336656763_AdjustorThunk
Lhh:_Enumerator_System_Collections_IEnumerator_Reset_m1487823313_gshared
L9a:__ZNK12HandlerChain8IsHiddenERK13FileEntryData
A8g:_List_1_System_Collections_IList_get_IsFixedSize_m1752888098_gshared
Ahb:__ZL26Transfer_SimpleNativeClassI17RemapPPtrTransfer10RectOffsetLb0EEvRK29SerializationCommandArgumentsR31RuntimeSerializationCommandInfo
bQc:__Z14ValidateFormatR13dynamic_arrayIN20TextRenderingPrivate16TextFormatChangeELj4EE
f$e:_ScrollRect_CalculateLayoutInputVertical_m3155297482
RKd:_Int32_ToString_m2507389746_AdjustorThunk
muf:_Decimal_op_Explicit_m438967917
y_h:__ZL55IChannelInfo_t3866172133_CustomAttributesCacheGeneratorP21CustomAttributesCache
pWi:_AnimatorControllerPlayable_SetHandle_m2260644454_AdjustorThunk
lFh:__ZN30GenericInterfaceActionInvoker2IP12Il2CppObjectS1_E6InvokeEPK10MethodInfoS1_S1_S1_
zxf:_Environment_get_SocketSecurityEnabled_m190813817
TVg:__Z53RuntimeInvoker_Void_t1185182177_Vector4U26_t200349727PFvvEPK10MethodInfoPvPS4_
Lfi:__ZL57UnityEventBase_t3960448221_CustomAttributesCacheGeneratorP21CustomAttributesCache
HQd:_NullStream_Flush_m3382897993
iwc:__ZN10ClipperLib14PointInPolygonERKNS_8IntPointEPNS_5OutPtE
oRe:_InputField_set_selectionColor_m2084640295
v5g:__Z114RuntimeInvoker_Int32_t2950945753_CustomAttributeTypedArgument_t2723150157_CustomAttributeTypedArgument_t2723150157PFvvEPK10MethodInfoPvPS4_
MMh:_Dictionary_2_Do_CopyTo_TisKeyValuePair_2_t2401056908_TisKeyValuePair_2_t2401056908_m676905794_gshared
YT:__ZNK9ShaderLab20ShaderBlendStateDesc15ToGfxBlendStateEPK19ShaderPropertySheetS3_R13GfxBlendState
wce:_ConfigHandler_OnIgnorableWhitespace_m278399491
M3h:__ZL77Convert_t2465617642_CustomAttributesCacheGenerator_Convert_ToInt64_m260173354P21CustomAttributesCache
OKc:_Compute_Point_Displacement
hca:__ZN9ShaderLab9IntShaderC2Ev
lBh:_Func_3__ctor_m1375075958_gshared
J6i:__ZN6il2cpp6icalls8mscorlib6SystemL9IsPrivateEPK9EventInfo
aFj:__ZN6il2cpp6icalls8mscorlib6System10Reflection4Emit11TypeBuilder20setup_internal_classEP27Il2CppReflectionTypeBuilderS7_
m0b:__Z18TransformPoints3x4RK10Matrix4x4fPK8Vector3fjPS2_ji
_7h:__ZL72PKCS12_t4101533061_CustomAttributesCacheGenerator_U3CU3Ef__switchU24mapCP21CustomAttributesCache
kSf:_Array_InternalArray__IndexOf_TisILTokenInfo_t2325775114_m2602704009_gshared
Rbi:__ZL52Matrix4x4_t1817901843_CustomAttributesCacheGeneratorP21CustomAttributesCache
bXf:_Dictionary_2_System_Collections_IDictionary_GetEnumerator_m972834308_gshared
mch:_List_1_System_Collections_ICollection_get_IsSynchronized_m967177678_gshared
ecg:_StringBuilder_AppendFormat_m3255666490
oXd:_OverflowException__ctor_m4029085969
K3d:_TypeBuilder_GetGenericArguments_m2872156836
Mge:_MethodCall_get_Uri_m1720935531
tNi:__ZL24UnresolvedVirtualCall_94P12Il2CppObjectS0_S0_iPK10MethodInfo
mYi:__ZN13Il2CppHashMapIPK22Il2CppGenericParameterP11Il2CppClassN6il2cpp5utils11PointerHashIS1_EENSt3__28equal_toIS2_EENS9_9allocatorINS9_4pairIK10KeyWrapperIS2_ES4_EEEEEC2EjRKS8_RKSB_
ZNe:_KeyPairPersistence_Remove_m1876145547
HAa:__Z15CreateDirectoryRKN4core12basic_stringIcNS_20StringStorageDefaultIcEEEE
GMa:__Z21CalculateGlobalMatrix23TransformAccessReadOnly
L3d:_TypeBuilder_GetGenericTypeDefinition_m1632720438
YMf:_Array_InternalArray__ICollection_Contains_TisLink_t544317964_m163190451_gshared
trf:_DateTimeOffset_System_IComparable_CompareTo_m176229495_AdjustorThunk
rug:_ManagedStreamHelpers_ValidateLoadFromStream_m580138133
Cji:__ZL104GUIUtility_t1868551600_CustomAttributesCacheGenerator_GUIUtility_EndContainerGUIFromException_m530164245P21CustomAttributesCache
H1a:__ZNK13BuildSettings22GetTypeVirtualInternalEv
ydd:_FontData_get_alignByGeometry_m2805576119
A:tempBigIntD
gre:_InternalEnumerator_1__ctor_m1486034688_gshared
Emb:__Z35Transfer_Blittable_FixedBufferFieldI18StreamedBinaryReadILb1EEhEvRK29SerializationCommandArgumentsR31RuntimeSerializationCommandInfo
T2h:__ZL56AppDomainSetup_t123196401_CustomAttributesCacheGeneratorP21CustomAttributesCache
Afh:_List_1_CheckIndex_m2250397830_gshared
bUb:__Z13RegisterClassI14RenderSettingsEvv
Mxg:_PlayableOutput_GetHandle_m777137769_AdjustorThunk
rSi:_FontTextureRebuildCallback_EndInvoke_m3732346867
z:tempBigIntI
acf:_Interval_get_Empty_m3617514670
f5g:__Z31RuntimeInvoker_Mark_t3471605523PFvvEPK10MethodInfoPvPS4_
SXd:_Assembly_GetName_m981771927
v7h:__ZL53RegexOptions_t92845595_CustomAttributesCacheGeneratorP21CustomAttributesCache
Hob:__Z29Transfer_Blittable_ArrayFieldI18StreamedBinaryReadILb1EE5RectTIfEEvRT_R9ArrayInfoRK23StaticTransferFieldInfo
ztj:__ZN6il2cpp2vm12GenericClass8GetClassEP18Il2CppGenericClass
Cea:__ZNK9GfxDevice27GetActiveRenderSurfaceWidthEv
ioi:__ZL114StandaloneInputModule_t2760469101_CustomAttributesCacheGenerator_StandaloneInputModule_ForceAutoSelect_m2837047882P21CustomAttributesCache
nYc:__ZN11UnityEngine15PlatformWrapper28GetCleanGraphicsFixedVersionEv
PWe:_MaskableGraphic_RecalculateClipping_m1772937317
lTd:_UnmanagedMemoryStream_SetLength_m3752964620
gbb:__ZN16MemoryFileSystem5WriteER13FileEntryDatayyPvPy
Uui:_SslStreamBase_RaiseLocalPrivateKeySelection_m4112368540
ygj:__ZN6il2cpp2vm4Type7GetTypeEPK10Il2CppType
lnc:__ZN23ColliderTilingExtensionD0Ev
fyc:__ZN17PhysicsMaterial2D23VirtualRedirectTransferER18StreamedBinaryReadILb0EE
ASb:__ZN16SpriteRenderData28PrepareRenderingDataIfNeededEv
mPc:_open_face_PS_from_sfnt_stream
Qcg:_UTF32Encoding_GetByteCount_m3610769032
voa:__ZN6prcoreL17RemapGenericFloatI18TexFormatRGBAFloat17TexFormatRGBAHalfEEvPKNS_9InnerInfoE
H0a:__Z32TransferEnumWithNameForceIntSizeI14SafeBinaryRead14SpriteTileModeEvRT_RT0_PKc17TransferMetaFlags
BAb:__Z16FindCameraStacksRKNSt3__24listI4PPtrI6CameraENS_9allocatorIS3_EEEERNS_6vectorI11CameraStackNS4_ISA_EEEE
bBi:_MatchCollection_CopyTo_m3807326147
$Ta:__ZN10GISettings8TransferI14SafeBinaryReadEEvRT_
Bn:FUNCTION_TABLE_vifff
rsi:__ZL54Text_t1901882714_CustomAttributesCacheGenerator_m_TextP21CustomAttributesCache
xmd:_MD5CryptoServiceProvider__ctor_m3271163125
ZNb:__ZN19CustomRenderTexture12ClearGPUDataEv
tDe:__ZN28GenericInterfaceFuncInvoker2I26KeyValuePair_2_t3699644050iP12Il2CppObjectE6InvokeEPK10MethodInfoS2_iS2_
THh:_ListPool_1_Get_m2875520964_gshared
c2h:__ZL95UnicodeEncoding_t1959134050_CustomAttributesCacheGenerator_UnicodeEncoding_GetBytes_m3223155660P21CustomAttributesCache
sNa:__ZN13RenderTexture13ApplySettingsEv
nke:_ObjectReader_RegisterObject_m1853376334
w2d:_ModuleBuilderTokenGenerator_GetToken_m2588853565
sud:_Boolean_System_IConvertible_ToDecimal_m3176932461_AdjustorThunk
Ze:_JS_Sound_SetListenerPosition
tn:FUNCTION_TABLE_fiffi
oVg:__Z54RuntimeInvoker_Int32_t2950945753_LayerMask_t3493934918PFvvEPK10MethodInfoPvPS4_
N_e:_ScrollRect_OnInitializePotentialDrag_m3139711961
Xya:__ZNK12TLSAllocatorI14StackAllocatorE10GetPtrSizeEPKv
Bvh:_ReadOnlyCollection_1_System_Collections_Generic_IListU3CTU3E_set_Item_m711370667_gshared
gqj:__ZNK15dense_hashtableINSt3__24pairIK10KeyWrapperINS1_IPKcS4_EEEiEES6_24NamespaceAndNamePairHashN14dense_hash_mapIS6_iS9_NS6_14EqualsComparerI26NamespaceAndNamePairEqualsEENS0_9allocatorIS8_EEE9SelectKeyESD_SF_E10test_emptyERK24dense_hashtable_iteratorIS8_S6_S9_SH_SD_SF_E
SYd:_Default_check_arguments_with_score_m3467814020
hUj:_glGetActiveUniform__wrapper
Zpc:__ZN16PhysicsManager2D16GetProfilerStatsER14Physics2DStats
e7f:_Enumerator__ctor_m3875432026_AdjustorThunk
cxa:__ZN9GfxDevice20SetRenderSurfaceNameEP17RenderSurfaceBasePKc
A7a:__ZNK8Material16MarkDependenciesER27GarbageCollectorThreadState
k0e:_Slider_set_handleRect_m1101657556
Hrf:_DateTimeOffset_ToString_m3985341516_AdjustorThunk
Lqh:_Collection_1_System_Collections_IList_Contains_m3348135931_gshared
Nhc:__ZL17Transfer_GUIStyleI9JSONWriteLb0EEvRK29SerializationCommandArgumentsR31RuntimeSerializationCommandInfo
XEb:__Z28GetHaloVertexPositionsStereoP8Vector3fRKS_S2_f
kpa:__ZN6prcoreL27StretchGenericFloatBilinearI15TexFormatRGHalfEEvPKNS_9InnerInfoE
eQi:__ZL25UnresolvedVirtualCall_241P12Il2CppObjectiPK10MethodInfo
UX:__GLOBAL__sub_I_runtime_misc_0_cpp
QHe:_Dictionary_2_System_Collections_IDictionary_GetEnumerator_m751864982_gshared
W8a:__ZN2UI13RectTransform31UpdateTransformHierarchyIfDirtyEb
Rpb:__Z18Transfer_BlittableI18StreamedBinaryReadILb0EELb1E9BoundsIntEvRK29SerializationCommandArgumentsR31RuntimeSerializationCommandInfo
nsi:__ZL71SpriteState_t1362986479_CustomAttributesCacheGenerator_m_DisabledSpriteP21CustomAttributesCache
bOi:__ZL25UnresolvedVirtualCall_130P12Il2CppObjectiPK10MethodInfo
X6e:_PublicKey_DecodeDSA_m3490622362
Z7b:__Z49Register_UnityEngine_Resources_GetBuiltinResourcev
hig:_Type_GetMethod_m1479779718
QIc:_tt_cmap10_char_index
svi:_TlsException__ctor_m3242533711
Aef:_BitConverterLE_GetUIntBytes_m795219058
EV:__Z18GetITerrainManagerv
ZCd:_SortedList__ctor_m3676552745
QYi:__ZN15dense_hashtableINSt3__24pairIK10KeyWrapperIPK22Il2CppGenericParameterEP11Il2CppClassEES6_N6il2cpp5utils11PointerHashIS4_EEN14dense_hash_mapIS6_S9_SE_NS6_14EqualsComparerINS0_8equal_toIS5_EEEENS0_9allocatorISA_EEE9SelectKeyESJ_SL_E3endEv
Y_i:__ZNK15dense_hashtableINSt3__24pairIK10KeyWrapperIPK11Il2CppClassEPKcEES6_N6il2cpp5utils11PointerHashIS3_EEN14dense_hash_mapIS6_S9_SE_NS6_14EqualsComparerINS0_8equal_toIS5_EEEENS0_9allocatorISA_EEE9SelectKeyESJ_SL_E8min_sizeEjj
Yeb:__Z35Transfer_Blittable_SingleValueFieldI14SafeBinaryReadjEvRT_R17GeneralMonoObjectRK23StaticTransferFieldInfo
XD:__ZN11AudioSource24ClearExtensionPropertiesE12PropertyName
KJh:_Array_InternalArray__set_Item_TisColor32_t2600501292_m1891325855_gshared
O9:__ZN9ShaderLab22SerializedBindChannels8TransferI19StreamedBinaryWriteILb0EEEEvRT_
fUi:_playerHealth_Fall_m1352706177
FJg:__Z52RuntimeInvoker_Decimal_t2948259380_Int32_t2950945753PFvvEPK10MethodInfoPvPS4_
Mfb:__ZN15SerializeTraitsI5RectTIiEE8TransferI14SafeBinaryReadEEvRS1_RT_
sdc:__ZN5IMGUI20MoveWindowFromLayoutER8GUIStateiRK5RectTIfE
AQg:__Z50RuntimeInvoker_SByte_t1669577662_Int64_t3736567304PFvvEPK10MethodInfoPvPS4_
mXi:_Physics2D_Internal_RaycastNonAlloc_m3815006984
uFc:_UNITY_FT_Stream_ReadUShort
boh:_Collection_1_System_Collections_IList_get_Item_m1677338752_gshared
jmb:__Z29Transfer_Blittable_ArrayFieldI19StreamedBinaryWriteILb0EE11ColorRGBA32EvRT_R9ArrayInfoRK23StaticTransferFieldInfo
T5:__ZNSt3__26__treeINS_12__value_typeIN4core12basic_stringIcNS2_20StringStorageDefaultIcEEEES6_EENS_19__map_value_compareIS6_S7_NS_4lessIS6_EELb1EEE13stl_allocatorIS7_L18MemLabelIdentifier1ELi16EEE7destroyEPNS_11__tree_nodeIS7_PvEE
U_d:_DerivedType_IsAssignableFrom_m1623073368
v2f:_EqualityComparer_1_get_Default_m1095255266_gshared
kka:__Z13IsDepthFormat14GraphicsFormat
nqf:_DateTime_Parse_m3729096069
dVd:_MonoType_GetFields_m4176012508
tVg:__Z73RuntimeInvoker_Single_t1397266774_Vector3_t3722313464_Vector3_t3722313464PFvvEPK10MethodInfoPvPS4_
rBc:__Z12FormatBufferPciPKcz
iof:_CurrentSystemTimeZone_GetTimeZoneData_m2641861607
ENc:__ZN15SerializeTraitsI13dynamic_arrayI4PPtrIN13TextRendering4FontEELj4EEE19ResizeSTLStyleArrayERS5_i
w0f:_EqualityComparer_1_System_Collections_IEqualityComparer_GetHashCode_m3423304513_gshared
OVh:__ZL57FileSystemInfo_t3745885336_CustomAttributesCacheGeneratorP21CustomAttributesCache
bZi:__ZN6il2cpp2vm5Class13GetArrayClassEP11Il2CppClassj
I6c:_StandaloneInputModule_set_inputActionsPerSecond_m4057208843
Awb:__ZN19RuntimeSceneManager18LoadSceneAsyncIntoER10UnitySceneRKN4core12basic_stringIcNS2_20StringStorageDefaultIcEEEENS_11LoadingModeEb
HSd:_TextWriter_Write_m164803641
ghc:__Z35Transfer_Blittable_FixedBufferFieldI9JSONWritetEvRK29SerializationCommandArgumentsR31RuntimeSerializationCommandInfo
zdc:__ZN11IMGUIModule12AddGUIScriptER8ListNodeI13MonoBehaviourE
pb:invoke_difi
BHi:_GUILayoutUtility_BeginWindow_m2240221150
dTj:_glDeleteSamplers__wrapper
zNe:_KeyGeneratedEventHandler_EndInvoke_m1628355235
k2e:_HybridDictionary_set_Item_m2997363718
iFb:__ZN29MotionVectorRenderLoopScratch15ThreadedCleanupEv
Sm:FUNCTION_TABLE_iiffi
vxe:_InternalEnumerator_1_get_Current_m1477715453_AdjustorThunk
wzh:__ZN28GenericInterfaceFuncInvoker1IiP12Il2CppObjectE6InvokeEPK10MethodInfoS1_S1_
y7:__ZN15SerializeTraitsI13dynamic_arrayItLj2EEE19ResizeSTLStyleArrayERS1_i
glg:_UInt64_System_IConvertible_ToUInt32_m2784653358
Rja:__ZN21GLESGpuProgramApplier11ApplyVectorERKN20GpuProgramParameters14ValueParameterEPK8Vector4ft
GJb:__Z17PrepareSceneNodesP11CullResults
hpa:__ZN6prcoreL27StretchGenericFloatBilinearI18TexFormatRGBAFloatEEvPKNS_9InnerInfoE
Noj:__ZN15dense_hashtableINSt3__24pairIK10KeyWrapperIP14Il2CppIUnknownEjEES5_N6il2cpp5utils11PointerHashIS3_EEN14dense_hash_mapIS5_jSB_NS5_14EqualsComparerINS0_8equal_toIS4_EEEENS0_9allocatorIS7_EEE9SelectKeyESG_SI_E12expand_arrayEjN21dense_hash_map_traits17integral_constantIbLb0EEE
Rid:_SByte_System_IConvertible_ToDecimal_m2548745278
uCc:_cff_size_done
fKb:__ZN29ExtractProjectionPlanesHelperILb1EE5ApplyERK10Matrix4x4fP5Plane
dZb:__ZN13ProduceHelperI7CubemapLb0EE7ProduceE10MemLabelId18ObjectCreationMode
pOb:__ZN6Camera34UpdatePreviousViewProjectionMatrixEv
Iaa:__ZN9ShaderLab11ShaderState25RemoveUnsupportedProgramsEPK6Shader
$Qc:__Z28Font_Get_Custom_PropMaterialP12Il2CppObject
Mug:_Mathf_Abs_m3281243566
oSd:_SynchronizedWriter_WriteLine_m1552352268
z9d:_DefaultDependencyAttribute__ctor_m502524668
RSg:__Z44RuntimeInvoker_X509KeyUsageFlags_t1431795504PFvvEPK10MethodInfoPvPS4_
A1b:__Z26scripting_class_has_parent17ScriptingClassPtrS_
V$:__ZN13RuntimeStaticI21AssetReferenceStorageLb0EE16StaticInitializeEPv
PZc:__ZNSt3__26__treeINS_12__value_typeIN4core12basic_stringIcNS2_20StringStorageDefaultIcEEEEN11UnityEngine7Connect19RemoteSettingsValueEEENS_19__map_value_compareIS6_SA_NS_4lessIS6_EELb1EEE13stl_allocatorISA_L18MemLabelIdentifier6ELi16EEE16__construct_nodeERKNS_4pairIKS6_S9_EE
XJd:_Int32_System_IConvertible_ToByte_m3832391412_AdjustorThunk
FE:__Z71Register_UnityEngine_AudioSource_INTERNAL_CALL_ClearExtensionPropertiesv
ORh:__ZL81RuntimeArray_CustomAttributesCacheGenerator_Array_GetValue_m116098292____indices0P21CustomAttributesCache
vte:_InternalEnumerator_1_System_Collections_IEnumerator_get_Current_m4088805473_gshared
Hm:FUNCTION_TABLE_viiifiii
eec:__Z36Register_UnityEngine_GUI_set_changedv
aee:_Context_GetServerContextSinkChain_m3154465897
C9d:_FixedBufferAttribute_get_Length_m1478886548
cYe:_GetRayIntersectionAllCallback_EndInvoke_m1583561415
tIi:_GUIStyle_get_fixedHeight_m2868324709
hod:__ZN30GenericInterfaceActionInvoker2IiiE6InvokeEPK10MethodInfoP12Il2CppObjectii
bGd:_Convert_ToInt64_m2075293963
BFj:__GLOBAL__sub_I_Il2CppCodeRegistration_cpp
eRf:__ZN21InterfaceFuncInvoker2Ii20UICharInfo_t75501106S0_E6InvokeEjP11Il2CppClassP12Il2CppObjectS0_S0_
nFh:_UnityAction_2_BeginInvoke_m1322091188_gshared
lcd:_Dropdown_set_value_m1048320169
JJa:__ZN20TierGraphicsSettings8TransferI18StreamedBinaryReadILb0EEEEvRT_
hEf:_SHA384Managed_adjustByteCounts_m2921970088
uKd:_Int32_System_IConvertible_ToUInt64_m2502338186_AdjustorThunk
C3:__Z33CleanupCubemapGPUUtilityMaterialsPv
EPa:__ZN14SafeBinaryRead8TransferINSt3__24pairIN9ShaderLab16FastPropertyNameE10ColorRGBAfEEEEvRT_PKc17TransferMetaFlags
QXi:__ZL9rshift128PyS_
_od:__ZN23InterfaceActionInvoker1IP25SmallXmlParser_t973787839E6InvokeEjP11Il2CppClassP12Il2CppObjectS1_
r6f:_Enumerator_VerifyState_m169680537_AdjustorThunk
Zej:__ZN14dense_hash_mapI10KeyWrapperINSt3__24pairIPK12PropertyInfoP11Il2CppClassEEEj17ReflectionMapHashIS8_ENS9_14EqualsComparerINS1_8equal_toIS8_EEEENS1_9allocatorINS2_IKS9_jEEEEE13set_empty_keyERSH_
Sg:_glRenderbufferStorage
Epj:__ZNK15dense_hashtableINSt3__24pairIK10KeyWrapperINS1_IPKcS4_EEEiEES6_24NamespaceAndNamePairHashN14dense_hash_mapIS6_iS9_NS6_14EqualsComparerI26NamespaceAndNamePairEqualsEENS0_9allocatorIS8_EEE9SelectKeyESD_SF_E13find_positionERS7_
d7b:__Z45Register_UnityEngine_Input_get_touchSupportedv
rYc:__ZN11UnityEngine15PlatformWrapper28GetTextureFormatSupportFlagsEv
vHc:_sfnt_is_postscript
hPb:__ZNSt3__26vectorINS_4pairIN4core12basic_stringIcNS2_20StringStorageDefaultIcEEEES6_EE13stl_allocatorIS7_L18MemLabelIdentifier38ELi16EEE26__swap_out_circular_bufferERNS_14__split_bufferIS7_RSA_EEPS7_
DFi:_Uri_EscapeString_m3864445955
hDc:_cf2_setError
wti:__ZL78LayoutRebuilder_t541313304_CustomAttributesCacheGenerator_U3CU3Ef__mgU24cache0P21CustomAttributesCache
yZa:__ZN14SafeBinaryRead21TransferSTLStyleArrayI13dynamic_arrayI12BoneWeights4Lj16EEEEvRT_17TransferMetaFlags
HAe:_Enumerator_MoveNext_m465222849_AdjustorThunk
yzb:__ZZ23InitPlayerLoopCallbacksvEN35PreUpdateSendMouseEventsRegistrator7ForwardEv
BFf:_X509Certificate__ctor_m1321742168
TTe:_U3CMouseDragOutsideRectU3Ec__Iterator1_System_Collections_Generic_IEnumeratorU3CobjectU3E_get_Current_m3688496850
Lsa:__ZNK6Camera25GetNormalizedViewportRectEP13RenderTextureb
mcd:_Dropdown_Awake_m3140021404
dh:_glDisable
I2g:__Z52RuntimeInvoker_Void_t1185182177_UriScheme_t722425697PFvvEPK10MethodInfoPvPS4_
PNa:__ZN13RenderTexture8TransferI24GenerateTypeTreeTransferEEvRT_
hYh:__ZL53IsVolatile_t2097058663_CustomAttributesCacheGeneratorP21CustomAttributesCache
nFg:_Vector2_get_sqrMagnitude_m837837635
pya:__ZN4PPtrI9Texture2DE8TransferI14SafeBinaryReadEEvRT_
N8h:__ZL59WritableAttribute_t812406054_CustomAttributesCacheGeneratorP21CustomAttributesCache
cyj:__ZN6il2cpp5utils11StringUtils15StringDuplicateEPKDsj
rDi:_Regex_Match_m4145799399
LKf:_String_IsNullOrEmpty_m2969720369
oFe:_Enumerator_MoveNext_m2602845255_gshared
cTi:_TextGenerator_GetPreferredHeight_m3514897836
LKe:_BigInteger_LowestSetBit_m3082714978
YHg:__Z78RuntimeInvoker_Int16_t2552820387_RuntimeObject_Int32_t2950945753_RuntimeObjectPFvvEPK10MethodInfoPvPS4_
PXj:b118
QXj:b119
wNh:_LayoutGroup_SetProperty_TisTextAnchor_t2035777396_m2990589179_gshared
wAb:__ZNK8Material12GetPassCountEv
_Cf:_RSAParameters_t1728406613_marshal_pinvoke
jcf:_Interval_IsDisjoint_m1532171337_AdjustorThunk
JXj:b112
FMj:_bitshift64Ashr
LXj:b114
MXj:b115
NXj:b116
OXj:b117
S1i:__ZN30dense_hashtable_const_iteratorINSt3__24pairIK10KeyWrapperIN6il2cpp5utils13dynamic_arrayIPK10Il2CppTypeLj4EEEEPFvvEEESA_NS3_8metadata19Il2CppSignatureHashEN14dense_hash_mapISA_SD_SG_NSA_14EqualsComparerINSF_22Il2CppSignatureCompareEEENS0_9allocatorISE_EEE9SelectKeyESK_SM_E30advance_past_empty_and_deletedEv
bOj:dynCall_diii
PVe:_LayoutUtility_GetFlexibleWidth_m22831835
Zje:_BinaryFormatter__ctor_m971003555
zme:_ArrayReadOnlyList_1_ReadOnlyError_m865416608_gshared
nTg:__Z91RuntimeInvoker_Void_t1185182177_Int32_t2950945753_Int32U26_t1369213839_Int32U26_t1369213839PFvvEPK10MethodInfoPvPS4_
vrg:_DisplaysUpdatedDelegate_EndInvoke_m3857124817
PAd:_CollectionBase_System_Collections_IList_get_Item_m3743372945
SGf:_Evidence_GetEnumerator_m302914965
Kla:__ZN4crnd12crn_unpacker22decode_alpha_endpointsEv
dih:_Queue_1__ctor_m2068090025_gshared
MKb:__Z23CullDynamicObjectsUmbraPK4AABBPKN5Umbra15OcclusionBufferER9IndexList
Tui:_SslStreamBase_RaiseRemoteCertificateValidation2_m2908038766
QLi:__ZL23UnresolvedVirtualCall_9P12Il2CppObjectS0_iPK10MethodInfo
cJc:_tt_cmap4_char_next
Clg:_UIntPtr__ctor_m4250165422_AdjustorThunk
jDg:_Time_get_timeScale_m701790074
cO:__ZN4core8hash_mapIi17ThreadedAwakeDataNS_4hashIiEENSt3__28equal_toIiEEE4growEi
VHg:__Z50RuntimeInvoker_Boolean_t97287965_Int16_t2552820387PFvvEPK10MethodInfoPvPS4_
kFd:_Convert_ToDecimal_m1233667008
xYg:__Z44RuntimeInvoker_RuntimeObject_Ray_t3785851493PFvvEPK10MethodInfoPvPS4_
Vve:_InternalEnumerator_1_MoveNext_m2734554195_gshared
bO:__ZN4core8hash_mapIi17ThreadedAwakeDataNS_4hashIiEENSt3__28equal_toIiEEE4growEv
yX:__GLOBAL__sub_I_runtime_assetbundles_1_cpp
Iff:_MD5SHA1_HashCore_m4171647335
Qw:__ZN4FMOD7Channel11setPositionEjj
Xh:_glBindSampler
gif:_ClientContext_get_ClientHelloProtocol_m1654639078
$h:_glGetVertexAttribiv
FFe:_Enumerator_System_Collections_IEnumerator_get_Current_m1975949486_gshared
KBi:_PatternCompiler_EmitSub_m193323684
YRg:__Z74RuntimeInvoker_RuntimeObject_RuntimeObject_SByte_t1669577662_RuntimeObjectPFvvEPK10MethodInfoPvPS4_
VKd:_Int64_System_IConvertible_ToByte_m375085029
Skc:__ZN8JSONRead8TransferIbEEvRT_PKc17TransferMetaFlagsb
oqg:_CullingGroup_t2096318768_marshal_pinvoke
_gg:_TimeSpan_ToString_m1128692466
wBg:_RequireComponent__ctor_m886241599
rKi:_AesManaged_CreateEncryptor_m2294080233
iMi:__ZL24UnresolvedVirtualCall_29P12Il2CppObjectS0_iPK10MethodInfo
hHi:_Event_GetHashCode_m3559153592
vdc:__Z26RegisterModuleICalls_IMGUIv
vaa:__ZN9ShaderLab9SubShaderD2Ev
zBc:__ZN19ControllerHitReport13onObstacleHitERKN5physx23PxControllerObstacleHitE
oQg:__Z51RuntimeInvoker_Int16_t2552820387_Single_t1397266774PFvvEPK10MethodInfoPvPS4_
nAj:_GC_promote_black_lists
VEd:_Convert_ToChar_m3757390865
Glc:__Z29Transfer_Blittable_ArrayFieldI8JSONRead8Vector4fEvRT_R9ArrayInfoRK23StaticTransferFieldInfo
Zn:FUNCTION_TABLE_vf
EYd:_Binder_GetDerivedLevel_m3216810447
yo:FUNCTION_TABLE_vd
BAc:__ZN16b2StackAllocatorC2Ev
ybf:_RepeatContext_get_Start_m1076992038
SY:__ZN13RuntimeStaticI37UnityShaderCompilerExtPluginConfigureLb0EE16StaticInitializeEPv
fcg:_StringBuilder_AppendFormat_m2403596038
jld:_DSASignatureDeformatter_SetHashAlgorithm_m3186995552
kth:_ReadOnlyCollection_1_System_Collections_Generic_ICollectionU3CTU3E_Clear_m2772202961_gshared
Vic:__ZN9JSONWrite8TransferI13dynamic_arrayI4AABBLj4EEEEvRT_PKc17TransferMetaFlags
Ys:__ZNK8Animator17HasBoundPlayablesEv
Yxc:__ZN17Physics2DSettings8TransferI24GenerateTypeTreeTransferEEvRT_
o9d:_ResourceSet_ReadResources_m3663669011
ynh:_Collection_1_GetEnumerator_m3990758110_gshared
Ieg:_SynchronizationContext_SetSynchronizationContext_m1249070039
f8h:__ZL74X509Crl_t1148767388_CustomAttributesCacheGenerator_U3CU3Ef__switchU24map13P21CustomAttributesCache
nfh:_List_1_AddEnumerable_m1267044261_gshared
CIc:_tt_cmap13_char_index
o7i:__ZN6il2cpp2vm7Runtime9SetConfigEPKc
Hfc:__ZN5Unity9rapidjson12PrettyWriterI16TempBufferWriterNS0_4UTF8IcEES4_13JSONAllocatorE10StartArrayEv
ua:invoke_iiifiii
JAg:_RectTransform_INTERNAL_get_pivot_m2970933031
REh:_UnityAction_1_Invoke_m927447181_gshared
pmj:__ZN6il2cpp2vm9Exception11FromNameMsgEPK11Il2CppImagePKcS6_S6_
Aqj:__ZNSt3__26__treeINS_12__value_typeIP24Il2CppReflectionAssemblyPvEENS_19__map_value_compareIS3_S5_NS_4lessIS3_EELb1EEENS_9allocatorIS5_EEE12__find_equalIS3_EERPNS_16__tree_node_baseIS4_EESH_RKT_
jn:FUNCTION_TABLE_fiiifii
W2:__Z14GetTimeManagerv
Lpg:_Color32_op_Implicit_m213813866
jAg:_RectOffset_set_top_m713260669
iTb:__ZneRK20SpriteTilingPropertyS1_
ESh:__ZL61ArrayReadOnlyList_1_t221793636_CustomAttributesCacheGeneratorP21CustomAttributesCache
O$c:__ZN19TransportJavaScript7CleanupEv
PDa:__Z12GUIDToStringRK9UnityGUIDPc
T$:__ZN15FileSystemEntry4LockE12FileLockModeP12FileAccessor
RVj:_emscripten_glDrawArrays__wrapper
DKd:_Int32_Equals_m2976157357
WUg:__Z110RuntimeInvoker_Int32_t2950945753_Int32_t2950945753_Int32_t2950945753_Int32U26_t1369213839_Int32U26_t1369213839PFvvEPK10MethodInfoPvPS4_
dgh:_List_1_System_Collections_IList_get_IsReadOnly_m1601400230_gshared
bAd:_BitArray_get_IsSynchronized_m3546284417
nA:__ZN11AudioSource22UnmuteActiveVideoSinksEv
kwi:_TlsException__ctor_m3717683709
$xj:__ZN4utf88internal20is_overlong_sequenceIiEEbjT_
V0i:__ZN6il2cpp2vm13MetadataCache8RegisterEPK22Il2CppCodeRegistrationPK26Il2CppMetadataRegistrationPK20Il2CppCodeGenOptions
EJe:_SortKeyBuffer__ctor_m1384677558
$cd:_U3CDelayedDestroyDropdownListU3Ec__Iterator0_System_Collections_IEnumerator_get_Current_m1619733476
f4h:__ZL79Convert_t2465617642_CustomAttributesCacheGenerator_Convert_ToUInt16_m4064261444P21CustomAttributesCache
uFa:__Z9SetLocalR15TransformAccessRKN4math7_float4Ey
JGb:__Z30SetupBakedOcclusionForGeometrybRK26SharedLightmapSettingsDataRK15LightmapIndicesR17ShaderPassContext
xZ:__ZN13RuntimeStaticI13ModuleManagerLb0EE13StaticDestroyEPv
d5b:__Z41Register_UnityEngine_Cursor_get_lockStatev
fGb:__Z14SetupLightmapsRK8Vector4fS1_R17ShaderPassContext
xdj:__ZN14dense_hash_mapI10KeyWrapperIPK14Il2CppAssemblyEPK22Il2CppMonoAssemblyNameN6il2cpp5utils11PointerHashIS2_EENS4_14EqualsComparerINSt3__28equal_toIS3_EEEENSD_9allocatorINSD_4pairIKS4_S7_EEEEE13set_empty_keyERSJ_
BOa:__ZL20InitializeGUIShadersv
CBf:_Guid_CompareTo_m243656946
fSb:__Z20DestroyObjectDelayedP6Objectf
CK:__ZN20DynamicHeapAllocatorI17LowLevelAllocatorED0Ev
iMd:_IntPtr_ToPointer_m4157623054
Rvc:__ZN10ClipperLib11ClipperBase5ResetEv
QVb:__ZN11TimeManagerC2E10MemLabelId18ObjectCreationMode
DDb:__ZN9DepthPassD2Ev
Iv:__ZN11AudioFilter6GetDSPEv
gPe:_SymmetricTransform_CFB_m1051508796
Ebe:_UrlAttribute_GetPropertiesForNewContext_m2281450996
ZCf:_RSACryptoServiceProvider_OnKeyGenerated_m863837376
Xbh:_List_1_get_Capacity_m3047075120_gshared
ZZg:__Z31RuntimeInvoker_Mode_t1066900953PFvvEPK10MethodInfoPvPS4_
fZe:_Scrollbar_OnDrag_m4289602768
G_:__ZN19RuntimeSceneManager14CanUnloadSceneEP10UnityScene
FDb:__Z22ExtractRenderNodeQueueRK11CullResults15ExtractionFlagsR15RenderNodeQueue
U2f:_GenericEqualityComparer_1_GetHashCode_m457148860_gshared
rvj:__ZN6il2cpp2vm6Method7GetNameEPK10MethodInfo
bga:__ZN9GfxDevice16CreateTimerQueryEv
Nu:__ZN24AudioScriptBufferManagerC2Ev
NOc:__ZNSt3__26vectorIh13stl_allocatorIhL18MemLabelIdentifier1ELi16EEE8__appendEj
zve:_InternalEnumerator_1_System_Collections_IEnumerator_get_Current_m3854084659_AdjustorThunk
Vec:__ZN8JSONRead32GetValueForKeyWithNameConversionEPKN5Unity9rapidjson12GenericValueINS1_4UTF8IcEE13JSONAllocatorEEPKc
Cle:_U3CGetEnumeratorU3Ec__Iterator0_System_Collections_IEnumerator_get_Current_m283764921_gshared
V0f:_EqualityComparer_1_System_Collections_IEqualityComparer_GetHashCode_m3578195399_gshared
POc:__ZN20TextRenderingPrivate8FontImpl16ResetPackingDataEv
Fyf:_CultureInfo_get_IcuName_m2258611679
Fgc:__Z18Transfer_BlittableI9JSONWriteLb0EfEvRK29SerializationCommandArgumentsR31RuntimeSerializationCommandInfo
Xka:__Z21GetAsyncUploadManagerv
Oj:_emscripten_glDetachShader
PEe:_Transform_1_BeginInvoke_m3697921475_gshared
_Ag:_Vector2_op_Subtraction_m73004381
Lka:__ZN17GenericDynamicVBO20ReleaseChunkInternalERK21DynamicVBOChunkHandlejj
_Qc:__ZL27CleanupModule_TextRenderingv
hJj:_fmodl
cse:_InternalEnumerator_1__ctor_m39232262_gshared
hPe:_SymmetricTransform_OFB_m3842617151
Xmb:__Z18Transfer_BlittableI18StreamedBinaryReadILb1EELb1E4AABBEvRK29SerializationCommandArgumentsR31RuntimeSerializationCommandInfo
LJ:__Z37RegisterModuleICalls_CloudWebServicesv
WAa:__ZNSt3__26vectorIiNS_9allocatorIiEEE21__push_back_slow_pathIKiEEvRT_
Fwb:__ZN19RuntimeSceneManager11CreateSceneEv
mpg:_Color__ctor_m286683560
rBi:_PatternCompiler_Emit_m1540115729
mHc:_ps_get_standard_strings
IGb:__Z27SetupBakedOcclusionForLightbRK15SharedLightDataR17ShaderPassContext
TFj:__ZN6il2cpp2os5Mutex6UnlockEv
FQd:_NullStream_get_Position_m4048431226
T9f:_EncoderFallbackException__ctor_m1051987327
iqh:__ZN21InterfaceFuncInvoker1I19Vector2_t2156229523iE6InvokeEjP11Il2CppClassP12Il2CppObjecti
Fkf:_Context_set_RandomSC_m2364786761
A$h:__ZL73AsymmetricSignatureDeformatter_t2681190756_CustomAttributesCacheGeneratorP21CustomAttributesCache
Mrh:_Collection_1_CopyTo_m2335349786_gshared
TKe:_BigInteger_ToString_m3278248272
Lsf:_Decimal_System_IConvertible_ToBoolean_m1123794670
f1g:__Z98RuntimeInvoker_Int32_t2950945753_RaycastResult_t3360306849_RaycastResult_t3360306849_RuntimeObjectPFvvEPK10MethodInfoPvPS4_
X_:__Z17CommitBatchDeleteR11BatchDelete
_Ve:_Mask__ctor_m1269055150
I2h:__ZL99WaitHandle_t1743403487_CustomAttributesCacheGenerator_WaitHandle_t1743403487____Handle_PropertyInfoP21CustomAttributesCache
W5e:_WebRequest_AddPrefix_m3187775913
Xni:__ZL98PointerEventData_t3807901092_CustomAttributesCacheGenerator_PointerEventData_get_button_m359423249P21CustomAttributesCache
LGj:__ZNSt3__26__treeINS_12__value_typeIPFvvEPK10MethodInfoEENS_19__map_value_compareIS3_S7_NS_4lessIS3_EELb1EEENS_9allocatorIS7_EEE4findIS3_EENS_15__tree_iteratorIS7_PNS_11__tree_nodeIS7_PvEEiEERKT_
rAf:_NumberFormatInfo_get_CurrencyNegativePattern_m2134016253
G7h:__ZL85UriParser_t3890150400_CustomAttributesCacheGenerator_UriParser_OnRegister_m3283921560P21CustomAttributesCache
bpi:__ZL59Dropdown_t2274391225_CustomAttributesCacheGenerator_m_ValueP21CustomAttributesCache
$Ab:__Z18RenderImageFiltersR10RenderLoopb
lVc:__Z43CanvasRenderer_Get_Custom_PropMaterialCountP12Il2CppObject
TGb:__ZNSt3__227__insertion_sort_incompleteIR23CompareReflectionProbesP31RuntimeReflectionProbeBlendInfoEEbT0_S5_T_
Pbh:_List_1_Remove_m1457733883_gshared
$lc:__ZN8JSONRead21TransferSTLStyleArrayI13dynamic_arrayI11QuaternionfLj4EEEEvRT_17TransferMetaFlags
zp:__ZN6Object23VirtualRedirectTransferER19StreamedBinaryWriteILb1EE
pQh:__ZL80String_t_CustomAttributesCacheGenerator_String_FormatHelper_m3913915042____args3P21CustomAttributesCache
L1b:__ZN19RuntimeSceneManager32LoadSceneAsyncByNameOrBuildIndexERKN4core12basic_stringIcNS0_20StringStorageDefaultIcEEEEiNS_11LoadingModeEb
nHd:_Convert_ToUInt64_m1745056470
wff:_MD4Managed_Encode_m386285215
k0:__ZN10InputEventD2Ev
hlb:__Z18Transfer_BlittableI19StreamedBinaryWriteILb0EELb0E5RectTIfEEvRK29SerializationCommandArgumentsR31RuntimeSerializationCommandInfo
FHf:_SecurityElement_get_Children_m1231540612
Que:_InternalEnumerator_1_MoveNext_m1590908934_AdjustorThunk
V0c:__ZN22UnityWebRequestManagerD2Ev
XGi:_Event_get_character_m1666742088
c6g:__Z112RuntimeInvoker_Boolean_t97287965_CustomAttributeNamedArgument_t287865710_CustomAttributeNamedArgument_t287865710PFvvEPK10MethodInfoPvPS4_
OIj:_isalpha
FZe:_U3CClickRepeatU3Ec__Iterator0_Dispose_m4248496038
REd:_Convert_ToChar_m1442101407
Unf:_SslClientStream_OnLocalPrivateKeySelection_m1934775249
mIi:_GUILayoutEntry_CalcWidth_m3962591050
jfd:__ZN21InterfaceFuncInvoker1IP19Graphic_t1660335611iE6InvokeEjP11Il2CppClassP12Il2CppObjecti
xnc:__ZNK12b2MotorJoint17GetReactionTorqueEf
Jrf:_DateTimeOffset_get_Offset_m2040541042_AdjustorThunk
ygi:__ZL80Logger_t274032455_CustomAttributesCacheGenerator_U3ClogHandlerU3Ek__BackingFieldP21CustomAttributesCache
X4i:__ZN6il2cpp2vmL17IsSocketAsyncCallEP14Il2CppDelegate
kzc:__Z13RegisterClassI11Rigidbody2DEvv
CCd:_Slot_t3975888750_marshal_pinvoke_back
kyj:__ZN6il2cpp2vm6String6NewLenEPKcj
aV:__Z25GetBuiltinTexEnvParamNamei
Aub:__ZN17PersistentManager9AddStreamEv
zuj:__ZN6il2cpp2os6Thread12GetApartmentEv
yxa:__ZN9GfxDevice28UpdateComputeConstantBuffersEjP12ObjectHandleI18ConstantBuffer_TagPvEjjPKhPKjS8_PKi
dl:_time
tad:_ContentSizeFitter_set_verticalFit_m1831566876
vFf:_TripleDESCryptoServiceProvider_CreateDecryptor_m740960117
Hbc:__ZN16memory_pool_implILi28EE15AutoPoolWrapper12UninitializeEPv
wZg:__Z122RuntimeInvoker_Void_t1185182177_Color_t2555686324_Single_t1397266774_SByte_t1669577662_SByte_t1669577662_SByte_t1669577662PFvvEPK10MethodInfoPvPS4_
Eug:_Material_EnableKeyword_m329692301
WDc:_cf2_stack_free
rEf:_SHA512Managed_HashCore_m2377807474
DLd:_Int64_Parse_m3309897583
kzf:_CompareInfo_IndexOf_m667936183
Qfh:_List_1__ctor_m2203182218_gshared
v8g:_List_1_System_Collections_IList_Insert_m1011775503_gshared
lzg:_Rect_get_min_m847841034_AdjustorThunk
Xva:__ZN26SinglePassStereoSupportExt18AfterSetViewMatrixEv
Wng:_Bounds__ctor_m1937678907_AdjustorThunk
mCg:_SetupCoroutine_InvokeMember_m2661944898
N3f:_HashSet_1__ctor_m620629637_gshared
x6e:_X509EnhancedKeyUsageExtension_ToString_m350388564
c2d:_MethodBuilder_get_Module_m2693263127
j9i:__ZN15dense_hashtableINSt3__24pairIK10KeyWrapperINS1_IPK9FieldInfoP11Il2CppClassEEEjEES9_17ReflectionMapHashIS8_EN14dense_hash_mapIS9_jSD_NS9_14EqualsComparerINS0_8equal_toIS8_EEEENS0_9allocatorISB_EEE9SelectKeyESI_SK_E4findERSA_
tzd:_SimpleEnumerator_MoveNext_m3113120129
Iid:_RuntimeTypeHandle_GetHashCode_m3999856879_AdjustorThunk
Ewb:__ZN13LoadOperationC2E10MemLabelId
CQe:_InputField_SendOnValueChanged_m2560301445
rEi:_CapturingGroup_get_Name_m3747712535
nMb:__ZN13RenderTexture19SetAutoGenerateMipsEb
rma:__Z20GetTextureFormatInfo13TextureFormat
C3e:_TypeConverterAttribute_Equals_m1580461255
Agf:_RSAManaged_ToXmlString_m2369501989
KTe:_InputField_get_layoutPriority_m2945430764
icf:_Interval_get_Size_m4163671410_AdjustorThunk
vDi:_Regex_ToString_m1548107455
XSf:_NoAllocHelpers_SafeLength_TisVector2_t2156229523_m3807819939_gshared
vSc:__ZN2UI14CanvasRenderer13AwakeFromLoadE17AwakeFromLoadMode
hQh:__ZL64String_t_CustomAttributesCacheGenerator_String_Split_m3580120853P21CustomAttributesCache
Ynb:__ZN18StreamedBinaryReadILb1EE5AlignEv
jEj:__ZN6il2cpp5utils10MemoryPool6MallocEj
fu:__ZN11SoundHandle8InstanceD2Ev
_8d:_ResourceEnumerator_Reset_m3754276504
y3:__ZN31CanvasBatchIntermediateRenderer13StaticDestroyEPv
mP:__ZNSt3__23mapIiP15MonoScriptCacheNS_4lessIiEE13stl_allocatorINS_4pairIKiS2_EEL18MemLabelIdentifier78ELi16EEEixERS7_
r3i:__ZNK15dense_hashtableINSt3__24pairIK10KeyWrapperIPK11Il2CppClassEPKcEES6_N6il2cpp5utils11PointerHashIS3_EEN14dense_hash_mapIS6_S9_SE_NS6_14EqualsComparerINS0_8equal_toIS5_EEEENS0_9allocatorISA_EEE9SelectKeyESJ_SL_E10test_emptyERK24dense_hashtable_iteratorISA_S6_SE_SN_SJ_SL_E
Nli:__ZL102CanvasRenderer_t2598313366_CustomAttributesCacheGenerator_CanvasRenderer_set_materialCount_m4286588063P21CustomAttributesCache
pKg:__Z78RuntimeInvoker_Int32_t2950945753_RuntimeObject_RuntimeObject_Int32_t2950945753PFvvEPK10MethodInfoPvPS4_
jHa:__Z26scripting_method_get_class18ScriptingMethodPtr
CTj:_emscripten_glBindProgramARB__wrapper
a5b:__Z41Register_UnityEngine_CullingGroup_Disposev
OBi:_PatternCompiler_EmitRepeat_m697083858
pSa:__ZN7Cubemap23VirtualRedirectTransferER19StreamedBinaryWriteILb0EE
z7i:__ZN6il2cpp2vm7Runtime47RaiseExecutionEngineExceptionIfMethodIsNotFoundEPK10MethodInfoPK19Il2CppGenericMethod
_ae:_ConstructionLevelActivator__ctor_m3779412964
zCa:__ZN25MultiBlocksMemoryFileData5WriteEyyPKv
Joc:__ZNK13b2PulleyJoint16GetReactionForceEf
pqh:_Collection_1_GetEnumerator_m344341702_gshared
jcj:__ZNSt3__218uninitialized_fillIPNS_4pairIK10KeyWrapperINS1_IPK12PropertyInfoP11Il2CppClassEEEjEESB_EEvT_SD_RKT0_
D8d:_ResourceReader_Read7BitEncodedInt_m3568166465
PMe:_BlockProcessor_Core_m2138791525
Uei:__ZL95Mesh_t3648964284_CustomAttributesCacheGenerator_Mesh_GetIndices_m1466450660____applyBaseVertex1P21CustomAttributesCache
TUi:_CanvasGroup_set_alpha_m4032573
Erd:_Array_get_LongLength_m978104875
$pa:__ZL17ProgramUniform2fvPK7ApiGLESjiihPKv
nUj:b83
JHg:__Z68RuntimeInvoker_Boolean_t97287965_RuntimeObject_UInt64U26_t1265593412PFvvEPK10MethodInfoPvPS4_
JOc:__ZN20TextRenderingPrivate8FontImpl21HasCharacterInTextureEjijfPj
Z8a:__ZNSt3__227__insertion_sort_incompleteIRPFbRK23TransformAccessReadOnlyS3_EPS1_EEbT0_S8_T_
Qbd:_OptionData__ctor_m2529924901
zEg:_Transform_SetAsFirstSibling_m253439912
bti:__ZL93HorizontalOrVerticalLayoutGroup_t729725570_CustomAttributesCacheGenerator_m_ChildControlWidthP21CustomAttributesCache
xpf:_DateTime_System_IConvertible_ToUInt16_m4182197229_AdjustorThunk
bcf:_Interval_get_IsDiscontiguous_m3016063288
Vui:_SslStreamBase_get_CheckCertRevocationStatus_m2739906607
gKj:_htonl
$ha:__Z20GetBufferManagerGLESv
mUj:b82
BEf:_SHA512Managed_Sigma1_m922902398
Nqb:__ZN18StreamedBinaryReadILb0EE21TransferSTLStyleArrayI31ArrayOfManagedObjectsTransfererEEvRT_17TransferMetaFlags
Dia:__ZNSt3__26__treeI22DeviceStencilStateGLES14MemoryCompLessI18DeviceStencilStateENS_9allocatorIS1_EEE12__find_equalIS1_EERPNS_16__tree_node_baseIPvEESD_RKT_
hKj:_htons
Qjc:__Z18Transfer_BlittableI8JSONReadLb0EtEvRK29SerializationCommandArgumentsR31RuntimeSerializationCommandInfo
Kcj:__ZN15dense_hashtableINSt3__24pairIK10KeyWrapperINS1_IPK9EventInfoP11Il2CppClassEEEjEES9_17ReflectionMapHashIS8_EN14dense_hash_mapIS9_jSD_NS9_14EqualsComparerINS0_8equal_toIS8_EEEENS0_9allocatorISB_EEE9SelectKeyESI_SK_E12expand_arrayEjN21dense_hash_map_traits17integral_constantIbLb0EEE
lnb:__Z18Transfer_BlittableI18StreamedBinaryReadILb1EELb0E5RectTIiEEvRK29SerializationCommandArgumentsR31RuntimeSerializationCommandInfo
HN:__Z16GenerateTypeTreeRK6ObjectR8TypeTree24TransferInstructionFlags
aAf:_CultureInfo_CreateCulture_m1493441763
nFf:_TripleDES_IsWeakKey_m2147489852
DSa:__ZNK7Cubemap20GetTextureLayerCountEv
Kwc:__ZNSt3__26vectorIxNS_9allocatorIxEEE6assignIPxEENS_9enable_ifIXaasr21__is_forward_iteratorIT_EE5valuesr16is_constructibleIxNS_15iterator_traitsIS7_E9referenceEEE5valueEvE4typeES7_S7_
uPi:__ZL25UnresolvedVirtualCall_203P12Il2CppObjectiS0_PK10MethodInfo
GYg:__Z65RuntimeInvoker_Void_t1185182177_RuntimeObject_RectU26_t1284589061PFvvEPK10MethodInfoPvPS4_
qw:__ZN12AudioManager21FixMasterGroupRoutingEv
ZYa:__ZNK19ShaderPropertySheet11HasPropertyERKN9ShaderLab16FastPropertyNameE
Kyc:__ZN6b2Body9SetActiveEb
d0g:__Z81RuntimeInvoker_Boolean_t97287965_NavigationU26_t1807167253_Navigation_t3049316579PFvvEPK10MethodInfoPvPS4_
IVj:_emscripten_glUniform1fv__wrapper
Dfd:_GridLayoutGroup_SetLayoutHorizontal_m2838109254
oUg:__Z65RuntimeInvoker_SecurityProtocolType_t1513093309_Int16_t2552820387PFvvEPK10MethodInfoPvPS4_
Lbd:_Dropdown_RefreshShownValue_m2806045241
cdb:__Z18Transfer_BlittableI14SafeBinaryReadLb1E4AABBEvRK29SerializationCommandArgumentsR31RuntimeSerializationCommandInfo
Ytj:__ZN6il2cpp6icalls8mscorlib6System4Enum12get_hashcodeEP12Il2CppObject
lDj:_GC_set_no_dls
O9c:_ColorBlock_set_normalColor_m254595671_AdjustorThunk
JHj:__ZN6il2cpp8metadata26Il2CppGenericMethodCompare6EqualsEPK19Il2CppGenericMethodS4_
sqh:_Collection_1_InsertItem_m1996433897_gshared
sue:_InternalEnumerator_1_get_Current_m1007906068_gshared
SVa:__ZNK13ScreenManager16GetScreenTimeoutEv
Q_i:__ZN15dense_hashtableINSt3__24pairIK10KeyWrapperIPK11Il2CppClassEPKcEES6_N6il2cpp5utils11PointerHashIS3_EEN14dense_hash_mapIS6_S9_SE_NS6_14EqualsComparerINS0_8equal_toIS5_EEEENS0_9allocatorISA_EEE9SelectKeyESJ_SL_E15set_deleted_keyERKSA_
vzd:_SimpleEnumerator_Reset_m1520014659
V0h:__ZL53IPrincipal_t2343618843_CustomAttributesCacheGeneratorP21CustomAttributesCache
Ceg:_SendOrPostCallback__ctor_m1566534627
Vu:__ZN9AudioClip7WWWOpenEPKciPjPPvS4_
Vcb:__Z18Transfer_BlittableI14SafeBinaryReadLb0E8Vector2fEvRK29SerializationCommandArgumentsR31RuntimeSerializationCommandInfo
hkf:_Context_set_ProtocolNegotiated_m2904861662
LVh:__ZL54FileOptions_t1024913468_CustomAttributesCacheGeneratorP21CustomAttributesCache
Cpj:__ZN15dense_hashtableINSt3__24pairIK10KeyWrapperINS1_IPKcS4_EEEiEES6_24NamespaceAndNamePairHashN14dense_hash_mapIS6_iS9_NS6_14EqualsComparerI26NamespaceAndNamePairEqualsEENS0_9allocatorIS8_EEE9SelectKeyESD_SF_E12resize_deltaEjj
tTi:_cameraSystem_LateUpdate_m2925675220
Jie:_RemotingServices_GetRemoteObject_m2117098022
iVi:_CanvasRenderer_SetTexture_m1600559835
b$c:__ZN13dynamic_arrayIiLj4EE6insertEPiPKiS3_
qph:_Collection_1_System_Collections_IList_IndexOf_m4256072926_gshared
fLg:__Z132RuntimeInvoker_Boolean_t97287965_RuntimeObject_Int32_t2950945753_Int32_t2950945753_RuntimeObject_Int32_t2950945753_Int32_t2950945753PFvvEPK10MethodInfoPvPS4_
_6b:__Z53Register_UnityEngine_Input_INTERNAL_get_mousePositionv
Uha:__ZN7ApiGLES12DrawElementsE16GfxPrimitiveTypePKvjjjj
yOe:_EncryptedPrivateKeyInfo_get_Salt_m3453455261
Eqf:_DateTime__ParseNumber_m1240316250
TMe:_CryptoConvert_ToInt32LE_m3340980429
Iqe:_InternalEnumerator_1_get_Current_m3839250771_gshared
eac:__Z66Register_UnityEngine_Transform_INTERNAL_CALL_InverseTransformPointv
Ezf:_CultureInfo_get_TextInfo_m2342840448
h3c:_EventSystem_set_pixelDragThreshold_m890385646
Axa:__ZN9GfxDevice22DispatchComputeProgramE12ObjectHandleI18ComputeProgram_TagPvEjjj
kd:_SDL_GetTicks
fbj:__ZN15dense_hashtableINSt3__24pairIK10KeyWrapperINS1_IPK11Il2CppImageP11Il2CppClassEEEjEES9_17ReflectionMapHashIS8_EN14dense_hash_mapIS9_jSD_NS9_14EqualsComparerINS0_8equal_toIS8_EEEENS0_9allocatorISB_EEE9SelectKeyESI_SK_E6insertERKSB_
rKb:__Z21CreateShadowCullerJobP30CreateUmbraShadowCullerJobData
Ewh:_ReadOnlyCollection_1_System_Collections_Generic_ICollectionU3CTU3E_Remove_m4072504734_gshared
Tpa:__ZL18ProgramUniform2uivPK7ApiGLESjiihPKv
w8c:_U3COnFinishSubmitU3Ec__Iterator0_MoveNext_m2729496168
iVj:_glUniform4iv__wrapper
rHb:__Z33GenerateShadowCasterPartsSortDataRK16ShadowCasterDatajRK15RenderNodeQueueRKNSt3__26vectorI20ShadowCasterPartData13stl_allocatorIS7_L18MemLabelIdentifier2ELi16EEEERK10Matrix4x4fRjP20ShadowCasterSortData
Nzb:__ZZ23InitPlayerLoopCallbacksvEN51PostLateUpdateTriggerEndOfFrameCallbacksRegistrator7ForwardEv
Dgg:_TimeSpan_Compare_m753151303
agb:__Z29Transfer_Blittable_ArrayFieldI14SafeBinaryRead9BoundsIntEvRT_R9ArrayInfoRK23StaticTransferFieldInfo
bDc:_cf2_computeDarkening
WVi:_AnimationLayerMixerPlayable__ctor_m860721801_AdjustorThunk
U6d:_MonoPropertyInfo_get_property_info_m1599555644
jfh:_List_1_Add_m2298161512_gshared
Ikd:_DESTransform_CipherFunct_m3527261721
JAj:_GC_expand_hp_inner
kc:invoke_viiiififfi
Eac:__Z25Screen_Get_Custom_PropDpiv
nmb:__Z29Transfer_Blittable_ArrayFieldI19StreamedBinaryWriteILb0EEsEvRT_R9ArrayInfoRK23StaticTransferFieldInfo
Dsg:_UnityEventBase_RebuildPersistentCallsIfNeeded_m216788690
toi:__ZL80PhysicsRaycaster_t437419520_CustomAttributesCacheGenerator_m_MaxRayIntersectionsP21CustomAttributesCache
Qxj:__ZN4utf812find_invalidIPKcEET_S3_S3_
CSe:_InputField_OnEndDrag_m4127187089
bzh:_ReadOnlyCollection_1_System_Collections_IList_RemoveAt_m2555465054_gshared
uTh:__ZL72RuntimeCompatibilityAttribute_t1169614002_CustomAttributesCacheGeneratorP21CustomAttributesCache
bvf:_StackFrame__ctor_m343464319
AH:__ZN11UnityEngine15CloudWebService20WebRequestRestClient7PrepareEv
c6d:_MonoField_CheckGeneric_m453069507
DNi:__ZL25UnresolvedVirtualCall_104P12Il2CppObjectiS0_iS0_S0_PK10MethodInfo
wOc:__ZN20TextRenderingPrivate19NativeTextGenerator23FixLineHorizontalOffsetEiii
P_f:_DefaultComparer_Equals_m3348496647_gshared
Nge:_MethodCall_Init_m86192062
Bzd:_SynchronizedArrayListWrapper_get_IsFixedSize_m3396437476
Bke:_ObjectReader_ReadArrayOfString_m3550800559
dUd:_MonoCustomAttrs_GetCustomAttributesInternal_m648304078
gQj:_emscripten_glDepthRange__wrapper
lQ:__ZN14SerializedFile7ReleaseEv
dbb:__ZN16MemoryFileSystem4OpenER13FileEntryData14FilePermission16FileAutoBehavior
fzf:_CompareInfo_GetSortKey_m1915852346
NLc:_ft_var_load_avar
n3:__ZN13RuntimeStaticI13RendererSceneLb0EE13StaticDestroyEPv
Qxe:_DefaultComparer_Compare_m1297750557_gshared
EK:__ZN20DynamicHeapAllocatorI17LowLevelAllocatorE10ReallocateEPvji
DD:__ZN12AudioManager12CleanupClassEv
hjb:__Z18Transfer_BlittableI24GenerateTypeTreeTransferLb1E12PropertyNameEvRK29SerializationCommandArgumentsR31RuntimeSerializationCommandInfo
UKi:_Toggle_OnEnable_m1421694809
P1a:__ZN14SafeBinaryRead21TransferSTLStyleArrayI10vector_mapIPKN5Unity4TypeE7Hash128NSt3__24lessIS5_EENS7_9allocatorINS7_4pairIS5_S6_EEEEEEEvRT_17TransferMetaFlags
Uu:__ZN9AudioClip18GetQueuedAudioDataEPPvj
NQc:__ZN20TextRenderingPrivate21TextMeshGeneratorImpl14GarbageCollectEv
I8c:_CanvasScaler_get_scaleFactor_m122574367
O$b:__ZNK9Texture2D17CheckHasPixelDataEv
buc:__ZN15b2ContactSolver13StoreImpulsesEv
Wkb:__Z18Transfer_BlittableI19StreamedBinaryWriteILb0EELb0E9BoundsIntEvRK29SerializationCommandArgumentsR31RuntimeSerializationCommandInfo
mDb:__Z18SetShadowsKeywordsR17ShaderPassContext9LightType10ShadowType16ShadowProjectionbb
yNi:__ZL24UnresolvedVirtualCall_99P12Il2CppObjectS0_iS0_iPK10MethodInfo
Hed:_Graphic_GetPixelAdjustedRect_m3729397999
Yej:__ZN14dense_hash_mapI10KeyWrapperINSt3__24pairIPK12PropertyInfoP11Il2CppClassEEEj17ReflectionMapHashIS8_ENS9_14EqualsComparerINS1_8equal_toIS8_EEEENS1_9allocatorINS2_IKS9_jEEEEEC2EjRKSB_RKSF_
qYb:__ZN17CollisionMeshDataC2Ev
jIe:_Dictionary_2_ToTValue_m692436965_gshared
Csi:__ZL73AspectRatioFitter_t3312407083_CustomAttributesCacheGenerator_m_AspectModeP21CustomAttributesCache
dEi:_BalancingGroup_set_Balance_m3289053627
ENi:__ZL25UnresolvedVirtualCall_105P12Il2CppObjectS0_S0_S0_iPK10MethodInfo
pae:_Marshal_Copy_m1222846562
STa:__ZN16LightmapSettings23VirtualRedirectTransferER19StreamedBinaryWriteILb0EE
Qzb:__ZZ23InitPlayerLoopCallbacksvEN47PostLateUpdateMemoryFrameMaintenanceRegistrator7ForwardEv
Wha:__ZN7ApiGLES20SetVertexArrayAttribEjj12VertexFormathjPKv
Do:FUNCTION_TABLE_viiififii
uBj:_GC_push_next_marked
Z$f:_EqualityComparer_1_System_Collections_IEqualityComparer_GetHashCode_m3539775155_gshared
y6a:__ZN18IDCollectorFunctor18GenerateInstanceIDEi17TransferMetaFlags
auc:__ZN15b2ContactSolver9WarmStartEv
ASi:_TextGenerationSettings_Equals_m3618607189_AdjustorThunk
OJi:_SymmetricTransform_get_CanReuseTransform_m3495714228
k4d:_FieldInfo_get_UMarshal_m1217454798
$2e:_NameObjectCollectionBase_BaseAdd_m3437748750
Whg:_Type_internal_from_handle_m3156085815
yTg:__Z63RuntimeInvoker_RuntimeObject_RuntimeObject_Int32U26_t1369213839PFvvEPK10MethodInfoPvPS4_
JJc:_ft_smooth_init
a0h:__ZL55MACTripleDES_t1631262397_CustomAttributesCacheGeneratorP21CustomAttributesCache
e3i:__ZN6il2cpp2vm13MetadataCache25GetMethodGenericContainerEPK10MethodInfo
Tuh:_ReadOnlyCollection_1_System_Collections_Generic_ICollectionU3CTU3E_Add_m69722965_gshared
BSf:_Array_InternalArray__IndexOf_TisColor32_t2600501292_m3783551884_gshared
IR:__ZNSt3__27__sort4IRNS_6__lessI14ObjectLoadDataS2_EEPS2_EEjT0_S6_S6_S6_T_
VBb:__ZNK25CameraStackRenderingState16GetCurrentCameraEv
_Pf:_Array_InternalArray__IEnumerable_GetEnumerator_TisIntPtr_t_m2620447453_gshared
a_e:_ScrollRect_get_rectTransform_m2442061719
kAa:__ZN17PersistentManager4LockEv
YZh:__ZL51IMessage_t3593512748_CustomAttributesCacheGeneratorP21CustomAttributesCache
g_b:__Z22PlayableValidityChecksRK9HPlayableb
Wbi:__ZL57AnimationCurve_t3046754366_CustomAttributesCacheGeneratorP21CustomAttributesCache
t3a:__ZN15ResourceManagerD2Ev
Wte:_InternalEnumerator_1__ctor_m3383770493_gshared
R4b:__Z41Register_UnityEngine_Camera_GetAllCamerasv
Trg:_InvokableCall__ctor_m2158562079
M4i:__ZN6il2cpp2gc9AllocatorIP17Il2CppAsyncResultE10deallocateEPvj
LAc:__ZN14PhysicsQuery2D7RaycastERK8Vector2fS2_fRKN10Collider2D13ContactFilterEPKS3_bP12RaycastHit2Di
bDi:_Assertion__ctor_m2128950829
k_c:__ZN28PerformanceReportingSettings8TransferI14SafeBinaryReadEEvRT_
flh:_Collection_1_System_Collections_ICollection_get_SyncRoot_m2514790028_gshared
R7a:__ZN15CacheWriterBase18GetAddressOfMemoryEv
Gnd:_Buffer_BlockCopy_m2884209081
o0h:__ZL56RSAParameters_t1728406613_CustomAttributesCacheGeneratorP21CustomAttributesCache
Yjc:__Z18Transfer_BlittableI8JSONReadLb1E5RectTIiEEvRK29SerializationCommandArgumentsR31RuntimeSerializationCommandInfo
Vhi:__ZL84AudioSettings_t3587374600_CustomAttributesCacheGenerator_OnAudioConfigurationChangedP21CustomAttributesCache
Nlj:__ZN6il2cpp2vm22EmbeddedResourceRecordC2ERKS1_
Kba:__ZNSt3__26vectorIN9ShaderLab20SerializedSubProgram15VectorParameterENS_9allocatorIS3_EEE21__push_back_slow_pathIKS3_EEvRT_
jxb:__ZL20DrawVBOChunkWithPassP6ShaderPN9ShaderLab4PassER17ShaderPassContextR10DynamicVBORK21DynamicVBOChunkHandle
Glh:_Collection_1__ctor_m825528237_gshared
kSa:__ZN9Texture2D13AwakeFromLoadE17AwakeFromLoadMode
qPf:_SetPropertyUtility_SetStruct_TisColorBlock_t2139031574_m1748367426_gshared
vwg:_PlayerConnection_get_instance_m1750121257
qtj:__ZN6il2cpp2vm3RCW14QueryInterfaceILb0EEEP14Il2CppIUnknownP15Il2CppComObjectRK10Il2CppGuid
BTi:_equiationGravity__ctor_m3844195840
Y_h:__ZL61FormatterConverter_t2760117746_CustomAttributesCacheGeneratorP21CustomAttributesCache
U$a:__ZThn328_N14SpriteRendererD0Ev
Jhe:_ReturnMessage_set_Uri_m3134200303
Zna:__ZN6prcoreL17RemapGenericFloatI15TexFormatRFloat18TexFormatARGBFloatEEvPKNS_9InnerInfoE
JOg:__Z85RuntimeInvoker_Void_t1185182177_Int64_t3736567304_Int32_t2950945753_Int64_t3736567304PFvvEPK10MethodInfoPvPS4_
Chf:_CipherSuite__ctor_m2440635082
cDf:_RSAPKCS1KeyExchangeFormatter_SetRSAKey_m1477802943
Yei:__ZL104SendMouseEvents_t3273302915_CustomAttributesCacheGenerator_SendMouseEvents_DoSendMouseEvents_m2140870850P21CustomAttributesCache
ADf:_SHA1CryptoServiceProvider_HashCore_m3575298072
XGf:_EvidenceEnumerator_get_Current_m1264365535
h$c:__ZN11UnityEngine15PlatformWrapper20GetPlayerPrefsUInt64ERKN4core12basic_stringIcNS1_20StringStorageDefaultIcEEEEy
oae:_Marshal_copy_from_unmanaged_m2834266824
FOj:dynCall_iiiifii
XGb:__ZN20ReflectionProbeCacheC2ER13BatchRendererR15RenderLoopStats
sCf:_RIPEMD160Managed_G_m3625715749
qOa:__ZN7Texture23VirtualRedirectTransferER18StreamedBinaryReadILb0EE
Fzg:_Rect_set_xMax_m1720695099_AdjustorThunk
vRg:__Z59RuntimeInvoker_Int32_t2950945753_DateTimeOffset_t3229287507PFvvEPK10MethodInfoPvPS4_
bab:__ZNK12HandlerChain6ExistsERK13FileEntryData
kyf:_Calendar__ctor_m106290643
HHb:__Z30FindDirectAttenuationFromProbeP18ForwardLightsBlockbiRK10RenderNodeRK23FindForwardLightsParamsf
f0b:__ZNSt3__26vectorIj13stl_allocatorIjL18MemLabelIdentifier1ELi16EEE6assignIPKjEENS_9enable_ifIXaasr21__is_forward_iteratorIT_EE5valuesr16is_constructibleIjNS_15iterator_traitsIS9_E9referenceEEE5valueEvE4typeES9_S9_
$0a:__ZN12InputManager23VirtualRedirectTransferER24GenerateTypeTreeTransfer
g9a:__ZN9Transform23VirtualRedirectTransferER24GenerateTypeTreeTransfer
xVa:__Z18GetLODGroupManagerv
mcc:__ZN12GUIClipState10BeginOnGUIER10InputEvent
Eba:__ZNSt3__26vectorIN9ShaderLab20SerializedSubProgram12UAVParameterENS_9allocatorIS3_EEE21__push_back_slow_pathIKS3_EEvRT_
Gli:__ZL100CanvasGroup_t4083511760_CustomAttributesCacheGenerator_CanvasGroup_get_ignoreParentGroups_m865591534P21CustomAttributesCache
rUg:__Z87RuntimeInvoker_RuntimeObject_Byte_t1134296376_RuntimeObject_RuntimeObject_RuntimeObjectPFvvEPK10MethodInfoPvPS4_
kjf:_HandshakeMessage_Process_m810828609
t4f:_KeyValuePair_2_get_Value_m1339120122_AdjustorThunk
gKc:_UNITY_tt_size_ready_bytecode
gNc:__ZN13TextRendering4FontD2Ev
g2a:__ZN27GenericSlowGarbageCollectorD2Ev
kyg:_Quaternion_Inverse_m1311579081
PPc:_UNITY_FT_Stream_Open
_7c:_AspectRatioFitter_get_aspectRatio_m1928877056
HNi:__ZL25UnresolvedVirtualCall_108P12Il2CppObjectS0_aPK10MethodInfo
JCh:__ZN28GenericInterfaceFuncInvoker1Ib20UIVertex_t4057497605E6InvokeEPK10MethodInfoP12Il2CppObjectS0_
whd:_SerializationEntry_t648286436_marshal_pinvoke_back
jkb:__Z29Transfer_Blittable_ArrayFieldI24GenerateTypeTreeTransfer9BoundsIntEvRT_R9ArrayInfoRK23StaticTransferFieldInfo
nfd:_GraphicRegistry__cctor_m1805310505
aog:_Bounds_Equals_m3920299735
kLa:__ZN8keywords18KeywordSetToStringERK16ShaderKeywordSetRN4core12basic_stringIcNS3_20StringStorageDefaultIcEEEE
j1d:_GenericTypeParameterBuilder_GetGenericArguments_m2988765390
eGc:_otv_MATH_validate
TNg:__Z77RuntimeInvoker_Void_t1185182177_Int64_t3736567304_ResourceInfoU26_t1611441338PFvvEPK10MethodInfoPvPS4_
Bxb:__ZNSt3__26vectorIN22BuiltinResourceManager8ResourceENS_9allocatorIS2_EEE21__push_back_slow_pathIKS2_EEvRT_
a2g:__Z53RuntimeInvoker_Int32_t2950945753_Keyframe_t4206410242PFvvEPK10MethodInfoPvPS4_
ut:__ZN4FMOD3DSP12setParameterEif
Xub:__ZN13MemoryManager16StaticInitializeEv
Gzf:_CultureInfo_Equals_m1360976324
N4f:_KeyValuePair_2_set_Key_m3170517671_AdjustorThunk
qf:___cxa_free_exception
Jfi:__ZL69PersistentCall_t3407714124_CustomAttributesCacheGenerator_m_CallStateP21CustomAttributesCache
kzh:_ReadOnlyCollection_1_GetEnumerator_m122912648_gshared
Erg:_ArgumentCache_get_floatArgument_m3471193103
yx:__ZN4FMOD22FakeModChannelCallbackEPv
d2c:_BaseInput_get_compositionString_m1887614380
wf:_emscripten_glValidateProgram
YJa:__ZN4Mesh10CreateMeshEv
ood:_X509Certificate_get_IssuerName_m605048065
fnd:_RijndaelManagedTransform__ctor_m1033522223
O3e:_WebHeaderCollection__ctor_m896654210
bqf:_DateTime_CompareTo_m3889078633
EDc:_cf2_stack_clear
_3e:_RemoteCertificateValidationCallback_Invoke_m727898444
J0h:__ZL61SecurityPermission_t2954997752_CustomAttributesCacheGeneratorP21CustomAttributesCache
J2f:_GenericComparer_1__ctor_m2864776302_gshared
TId:_NumberFormatter_set_CurrentCulture_m1358228087
Qvc:__ZN10ClipperLib11ClipperBase5ClearEv
oMb:__ZN7Texture13SetAnisoLevelEi
OF:__ZNSt3__26__treeINS_12__value_typeIN4core12basic_stringIcNS2_20StringStorageDefaultIcEEEEjEENS_19__map_value_compareIS6_S7_NS_4lessIS6_EELb1EEE13stl_allocatorIS7_L18MemLabelIdentifier88ELi16EEE7destroyEPNS_11__tree_nodeIS7_PvEE
MW:__ZN19EndOfFrameCallbacks7EnqueueEP18EndOfFrameCallbackb
Xtg:_Input_set_compositionCursorPos_m1909373301
mkd:_CspParameters__ctor_m2741097571
IPg:__Z78RuntimeInvoker_IntPtr_t_SByte_t1669577662_RuntimeObject_BooleanU26_t4125257963PFvvEPK10MethodInfoPvPS4_
v6c:_RaycastResult_get_gameObject_m2570051527_AdjustorThunk
tWc:__Z44Canvas_CUSTOM_GetETC1SupportedCanvasMaterialv
Wtf:_Decimal_decimalSetExponent_m3707787243
oZ:__ZN33InstancedMeshIntermediateRenderer13StaticDestroyEPv
pOi:__ZL25UnresolvedVirtualCall_144P12Il2CppObject15Ray_t3785851493S0_fiPK10MethodInfo
rBd:_KeyNotFoundException__ctor_m2696589580
Coj:__ZN14dense_hash_mapI10KeyWrapperIP14Il2CppIUnknownEjN6il2cpp5utils11PointerHashIS1_EENS3_14EqualsComparerINSt3__28equal_toIS2_EEEENS9_9allocatorINS9_4pairIKS3_jEEEEE13set_empty_keyERSF_
Lja:__ZN15dense_hashtableINSt3__24pairIK9TextureIDiEES2_14GfxGenericHashIS2_EN14GfxDoubleCacheIS2_iS6_NS0_8equal_toIS2_EEN31GfxDoubleCacheConcurrencyPolicy11LocklessGetE42GfxDoubleCacheDefaultEmptyDeletedGeneratorIS2_EE9SelectKeyES9_13stl_allocatorIS4_L18MemLabelIdentifier24ELi16EEE12resize_deltaEjj
SZg:__Z50RuntimeInvoker_EditState_t3741896775_RuntimeObjectPFvvEPK10MethodInfoPvPS4_
eFh:__ZN30GenericInterfaceActionInvoker1I19Vector2_t2156229523E6InvokeEPK10MethodInfoP12Il2CppObjectS0_
YHa:__Z21DestroyShadowMapCacheP14ShadowMapCache
cOh:_Array_InternalArray__get_Item_TisLabelFixup_t858502054_m3276643490_gshared
M3f:_HashSet_1__ctor_m4231804131_gshared
wej:__ZN15dense_hashtableINSt3__24pairIK10KeyWrapperIPK10Il2CppTypeEjEES6_N6il2cpp8metadata14Il2CppTypeHashEN14dense_hash_mapIS6_jSB_NS6_14EqualsComparerINSA_26Il2CppTypeEqualityComparerEEENS0_9allocatorIS8_EEE9SelectKeyESF_SH_E14squash_deletedEv
vnj:__ZN6il2cpp2vm13LivenessState5ResetEv
ggc:__ZN9JSONWrite8TransferI11KeyframeTplIfEEEvRT_PKc17TransferMetaFlags
Omb:__Z18Transfer_BlittableI18StreamedBinaryReadILb1EELb0E8Vector2fEvRK29SerializationCommandArgumentsR31RuntimeSerializationCommandInfo
sXb:__ZN13ProduceHelperI8RendererLb1EE7ProduceE10MemLabelId18ObjectCreationMode
iDd:_SortedList_GetImpl_m3689246167
vuh:_ReadOnlyCollection_1_System_Collections_Generic_IListU3CTU3E_set_Item_m3209059215_gshared
Wka:__ZN24BuiltinShaderParamValuesC2Ev
Ixi:_PKCS12_Decode_m163534693
vgc:__ZL41CreateJSONTransferFunctionScriptingTraitsv
j5:__ZN6Shader23VirtualRedirectTransferER14SafeBinaryRead
xCc:_cff_glyph_load
rGg:_WaitForSecondsRealtime_get_keepWaiting_m846832224
Uqh:_Collection_1_System_Collections_IList_get_Item_m2087137030_gshared
Zsb:__Z23GetLateBehaviourManagerv
GMg:__Z33RuntimeInvoker_Single_t1397266774PFvvEPK10MethodInfoPvPS4_
